
C:/intelFPGA_lite/18.1/de1_soc_gcd_hardware/FPGA_monitor/de1_soc_gcd_hardware.axf:     file format elf32-littlearm


Disassembly of section .text:

00000000 <__cs3_interrupt_vector>:
       0:	18 f0 9f e5 18 f0 9f e5 18 f0 9f e5 18 f0 9f e5     ................
      10:	18 f0 9f e5 18 f0 9f e5 18 f0 9f e5 18 f0 9f e5     ................
      20:	40 00 00 00 54 36 01 00 58 36 01 00 5c 36 01 00     @...T6..X6..\6..
      30:	60 36 01 00 50 36 01 00 64 36 01 00 68 36 01 00     `6..P6..d6..h6..

00000040 <__cs3_reset>:
      40:	ea000026 	b	e0 <__cs3_start_asm_sim>

00000044 <__cs3_start_c>:
      44:	e59f608c 	ldr	r6, [pc, #140]	; d8 <__cs3_start_c+0x94>
      48:	e3560000 	cmp	r6, #0
      4c:	e92d4080 	push	{r7, lr}
      50:	e2466001 	sub	r6, r6, #1
      54:	0a00001e 	beq	d4 <__cs3_start_c+0x90>
      58:	e59f507c 	ldr	r5, [pc, #124]	; dc <__cs3_start_c+0x98>
      5c:	e3a00000 	mov	r0, #0
      60:	e3a01000 	mov	r1, #0
      64:	e515200c 	ldr	r2, [r5, #-12]
      68:	e515e010 	ldr	lr, [r5, #-16]
      6c:	e5154008 	ldr	r4, [r5, #-8]
      70:	e15e0002 	cmp	lr, r2
      74:	00822004 	addeq	r2, r2, r4
      78:	0a000009 	beq	a4 <__cs3_start_c+0x60>
      7c:	e3540000 	cmp	r4, #0
      80:	0a000007 	beq	a4 <__cs3_start_c+0x60>
      84:	e1a07002 	mov	r7, r2
      88:	e1a0c002 	mov	r12, r2
      8c:	e8be000c 	ldm	lr!, {r2, r3}
      90:	e8ac000c 	stmia	r12!, {r2, r3}
      94:	e067300c 	rsb	r3, r7, r12
      98:	e1540003 	cmp	r4, r3
      9c:	e1a0200c 	mov	r2, r12
      a0:	1afffff9 	bne	8c <__cs3_start_c+0x48>
      a4:	e515e004 	ldr	lr, [r5, #-4]
      a8:	e35e0000 	cmp	lr, #0
      ac:	11a03002 	movne	r3, r2
      b0:	0a000003 	beq	c4 <__cs3_start_c+0x80>
      b4:	e8a30003 	stmia	r3!, {r0, r1}
      b8:	e062c003 	rsb	r12, r2, r3
      bc:	e15e000c 	cmp	lr, r12
      c0:	1afffffb 	bne	b4 <__cs3_start_c+0x70>
      c4:	e2466001 	sub	r6, r6, #1
      c8:	e3760001 	cmn	r6, #1
      cc:	e2855014 	add	r5, r5, #20
      d0:	1affffe3 	bne	64 <__cs3_start_c+0x20>
      d4:	eb004bc0 	bl	12fdc <__cs3_premain>
      d8:	00000001 	.word	0x00000001
      dc:	00013bf4 	.word	0x00013bf4

000000e0 <__cs3_start_asm_sim>:
      e0:	e28f103c 	add	r1, pc, #60	; 0x3c
      e4:	e3a00016 	mov	r0, #22
      e8:	ef123456 	svc	0x00123456
      ec:	e3500000 	cmp	r0, #0
      f0:	ba000008 	blt	118 <__cs3_start_asm_sim+0x38>
      f4:	e59f2028 	ldr	r2, [pc, #40]	; 124 <__cs3_heap_start_ptr>
      f8:	e59fd01c 	ldr	sp, [pc, #28]	; 11c <__cs3_start_asm_sim+0x3c>
      fc:	e5920008 	ldr	r0, [r2, #8]
     100:	e3500000 	cmp	r0, #0
     104:	11a0d000 	movne	sp, r0
     108:	e59f1010 	ldr	r1, [pc, #16]	; 120 <__cs3_start_asm_sim+0x40>
     10c:	e5920004 	ldr	r0, [r2, #4]
     110:	e3500000 	cmp	r0, #0
     114:	15810000 	strne	r0, [r1]
     118:	eaffffc9 	b	44 <__cs3_start_c>
     11c:	3ffffff8 	.word	0x3ffffff8
     120:	000144f0 	.word	0x000144f0

00000124 <__cs3_heap_start_ptr>:
     124:	00014708 	.word	0x00014708

00000128 <_start>:
     128:	e51fd000 	ldr	sp, [pc, #-0]	; 130 <_start+0x8>
     12c:	eaffffc4 	b	44 <__cs3_start_c>
     130:	3ffffff8 	.word	0x3ffffff8

00000134 <deregister_tm_clones>:
     134:	e92d4008 	push	{r3, lr}
     138:	e59f002c 	ldr	r0, [pc, #44]	; 16c <deregister_tm_clones+0x38>
     13c:	e59f302c 	ldr	r3, [pc, #44]	; 170 <deregister_tm_clones+0x3c>
     140:	e0603003 	rsb	r3, r0, r3
     144:	e3530006 	cmp	r3, #6
     148:	8a000001 	bhi	154 <deregister_tm_clones+0x20>
     14c:	e8bd4008 	pop	{r3, lr}
     150:	e12fff1e 	bx	lr
     154:	e59f3018 	ldr	r3, [pc, #24]	; 174 <deregister_tm_clones+0x40>
     158:	e3530000 	cmp	r3, #0
     15c:	0afffffa 	beq	14c <deregister_tm_clones+0x18>
     160:	e1a0e00f 	mov	lr, pc
     164:	e12fff13 	bx	r3
     168:	eafffff7 	b	14c <deregister_tm_clones+0x18>
     16c:	000144f8 	.word	0x000144f8
     170:	000144fb 	.word	0x000144fb
     174:	00000000 	.word	0x00000000

00000178 <register_tm_clones>:
     178:	e92d4008 	push	{r3, lr}
     17c:	e59f0034 	ldr	r0, [pc, #52]	; 1b8 <register_tm_clones+0x40>
     180:	e59f3034 	ldr	r3, [pc, #52]	; 1bc <register_tm_clones+0x44>
     184:	e0603003 	rsb	r3, r0, r3
     188:	e1a03143 	asr	r3, r3, #2
     18c:	e0833fa3 	add	r3, r3, r3, lsr #31
     190:	e1b010c3 	asrs	r1, r3, #1
     194:	1a000001 	bne	1a0 <register_tm_clones+0x28>
     198:	e8bd4008 	pop	{r3, lr}
     19c:	e12fff1e 	bx	lr
     1a0:	e59f2018 	ldr	r2, [pc, #24]	; 1c0 <register_tm_clones+0x48>
     1a4:	e3520000 	cmp	r2, #0
     1a8:	0afffffa 	beq	198 <register_tm_clones+0x20>
     1ac:	e1a0e00f 	mov	lr, pc
     1b0:	e12fff12 	bx	r2
     1b4:	eafffff7 	b	198 <register_tm_clones+0x20>
     1b8:	000144f8 	.word	0x000144f8
     1bc:	000144f8 	.word	0x000144f8
     1c0:	00000000 	.word	0x00000000

000001c4 <__do_global_dtors_aux>:
     1c4:	e92d4010 	push	{r4, lr}
     1c8:	e59f402c 	ldr	r4, [pc, #44]	; 1fc <__do_global_dtors_aux+0x38>
     1cc:	e5d43000 	ldrb	r3, [r4]
     1d0:	e3530000 	cmp	r3, #0
     1d4:	1a000006 	bne	1f4 <__do_global_dtors_aux+0x30>
     1d8:	ebffffd5 	bl	134 <deregister_tm_clones>
     1dc:	e59f301c 	ldr	r3, [pc, #28]	; 200 <__do_global_dtors_aux+0x3c>
     1e0:	e3530000 	cmp	r3, #0
     1e4:	159f0018 	ldrne	r0, [pc, #24]	; 204 <__do_global_dtors_aux+0x40>
     1e8:	1320f000 	nopne	{0}
     1ec:	e3a03001 	mov	r3, #1
     1f0:	e5c43000 	strb	r3, [r4]
     1f4:	e8bd4010 	pop	{r4, lr}
     1f8:	e12fff1e 	bx	lr
     1fc:	000144f8 	.word	0x000144f8
     200:	00000000 	.word	0x00000000
     204:	00013704 	.word	0x00013704

00000208 <frame_dummy>:
     208:	e92d4008 	push	{r3, lr}
     20c:	e59f3034 	ldr	r3, [pc, #52]	; 248 <__cs3_region_zero_size_ram+0x38>
     210:	e3530000 	cmp	r3, #0
     214:	159f0030 	ldrne	r0, [pc, #48]	; 24c <__cs3_region_zero_size_ram+0x3c>
     218:	159f1030 	ldrne	r1, [pc, #48]	; 250 <__cs3_region_zero_size_ram+0x40>
     21c:	1320f000 	nopne	{0}
     220:	e59f002c 	ldr	r0, [pc, #44]	; 254 <__cs3_region_zero_size_ram+0x44>
     224:	e5903000 	ldr	r3, [r0]
     228:	e3530000 	cmp	r3, #0
     22c:	0a000003 	beq	240 <__cs3_region_zero_size_ram+0x30>
     230:	e59f3020 	ldr	r3, [pc, #32]	; 258 <__cs3_region_zero_size_ram+0x48>
     234:	e3530000 	cmp	r3, #0
     238:	11a0e00f 	movne	lr, pc
     23c:	112fff13 	bxne	r3
     240:	e8bd4008 	pop	{r3, lr}
     244:	eaffffcb 	b	178 <register_tm_clones>
     248:	00000000 	.word	0x00000000
     24c:	00013704 	.word	0x00013704
     250:	000144fc 	.word	0x000144fc
     254:	00013bf8 	.word	0x00013bf8
     258:	00000000 	.word	0x00000000

0000025c <start_timer>:
volatile uint8_t * const done_64 = (uint32_t *) 0x0820000D;


void start_timer(){
    //stop the timer
    *TIMER_CONTROL = 0x00000002;
     25c:	e3e03a13 	mvn	r3, #77824	; 0x13000
     260:	e3a02002 	mov	r2, #2
     264:	e50329f7 	str	r2, [r3, #-2551]	; 0xfffff609
    //set the timer interval to max
    *TIMER_START_VAL = 0xFFFFFFFF;
     268:	e3e02000 	mvn	r2, #0
     26c:	e50329ff 	str	r2, [r3, #-2559]	; 0xfffff601
    //start the timer
    *TIMER_CONTROL = 0x00000003;
     270:	e3a02003 	mov	r2, #3
     274:	e50329f7 	str	r2, [r3, #-2551]	; 0xfffff609
     278:	e12fff1e 	bx	lr

0000027c <get_elapsed_time>:
}

uint32_t get_elapsed_time(){
    //stop the timer
    *TIMER_CONTROL = 0x00000002;
     27c:	e3e03a13 	mvn	r3, #77824	; 0x13000
     280:	e3a02002 	mov	r2, #2
     284:	e50329f7 	str	r2, [r3, #-2551]	; 0xfffff609
    return (0xFFFFFFFF - *TIMER_SNAPSHOT);
     288:	e51309fb 	ldr	r0, [r3, #-2555]	; 0xfffff605
}
     28c:	e1e00000 	mvn	r0, r0
     290:	e12fff1e 	bx	lr

00000294 <get_GCF_32>:

uint32_t get_GCF_32(uint32_t a, uint32_t b) {

    // Swap if B > A
    if (a < b) {
     294:	e1500001 	cmp	r0, r1
     298:	31a03000 	movcc	r3, r0
        uint32_t temp = a;
        a = b;
     29c:	31a00001 	movcc	r0, r1
        b = temp;
     2a0:	31a01003 	movcc	r1, r3
     2a4:	3a000001 	bcc	2b0 <get_GCF_32+0x1c>
    }

    // Euclid's subtraction algorithm
    while (a != b) {
     2a8:	e1500001 	cmp	r0, r1
     2ac:	012fff1e 	bxeq	lr
        if (a > b) {
     2b0:	e1500001 	cmp	r0, r1
            a = a - b;
     2b4:	80610000 	rsbhi	r0, r1, r0
        } else {
            b = b - a;
     2b8:	90601001 	rsbls	r1, r0, r1
        a = b;
        b = temp;
    }

    // Euclid's subtraction algorithm
    while (a != b) {
     2bc:	e1500001 	cmp	r0, r1
     2c0:	1afffffa 	bne	2b0 <get_GCF_32+0x1c>
        } else {
            b = b - a;
        }
    }
    return a;
}
     2c4:	e12fff1e 	bx	lr

000002c8 <get_hw_GCF_32>:

uint32_t get_hw_GCF_32(uint32_t a, uint32_t b) {
    *param_a_32 = a;
     2c8:	e3a03000 	mov	r3, #0
     2cc:	e34f3f20 	movt	r3, #65312	; 0xff20
     2d0:	e5830018 	str	r0, [r3, #24]
    *param_b_32 = b;
     2d4:	e5831014 	str	r1, [r3, #20]

    while(*done_32 == 0){
     2d8:	e3a02000 	mov	r2, #0
     2dc:	e34f2f20 	movt	r2, #65312	; 0xff20
     2e0:	e5d2301c 	ldrb	r3, [r2, #28]
     2e4:	e3530000 	cmp	r3, #0
     2e8:	0afffffc 	beq	2e0 <get_hw_GCF_32+0x18>
    }

    //return the output from memory
    return *output_32;
     2ec:	e3a03000 	mov	r3, #0
     2f0:	e34f3f20 	movt	r3, #65312	; 0xff20
     2f4:	e5930010 	ldr	r0, [r3, #16]
}
     2f8:	e12fff1e 	bx	lr

000002fc <get_GCF_64>:

uint64_t get_GCF_64(uint64_t a, uint64_t b) {
     2fc:	e92d0030 	push	{r4, r5}
     300:	e1a04000 	mov	r4, r0
     304:	e1a05001 	mov	r5, r1

    // Swap if B > A
    if (a < b) {
     308:	e1550003 	cmp	r5, r3
     30c:	01540002 	cmpeq	r4, r2
     310:	2a000004 	bcs	328 <get_GCF_64+0x2c>
        uint64_t temp = a;
        a = b;
     314:	e1a04002 	mov	r4, r2
     318:	e1a05003 	mov	r5, r3
        b = temp;
     31c:	e1a02000 	mov	r2, r0
     320:	e1a03001 	mov	r3, r1
     324:	ea000002 	b	334 <get_GCF_64+0x38>
    }

    // Euclid's subtraction algorithm
    while (a != b) {
     328:	e1550003 	cmp	r5, r3
     32c:	01540002 	cmpeq	r4, r2
     330:	0a00000a 	beq	360 <get_GCF_64+0x64>
        if (a > b) {
     334:	e1530005 	cmp	r3, r5
     338:	01520004 	cmpeq	r2, r4
     33c:	2a000002 	bcs	34c <get_GCF_64+0x50>
            a = a - b;
     340:	e0544002 	subs	r4, r4, r2
     344:	e0c55003 	sbc	r5, r5, r3
     348:	ea000001 	b	354 <get_GCF_64+0x58>
        } else {
            b = b - a;
     34c:	e0522004 	subs	r2, r2, r4
     350:	e0c33005 	sbc	r3, r3, r5
        a = b;
        b = temp;
    }

    // Euclid's subtraction algorithm
    while (a != b) {
     354:	e1550003 	cmp	r5, r3
     358:	01540002 	cmpeq	r4, r2
     35c:	1afffff4 	bne	334 <get_GCF_64+0x38>
        } else {
            b = b - a;
        }
    }
    return a;
}
     360:	e1a00004 	mov	r0, r4
     364:	e1a01005 	mov	r1, r5
     368:	e8bd0030 	pop	{r4, r5}
     36c:	e12fff1e 	bx	lr

00000370 <get_hw_GCF_64>:

uint64_t get_hw_GCF_64(uint64_t a, uint64_t b) {
     370:	e24dd010 	sub	sp, sp, #16
     374:	e1cd00f8 	strd	r0, [sp, #8]
     378:	e1cd20f0 	strd	r2, [sp]
    //grab the upper and lower words of each operand and assign to hw module
    *param_a_64_lo = *((uint32_t *)&a);
     37c:	e3a03682 	mov	r3, #136314880	; 0x8200000
     380:	e5830020 	str	r0, [r3, #32]
    *param_a_64_hi = *(((uint32_t *)&a) + 1);
     384:	e59d200c 	ldr	r2, [sp, #12]
     388:	e5832024 	str	r2, [r3, #36]	; 0x24
    *param_b_64_lo = *((uint32_t *)&b);
     38c:	e59d2000 	ldr	r2, [sp]
     390:	e5832018 	str	r2, [r3, #24]
    *param_b_64_hi = *(((uint32_t *)&b) + 1);
     394:	e59d2004 	ldr	r2, [sp, #4]
     398:	e583201c 	str	r2, [r3, #28]
    //wait until done signal is sent from hw
    while(done_64 == 0){
    }

    //return the 64 bit value from hw output
    return *output_64;
     39c:	e1c321d0 	ldrd	r2, [r3, #16]
}
     3a0:	e1a00002 	mov	r0, r2
     3a4:	e1a01003 	mov	r1, r3
     3a8:	e28dd010 	add	sp, sp, #16
     3ac:	e12fff1e 	bx	lr

000003b0 <main>:

int main() {
     3b0:	e92d4ff0 	push	{r4, r5, r6, r7, r8, r9, r10, r11, lr}
     3b4:	e24dd01c 	sub	sp, sp, #28
    uint32_t elapsed_time;

    while(1) {

        //ask user for which version of gcd
        printf("32 or 64 bit GCD?: ");
     3b8:	e3035744 	movw	r5, #14148	; 0x3744
     3bc:	e3405001 	movt	r5, #1
        scanf("%d", &selection);
     3c0:	e3034758 	movw	r4, #14168	; 0x3758
     3c4:	e3404001 	movt	r4, #1

        if(selection == 32) {

            //ask for user input 32 bit values
            printf("Enter an unsigned 32 bit number for reg A: ");
     3c8:	e303b75c 	movw	r11, #14172	; 0x375c
     3cc:	e340b001 	movt	r11, #1
            scanf("%u", &REG_A);
     3d0:	e3038788 	movw	r8, #14216	; 0x3788
     3d4:	e3408001 	movt	r8, #1
            printf("Enter an unsigned 32 bit number for reg B: ");
     3d8:	e303378c 	movw	r3, #14220	; 0x378c
     3dc:	e3403001 	movt	r3, #1
     3e0:	e58d3004 	str	r3, [sp, #4]
    uint32_t elapsed_time;

    while(1) {

        //ask user for which version of gcd
        printf("32 or 64 bit GCD?: ");
     3e4:	e1a00005 	mov	r0, r5
     3e8:	eb00033f 	bl	10ec <printf>
        scanf("%d", &selection);
     3ec:	e1a00004 	mov	r0, r4
     3f0:	e28d1014 	add	r1, sp, #20
     3f4:	eb00037a 	bl	11e4 <scanf>

        if(selection == 32) {
     3f8:	e59d3014 	ldr	r3, [sp, #20]
     3fc:	e3530020 	cmp	r3, #32
     400:	1afffff7 	bne	3e4 <main+0x34>

            //ask for user input 32 bit values
            printf("Enter an unsigned 32 bit number for reg A: ");
     404:	e1a0000b 	mov	r0, r11
     408:	eb000337 	bl	10ec <printf>
            scanf("%u", &REG_A);
     40c:	e1a00008 	mov	r0, r8
     410:	e28d1010 	add	r1, sp, #16
     414:	eb000372 	bl	11e4 <scanf>
            printf("Enter an unsigned 32 bit number for reg B: ");
     418:	e59d0004 	ldr	r0, [sp, #4]
     41c:	eb000332 	bl	10ec <printf>
            scanf("%u", &REG_B);
     420:	e1a00008 	mov	r0, r8
     424:	e28d100c 	add	r1, sp, #12
     428:	eb00036d 	bl	11e4 <scanf>

            //calculate result in software
            printf("\nBegin software gcf:\n");
     42c:	e30307b8 	movw	r0, #14264	; 0x37b8
     430:	e3400001 	movt	r0, #1
     434:	eb000365 	bl	11d0 <puts>
            start_timer();
     438:	ebffff87 	bl	25c <start_timer>
            uint32_t GCF = get_GCF_32(REG_A, REG_B);
     43c:	e59d0010 	ldr	r0, [sp, #16]
     440:	e59d100c 	ldr	r1, [sp, #12]
     444:	ebffff92 	bl	294 <get_GCF_32>
     448:	e1a06000 	mov	r6, r0
            elapsed_time = get_elapsed_time();
     44c:	ebffff8a 	bl	27c <get_elapsed_time>
     450:	e1a0a000 	mov	r10, r0
            printf("GCD = %u\n", GCF);
     454:	e30377d0 	movw	r7, #14288	; 0x37d0
     458:	e3407001 	movt	r7, #1
     45c:	e1a00007 	mov	r0, r7
     460:	e1a01006 	mov	r1, r6
     464:	eb000320 	bl	10ec <printf>
            printf("Time: %.3fus\n\n", (float)elapsed_time/200.0);
     468:	e30367dc 	movw	r6, #14300	; 0x37dc
     46c:	e3406001 	movt	r6, #1
     470:	e1a0000a 	mov	r0, r10
     474:	eb0002c1 	bl	f80 <__aeabi_ui2f>
     478:	eb0000fa 	bl	868 <__aeabi_f2d>
     47c:	e3a02000 	mov	r2, #0
     480:	e3a03000 	mov	r3, #0
     484:	e3443069 	movt	r3, #16489	; 0x4069
     488:	eb0001c7 	bl	bac <__aeabi_ddiv>
     48c:	e1a02000 	mov	r2, r0
     490:	e1a03001 	mov	r3, r1
     494:	e1a00006 	mov	r0, r6
     498:	eb000313 	bl	10ec <printf>

            //calculate result in hardware
            printf("\nBegin hardware gcf:\n");
     49c:	e30307ec 	movw	r0, #14316	; 0x37ec
     4a0:	e3400001 	movt	r0, #1
     4a4:	eb000349 	bl	11d0 <puts>
            start_timer();
     4a8:	ebffff6b 	bl	25c <start_timer>
            GCF = get_hw_GCF_32(REG_A, REG_B);
     4ac:	e59d0010 	ldr	r0, [sp, #16]
     4b0:	e59d100c 	ldr	r1, [sp, #12]
     4b4:	ebffff83 	bl	2c8 <get_hw_GCF_32>
     4b8:	e1a09000 	mov	r9, r0
            elapsed_time = get_elapsed_time();
     4bc:	ebffff6e 	bl	27c <get_elapsed_time>
     4c0:	e1a0a000 	mov	r10, r0
            printf("GCD = %u\n", GCF);
     4c4:	e1a00007 	mov	r0, r7
     4c8:	e1a01009 	mov	r1, r9
     4cc:	eb000306 	bl	10ec <printf>
            printf("Time: %.3fus\n\n", (float)elapsed_time/200.0);
     4d0:	e1a0000a 	mov	r0, r10
     4d4:	eb0002a9 	bl	f80 <__aeabi_ui2f>
     4d8:	eb0000e2 	bl	868 <__aeabi_f2d>
     4dc:	e3a02000 	mov	r2, #0
     4e0:	e3a03000 	mov	r3, #0
     4e4:	e3443069 	movt	r3, #16489	; 0x4069
     4e8:	eb0001af 	bl	bac <__aeabi_ddiv>
     4ec:	e1a02000 	mov	r2, r0
     4f0:	e1a03001 	mov	r3, r1
     4f4:	e1a00006 	mov	r0, r6
     4f8:	eb0002fb 	bl	10ec <printf>
     4fc:	eaffffb8 	b	3e4 <main+0x34>

00000500 <__aeabi_drsub>:
     500:	e2211102 	eor	r1, r1, #-2147483648	; 0x80000000
     504:	ea000000 	b	50c <__adddf3>

00000508 <__aeabi_dsub>:
     508:	e2233102 	eor	r3, r3, #-2147483648	; 0x80000000

0000050c <__adddf3>:
     50c:	e92d4030 	push	{r4, r5, lr}
     510:	e1a04081 	lsl	r4, r1, #1
     514:	e1a05083 	lsl	r5, r3, #1
     518:	e1340005 	teq	r4, r5
     51c:	01300002 	teqeq	r0, r2
     520:	1194c000 	orrsne	r12, r4, r0
     524:	1195c002 	orrsne	r12, r5, r2
     528:	11f0cac4 	mvnsne	r12, r4, asr #21
     52c:	11f0cac5 	mvnsne	r12, r5, asr #21
     530:	0a00008c 	beq	768 <__adddf3+0x25c>
     534:	e1a04aa4 	lsr	r4, r4, #21
     538:	e0745aa5 	rsbs	r5, r4, r5, lsr #21
     53c:	b2655000 	rsblt	r5, r5, #0
     540:	da000006 	ble	560 <__adddf3+0x54>
     544:	e0844005 	add	r4, r4, r5
     548:	e0202002 	eor	r2, r0, r2
     54c:	e0213003 	eor	r3, r1, r3
     550:	e0220000 	eor	r0, r2, r0
     554:	e0231001 	eor	r1, r3, r1
     558:	e0202002 	eor	r2, r0, r2
     55c:	e0213003 	eor	r3, r1, r3
     560:	e3550036 	cmp	r5, #54	; 0x36
     564:	88bd4030 	pophi	{r4, r5, lr}
     568:	812fff1e 	bxhi	lr
     56c:	e3110102 	tst	r1, #-2147483648	; 0x80000000
     570:	e1a01601 	lsl	r1, r1, #12
     574:	e3a0c601 	mov	r12, #1048576	; 0x100000
     578:	e18c1621 	orr	r1, r12, r1, lsr #12
     57c:	0a000001 	beq	588 <__adddf3+0x7c>
     580:	e2700000 	rsbs	r0, r0, #0
     584:	e2e11000 	rsc	r1, r1, #0
     588:	e3130102 	tst	r3, #-2147483648	; 0x80000000
     58c:	e1a03603 	lsl	r3, r3, #12
     590:	e18c3623 	orr	r3, r12, r3, lsr #12
     594:	0a000001 	beq	5a0 <__adddf3+0x94>
     598:	e2722000 	rsbs	r2, r2, #0
     59c:	e2e33000 	rsc	r3, r3, #0
     5a0:	e1340005 	teq	r4, r5
     5a4:	0a000069 	beq	750 <__adddf3+0x244>
     5a8:	e2444001 	sub	r4, r4, #1
     5ac:	e275e020 	rsbs	lr, r5, #32
     5b0:	ba000005 	blt	5cc <__adddf3+0xc0>
     5b4:	e1a0ce12 	lsl	r12, r2, lr
     5b8:	e0900532 	adds	r0, r0, r2, lsr r5
     5bc:	e2a11000 	adc	r1, r1, #0
     5c0:	e0900e13 	adds	r0, r0, r3, lsl lr
     5c4:	e0b11553 	adcs	r1, r1, r3, asr r5
     5c8:	ea000006 	b	5e8 <__adddf3+0xdc>
     5cc:	e2455020 	sub	r5, r5, #32
     5d0:	e28ee020 	add	lr, lr, #32
     5d4:	e3520001 	cmp	r2, #1
     5d8:	e1a0ce13 	lsl	r12, r3, lr
     5dc:	238cc002 	orrcs	r12, r12, #2
     5e0:	e0900553 	adds	r0, r0, r3, asr r5
     5e4:	e0b11fc3 	adcs	r1, r1, r3, asr #31
     5e8:	e2015102 	and	r5, r1, #-2147483648	; 0x80000000
     5ec:	5a000002 	bpl	5fc <__adddf3+0xf0>
     5f0:	e27cc000 	rsbs	r12, r12, #0
     5f4:	e2f00000 	rscs	r0, r0, #0
     5f8:	e2e11000 	rsc	r1, r1, #0
     5fc:	e3510601 	cmp	r1, #1048576	; 0x100000
     600:	3a00000f 	bcc	644 <__adddf3+0x138>
     604:	e3510602 	cmp	r1, #2097152	; 0x200000
     608:	3a000006 	bcc	628 <__adddf3+0x11c>
     60c:	e1b010a1 	lsrs	r1, r1, #1
     610:	e1b00060 	rrxs	r0, r0
     614:	e1a0c06c 	rrx	r12, r12
     618:	e2844001 	add	r4, r4, #1
     61c:	e1a02a84 	lsl	r2, r4, #21
     620:	e3720501 	cmn	r2, #4194304	; 0x400000
     624:	2a00006b 	bcs	7d8 <__adddf3+0x2cc>
     628:	e35c0102 	cmp	r12, #-2147483648	; 0x80000000
     62c:	01b0c0a0 	lsrseq	r12, r0, #1
     630:	e2b00000 	adcs	r0, r0, #0
     634:	e0a11a04 	adc	r1, r1, r4, lsl #20
     638:	e1811005 	orr	r1, r1, r5
     63c:	e8bd4030 	pop	{r4, r5, lr}
     640:	e12fff1e 	bx	lr
     644:	e1b0c08c 	lsls	r12, r12, #1
     648:	e0b00000 	adcs	r0, r0, r0
     64c:	e0a11001 	adc	r1, r1, r1
     650:	e3110601 	tst	r1, #1048576	; 0x100000
     654:	e2444001 	sub	r4, r4, #1
     658:	1afffff2 	bne	628 <__adddf3+0x11c>
     65c:	e3310000 	teq	r1, #0
     660:	13a03014 	movne	r3, #20
     664:	03a03034 	moveq	r3, #52	; 0x34
     668:	01a01000 	moveq	r1, r0
     66c:	03a00000 	moveq	r0, #0
     670:	e1a02001 	mov	r2, r1
     674:	e3520801 	cmp	r2, #65536	; 0x10000
     678:	21a02822 	lsrcs	r2, r2, #16
     67c:	22433010 	subcs	r3, r3, #16
     680:	e3520c01 	cmp	r2, #256	; 0x100
     684:	21a02422 	lsrcs	r2, r2, #8
     688:	22433008 	subcs	r3, r3, #8
     68c:	e3520010 	cmp	r2, #16
     690:	21a02222 	lsrcs	r2, r2, #4
     694:	22433004 	subcs	r3, r3, #4
     698:	e3520004 	cmp	r2, #4
     69c:	22433002 	subcs	r3, r3, #2
     6a0:	304330a2 	subcc	r3, r3, r2, lsr #1
     6a4:	e04331a2 	sub	r3, r3, r2, lsr #3
     6a8:	e2532020 	subs	r2, r3, #32
     6ac:	aa000007 	bge	6d0 <__adddf3+0x1c4>
     6b0:	e292200c 	adds	r2, r2, #12
     6b4:	da000004 	ble	6cc <__adddf3+0x1c0>
     6b8:	e282c014 	add	r12, r2, #20
     6bc:	e262200c 	rsb	r2, r2, #12
     6c0:	e1a00c11 	lsl	r0, r1, r12
     6c4:	e1a01231 	lsr	r1, r1, r2
     6c8:	ea000004 	b	6e0 <__adddf3+0x1d4>
     6cc:	e2822014 	add	r2, r2, #20
     6d0:	d262c020 	rsble	r12, r2, #32
     6d4:	e1a01211 	lsl	r1, r1, r2
     6d8:	d1811c30 	orrle	r1, r1, r0, lsr r12
     6dc:	d1a00210 	lslle	r0, r0, r2
     6e0:	e0544003 	subs	r4, r4, r3
     6e4:	a0811a04 	addge	r1, r1, r4, lsl #20
     6e8:	a1811005 	orrge	r1, r1, r5
     6ec:	a8bd4030 	popge	{r4, r5, lr}
     6f0:	a12fff1e 	bxge	lr
     6f4:	e1e04004 	mvn	r4, r4
     6f8:	e254401f 	subs	r4, r4, #31
     6fc:	aa00000f 	bge	740 <__adddf3+0x234>
     700:	e294400c 	adds	r4, r4, #12
     704:	ca000006 	bgt	724 <__adddf3+0x218>
     708:	e2844014 	add	r4, r4, #20
     70c:	e2642020 	rsb	r2, r4, #32
     710:	e1a00430 	lsr	r0, r0, r4
     714:	e1800211 	orr	r0, r0, r1, lsl r2
     718:	e1851431 	orr	r1, r5, r1, lsr r4
     71c:	e8bd4030 	pop	{r4, r5, lr}
     720:	e12fff1e 	bx	lr
     724:	e264400c 	rsb	r4, r4, #12
     728:	e2642020 	rsb	r2, r4, #32
     72c:	e1a00230 	lsr	r0, r0, r2
     730:	e1800411 	orr	r0, r0, r1, lsl r4
     734:	e1a01005 	mov	r1, r5
     738:	e8bd4030 	pop	{r4, r5, lr}
     73c:	e12fff1e 	bx	lr
     740:	e1a00431 	lsr	r0, r1, r4
     744:	e1a01005 	mov	r1, r5
     748:	e8bd4030 	pop	{r4, r5, lr}
     74c:	e12fff1e 	bx	lr
     750:	e3340000 	teq	r4, #0
     754:	e2233601 	eor	r3, r3, #1048576	; 0x100000
     758:	02211601 	eoreq	r1, r1, #1048576	; 0x100000
     75c:	02844001 	addeq	r4, r4, #1
     760:	12455001 	subne	r5, r5, #1
     764:	eaffff8f 	b	5a8 <__adddf3+0x9c>
     768:	e1f0cac4 	mvns	r12, r4, asr #21
     76c:	11f0cac5 	mvnsne	r12, r5, asr #21
     770:	0a00001d 	beq	7ec <__adddf3+0x2e0>
     774:	e1340005 	teq	r4, r5
     778:	01300002 	teqeq	r0, r2
     77c:	0a000004 	beq	794 <__adddf3+0x288>
     780:	e194c000 	orrs	r12, r4, r0
     784:	01a01003 	moveq	r1, r3
     788:	01a00002 	moveq	r0, r2
     78c:	e8bd4030 	pop	{r4, r5, lr}
     790:	e12fff1e 	bx	lr
     794:	e1310003 	teq	r1, r3
     798:	13a01000 	movne	r1, #0
     79c:	13a00000 	movne	r0, #0
     7a0:	18bd4030 	popne	{r4, r5, lr}
     7a4:	112fff1e 	bxne	lr
     7a8:	e1b0caa4 	lsrs	r12, r4, #21
     7ac:	1a000004 	bne	7c4 <__adddf3+0x2b8>
     7b0:	e1b00080 	lsls	r0, r0, #1
     7b4:	e0b11001 	adcs	r1, r1, r1
     7b8:	23811102 	orrcs	r1, r1, #-2147483648	; 0x80000000
     7bc:	e8bd4030 	pop	{r4, r5, lr}
     7c0:	e12fff1e 	bx	lr
     7c4:	e2944501 	adds	r4, r4, #4194304	; 0x400000
     7c8:	32811601 	addcc	r1, r1, #1048576	; 0x100000
     7cc:	38bd4030 	popcc	{r4, r5, lr}
     7d0:	312fff1e 	bxcc	lr
     7d4:	e2015102 	and	r5, r1, #-2147483648	; 0x80000000
     7d8:	e385147f 	orr	r1, r5, #2130706432	; 0x7f000000
     7dc:	e381160f 	orr	r1, r1, #15728640	; 0xf00000
     7e0:	e3a00000 	mov	r0, #0
     7e4:	e8bd4030 	pop	{r4, r5, lr}
     7e8:	e12fff1e 	bx	lr
     7ec:	e1f0cac4 	mvns	r12, r4, asr #21
     7f0:	11a01003 	movne	r1, r3
     7f4:	11a00002 	movne	r0, r2
     7f8:	01f0cac5 	mvnseq	r12, r5, asr #21
     7fc:	11a03001 	movne	r3, r1
     800:	11a02000 	movne	r2, r0
     804:	e1904601 	orrs	r4, r0, r1, lsl #12
     808:	01925603 	orrseq	r5, r2, r3, lsl #12
     80c:	01310003 	teqeq	r1, r3
     810:	13811702 	orrne	r1, r1, #524288	; 0x80000
     814:	e8bd4030 	pop	{r4, r5, lr}
     818:	e12fff1e 	bx	lr

0000081c <__aeabi_ui2d>:
     81c:	e3300000 	teq	r0, #0
     820:	03a01000 	moveq	r1, #0
     824:	012fff1e 	bxeq	lr
     828:	e92d4030 	push	{r4, r5, lr}
     82c:	e3a04b01 	mov	r4, #1024	; 0x400
     830:	e2844032 	add	r4, r4, #50	; 0x32
     834:	e3a05000 	mov	r5, #0
     838:	e3a01000 	mov	r1, #0
     83c:	eaffff86 	b	65c <__adddf3+0x150>

00000840 <__aeabi_i2d>:
     840:	e3300000 	teq	r0, #0
     844:	03a01000 	moveq	r1, #0
     848:	012fff1e 	bxeq	lr
     84c:	e92d4030 	push	{r4, r5, lr}
     850:	e3a04b01 	mov	r4, #1024	; 0x400
     854:	e2844032 	add	r4, r4, #50	; 0x32
     858:	e2105102 	ands	r5, r0, #-2147483648	; 0x80000000
     85c:	42600000 	rsbmi	r0, r0, #0
     860:	e3a01000 	mov	r1, #0
     864:	eaffff7c 	b	65c <__adddf3+0x150>

00000868 <__aeabi_f2d>:
     868:	e1b02080 	lsls	r2, r0, #1
     86c:	e1a011c2 	asr	r1, r2, #3
     870:	e1a01061 	rrx	r1, r1
     874:	e1a00e02 	lsl	r0, r2, #28
     878:	121234ff 	andsne	r3, r2, #-16777216	; 0xff000000
     87c:	133304ff 	teqne	r3, #-16777216	; 0xff000000
     880:	1221130e 	eorne	r1, r1, #939524096	; 0x38000000
     884:	112fff1e 	bxne	lr
     888:	e3320000 	teq	r2, #0
     88c:	133304ff 	teqne	r3, #-16777216	; 0xff000000
     890:	012fff1e 	bxeq	lr
     894:	e92d4030 	push	{r4, r5, lr}
     898:	e3a04d0e 	mov	r4, #896	; 0x380
     89c:	e2015102 	and	r5, r1, #-2147483648	; 0x80000000
     8a0:	e3c11102 	bic	r1, r1, #-2147483648	; 0x80000000
     8a4:	eaffff6c 	b	65c <__adddf3+0x150>

000008a8 <__aeabi_ul2d>:
     8a8:	e1902001 	orrs	r2, r0, r1
     8ac:	012fff1e 	bxeq	lr
     8b0:	e92d4030 	push	{r4, r5, lr}
     8b4:	e3a05000 	mov	r5, #0
     8b8:	ea000006 	b	8d8 <__aeabi_l2d+0x1c>

000008bc <__aeabi_l2d>:
     8bc:	e1902001 	orrs	r2, r0, r1
     8c0:	012fff1e 	bxeq	lr
     8c4:	e92d4030 	push	{r4, r5, lr}
     8c8:	e2115102 	ands	r5, r1, #-2147483648	; 0x80000000
     8cc:	5a000001 	bpl	8d8 <__aeabi_l2d+0x1c>
     8d0:	e2700000 	rsbs	r0, r0, #0
     8d4:	e2e11000 	rsc	r1, r1, #0
     8d8:	e3a04b01 	mov	r4, #1024	; 0x400
     8dc:	e2844032 	add	r4, r4, #50	; 0x32
     8e0:	e1b0cb21 	lsrs	r12, r1, #22
     8e4:	0affff44 	beq	5fc <__adddf3+0xf0>
     8e8:	e3a02003 	mov	r2, #3
     8ec:	e1b0c1ac 	lsrs	r12, r12, #3
     8f0:	12822003 	addne	r2, r2, #3
     8f4:	e1b0c1ac 	lsrs	r12, r12, #3
     8f8:	12822003 	addne	r2, r2, #3
     8fc:	e08221ac 	add	r2, r2, r12, lsr #3
     900:	e2623020 	rsb	r3, r2, #32
     904:	e1a0c310 	lsl	r12, r0, r3
     908:	e1a00230 	lsr	r0, r0, r2
     90c:	e1800311 	orr	r0, r0, r1, lsl r3
     910:	e1a01231 	lsr	r1, r1, r2
     914:	e0844002 	add	r4, r4, r2
     918:	eaffff37 	b	5fc <__adddf3+0xf0>

0000091c <__aeabi_dmul>:
     91c:	e92d4070 	push	{r4, r5, r6, lr}
     920:	e3a0c0ff 	mov	r12, #255	; 0xff
     924:	e38ccc07 	orr	r12, r12, #1792	; 0x700
     928:	e01c4a21 	ands	r4, r12, r1, lsr #20
     92c:	101c5a23 	andsne	r5, r12, r3, lsr #20
     930:	1134000c 	teqne	r4, r12
     934:	1135000c 	teqne	r5, r12
     938:	0b000075 	bleq	b14 <__aeabi_dmul+0x1f8>
     93c:	e0844005 	add	r4, r4, r5
     940:	e0216003 	eor	r6, r1, r3
     944:	e1c11a8c 	bic	r1, r1, r12, lsl #21
     948:	e1c33a8c 	bic	r3, r3, r12, lsl #21
     94c:	e1905601 	orrs	r5, r0, r1, lsl #12
     950:	11925603 	orrsne	r5, r2, r3, lsl #12
     954:	e3811601 	orr	r1, r1, #1048576	; 0x100000
     958:	e3833601 	orr	r3, r3, #1048576	; 0x100000
     95c:	0a00001d 	beq	9d8 <__aeabi_dmul+0xbc>
     960:	e08ec290 	umull	r12, lr, r0, r2
     964:	e3a05000 	mov	r5, #0
     968:	e0a5e291 	umlal	lr, r5, r1, r2
     96c:	e2062102 	and	r2, r6, #-2147483648	; 0x80000000
     970:	e0a5e390 	umlal	lr, r5, r0, r3
     974:	e3a06000 	mov	r6, #0
     978:	e0a65391 	umlal	r5, r6, r1, r3
     97c:	e33c0000 	teq	r12, #0
     980:	138ee001 	orrne	lr, lr, #1
     984:	e24440ff 	sub	r4, r4, #255	; 0xff
     988:	e3560c02 	cmp	r6, #512	; 0x200
     98c:	e2c44c03 	sbc	r4, r4, #768	; 0x300
     990:	2a000002 	bcs	9a0 <__aeabi_dmul+0x84>
     994:	e1b0e08e 	lsls	lr, lr, #1
     998:	e0b55005 	adcs	r5, r5, r5
     99c:	e0a66006 	adc	r6, r6, r6
     9a0:	e1821586 	orr	r1, r2, r6, lsl #11
     9a4:	e1811aa5 	orr	r1, r1, r5, lsr #21
     9a8:	e1a00585 	lsl	r0, r5, #11
     9ac:	e1800aae 	orr	r0, r0, lr, lsr #21
     9b0:	e1a0e58e 	lsl	lr, lr, #11
     9b4:	e254c0fd 	subs	r12, r4, #253	; 0xfd
     9b8:	835c0c07 	cmphi	r12, #1792	; 0x700
     9bc:	8a000011 	bhi	a08 <__aeabi_dmul+0xec>
     9c0:	e35e0102 	cmp	lr, #-2147483648	; 0x80000000
     9c4:	01b0e0a0 	lsrseq	lr, r0, #1
     9c8:	e2b00000 	adcs	r0, r0, #0
     9cc:	e0a11a04 	adc	r1, r1, r4, lsl #20
     9d0:	e8bd4070 	pop	{r4, r5, r6, lr}
     9d4:	e12fff1e 	bx	lr
     9d8:	e2066102 	and	r6, r6, #-2147483648	; 0x80000000
     9dc:	e1861001 	orr	r1, r6, r1
     9e0:	e1800002 	orr	r0, r0, r2
     9e4:	e0211003 	eor	r1, r1, r3
     9e8:	e05440ac 	subs	r4, r4, r12, lsr #1
     9ec:	c074500c 	rsbsgt	r5, r4, r12
     9f0:	c1811a04 	orrgt	r1, r1, r4, lsl #20
     9f4:	c8bd4070 	popgt	{r4, r5, r6, lr}
     9f8:	c12fff1e 	bxgt	lr
     9fc:	e3811601 	orr	r1, r1, #1048576	; 0x100000
     a00:	e3a0e000 	mov	lr, #0
     a04:	e2544001 	subs	r4, r4, #1
     a08:	ca00005d 	bgt	b84 <__aeabi_dmul+0x268>
     a0c:	e3740036 	cmn	r4, #54	; 0x36
     a10:	d3a00000 	movle	r0, #0
     a14:	d2011102 	andle	r1, r1, #-2147483648	; 0x80000000
     a18:	d8bd4070 	pople	{r4, r5, r6, lr}
     a1c:	d12fff1e 	bxle	lr
     a20:	e2644000 	rsb	r4, r4, #0
     a24:	e2544020 	subs	r4, r4, #32
     a28:	aa00001a 	bge	a98 <__aeabi_dmul+0x17c>
     a2c:	e294400c 	adds	r4, r4, #12
     a30:	ca00000c 	bgt	a68 <__aeabi_dmul+0x14c>
     a34:	e2844014 	add	r4, r4, #20
     a38:	e2645020 	rsb	r5, r4, #32
     a3c:	e1a03510 	lsl	r3, r0, r5
     a40:	e1a00430 	lsr	r0, r0, r4
     a44:	e1800511 	orr	r0, r0, r1, lsl r5
     a48:	e2012102 	and	r2, r1, #-2147483648	; 0x80000000
     a4c:	e3c11102 	bic	r1, r1, #-2147483648	; 0x80000000
     a50:	e0900fa3 	adds	r0, r0, r3, lsr #31
     a54:	e0a21431 	adc	r1, r2, r1, lsr r4
     a58:	e19ee083 	orrs	lr, lr, r3, lsl #1
     a5c:	01c00fa3 	biceq	r0, r0, r3, lsr #31
     a60:	e8bd4070 	pop	{r4, r5, r6, lr}
     a64:	e12fff1e 	bx	lr
     a68:	e264400c 	rsb	r4, r4, #12
     a6c:	e2645020 	rsb	r5, r4, #32
     a70:	e1a03410 	lsl	r3, r0, r4
     a74:	e1a00530 	lsr	r0, r0, r5
     a78:	e1800411 	orr	r0, r0, r1, lsl r4
     a7c:	e2011102 	and	r1, r1, #-2147483648	; 0x80000000
     a80:	e0900fa3 	adds	r0, r0, r3, lsr #31
     a84:	e2a11000 	adc	r1, r1, #0
     a88:	e19ee083 	orrs	lr, lr, r3, lsl #1
     a8c:	01c00fa3 	biceq	r0, r0, r3, lsr #31
     a90:	e8bd4070 	pop	{r4, r5, r6, lr}
     a94:	e12fff1e 	bx	lr
     a98:	e2645020 	rsb	r5, r4, #32
     a9c:	e18ee510 	orr	lr, lr, r0, lsl r5
     aa0:	e1a03430 	lsr	r3, r0, r4
     aa4:	e1833511 	orr	r3, r3, r1, lsl r5
     aa8:	e1a00431 	lsr	r0, r1, r4
     aac:	e2011102 	and	r1, r1, #-2147483648	; 0x80000000
     ab0:	e1c00431 	bic	r0, r0, r1, lsr r4
     ab4:	e0800fa3 	add	r0, r0, r3, lsr #31
     ab8:	e19ee083 	orrs	lr, lr, r3, lsl #1
     abc:	01c00fa3 	biceq	r0, r0, r3, lsr #31
     ac0:	e8bd4070 	pop	{r4, r5, r6, lr}
     ac4:	e12fff1e 	bx	lr
     ac8:	e3340000 	teq	r4, #0
     acc:	1a000008 	bne	af4 <__aeabi_dmul+0x1d8>
     ad0:	e2016102 	and	r6, r1, #-2147483648	; 0x80000000
     ad4:	e1b00080 	lsls	r0, r0, #1
     ad8:	e0a11001 	adc	r1, r1, r1
     adc:	e3110601 	tst	r1, #1048576	; 0x100000
     ae0:	02444001 	subeq	r4, r4, #1
     ae4:	0afffffa 	beq	ad4 <__aeabi_dmul+0x1b8>
     ae8:	e1811006 	orr	r1, r1, r6
     aec:	e3350000 	teq	r5, #0
     af0:	112fff1e 	bxne	lr
     af4:	e2036102 	and	r6, r3, #-2147483648	; 0x80000000
     af8:	e1b02082 	lsls	r2, r2, #1
     afc:	e0a33003 	adc	r3, r3, r3
     b00:	e3130601 	tst	r3, #1048576	; 0x100000
     b04:	02455001 	subeq	r5, r5, #1
     b08:	0afffffa 	beq	af8 <__aeabi_dmul+0x1dc>
     b0c:	e1833006 	orr	r3, r3, r6
     b10:	e12fff1e 	bx	lr
     b14:	e134000c 	teq	r4, r12
     b18:	e00c5a23 	and	r5, r12, r3, lsr #20
     b1c:	1135000c 	teqne	r5, r12
     b20:	0a000007 	beq	b44 <__aeabi_dmul+0x228>
     b24:	e1906081 	orrs	r6, r0, r1, lsl #1
     b28:	11926083 	orrsne	r6, r2, r3, lsl #1
     b2c:	1affffe5 	bne	ac8 <__aeabi_dmul+0x1ac>
     b30:	e0211003 	eor	r1, r1, r3
     b34:	e2011102 	and	r1, r1, #-2147483648	; 0x80000000
     b38:	e3a00000 	mov	r0, #0
     b3c:	e8bd4070 	pop	{r4, r5, r6, lr}
     b40:	e12fff1e 	bx	lr
     b44:	e1906081 	orrs	r6, r0, r1, lsl #1
     b48:	01a00002 	moveq	r0, r2
     b4c:	01a01003 	moveq	r1, r3
     b50:	11926083 	orrsne	r6, r2, r3, lsl #1
     b54:	0a000010 	beq	b9c <__aeabi_dmul+0x280>
     b58:	e134000c 	teq	r4, r12
     b5c:	1a000001 	bne	b68 <__aeabi_dmul+0x24c>
     b60:	e1906601 	orrs	r6, r0, r1, lsl #12
     b64:	1a00000c 	bne	b9c <__aeabi_dmul+0x280>
     b68:	e135000c 	teq	r5, r12
     b6c:	1a000003 	bne	b80 <__aeabi_dmul+0x264>
     b70:	e1926603 	orrs	r6, r2, r3, lsl #12
     b74:	11a00002 	movne	r0, r2
     b78:	11a01003 	movne	r1, r3
     b7c:	1a000006 	bne	b9c <__aeabi_dmul+0x280>
     b80:	e0211003 	eor	r1, r1, r3
     b84:	e2011102 	and	r1, r1, #-2147483648	; 0x80000000
     b88:	e381147f 	orr	r1, r1, #2130706432	; 0x7f000000
     b8c:	e381160f 	orr	r1, r1, #15728640	; 0xf00000
     b90:	e3a00000 	mov	r0, #0
     b94:	e8bd4070 	pop	{r4, r5, r6, lr}
     b98:	e12fff1e 	bx	lr
     b9c:	e381147f 	orr	r1, r1, #2130706432	; 0x7f000000
     ba0:	e381173e 	orr	r1, r1, #16252928	; 0xf80000
     ba4:	e8bd4070 	pop	{r4, r5, r6, lr}
     ba8:	e12fff1e 	bx	lr

00000bac <__aeabi_ddiv>:
     bac:	e92d4070 	push	{r4, r5, r6, lr}
     bb0:	e3a0c0ff 	mov	r12, #255	; 0xff
     bb4:	e38ccc07 	orr	r12, r12, #1792	; 0x700
     bb8:	e01c4a21 	ands	r4, r12, r1, lsr #20
     bbc:	101c5a23 	andsne	r5, r12, r3, lsr #20
     bc0:	1134000c 	teqne	r4, r12
     bc4:	1135000c 	teqne	r5, r12
     bc8:	0b00005e 	bleq	d48 <__aeabi_ddiv+0x19c>
     bcc:	e0444005 	sub	r4, r4, r5
     bd0:	e021e003 	eor	lr, r1, r3
     bd4:	e1925603 	orrs	r5, r2, r3, lsl #12
     bd8:	e1a01601 	lsl	r1, r1, #12
     bdc:	0a00004c 	beq	d14 <__aeabi_ddiv+0x168>
     be0:	e1a03603 	lsl	r3, r3, #12
     be4:	e3a05201 	mov	r5, #268435456	; 0x10000000
     be8:	e1853223 	orr	r3, r5, r3, lsr #4
     bec:	e1833c22 	orr	r3, r3, r2, lsr #24
     bf0:	e1a02402 	lsl	r2, r2, #8
     bf4:	e1855221 	orr	r5, r5, r1, lsr #4
     bf8:	e1855c20 	orr	r5, r5, r0, lsr #24
     bfc:	e1a06400 	lsl	r6, r0, #8
     c00:	e20e1102 	and	r1, lr, #-2147483648	; 0x80000000
     c04:	e1550003 	cmp	r5, r3
     c08:	01560002 	cmpeq	r6, r2
     c0c:	e2a440fd 	adc	r4, r4, #253	; 0xfd
     c10:	e2844c03 	add	r4, r4, #768	; 0x300
     c14:	2a000001 	bcs	c20 <__aeabi_ddiv+0x74>
     c18:	e1b030a3 	lsrs	r3, r3, #1
     c1c:	e1a02062 	rrx	r2, r2
     c20:	e0566002 	subs	r6, r6, r2
     c24:	e0c55003 	sbc	r5, r5, r3
     c28:	e1b030a3 	lsrs	r3, r3, #1
     c2c:	e1a02062 	rrx	r2, r2
     c30:	e3a00601 	mov	r0, #1048576	; 0x100000
     c34:	e3a0c702 	mov	r12, #524288	; 0x80000
     c38:	e056e002 	subs	lr, r6, r2
     c3c:	e0d5e003 	sbcs	lr, r5, r3
     c40:	20466002 	subcs	r6, r6, r2
     c44:	21a0500e 	movcs	r5, lr
     c48:	2180000c 	orrcs	r0, r0, r12
     c4c:	e1b030a3 	lsrs	r3, r3, #1
     c50:	e1a02062 	rrx	r2, r2
     c54:	e056e002 	subs	lr, r6, r2
     c58:	e0d5e003 	sbcs	lr, r5, r3
     c5c:	20466002 	subcs	r6, r6, r2
     c60:	21a0500e 	movcs	r5, lr
     c64:	218000ac 	orrcs	r0, r0, r12, lsr #1
     c68:	e1b030a3 	lsrs	r3, r3, #1
     c6c:	e1a02062 	rrx	r2, r2
     c70:	e056e002 	subs	lr, r6, r2
     c74:	e0d5e003 	sbcs	lr, r5, r3
     c78:	20466002 	subcs	r6, r6, r2
     c7c:	21a0500e 	movcs	r5, lr
     c80:	2180012c 	orrcs	r0, r0, r12, lsr #2
     c84:	e1b030a3 	lsrs	r3, r3, #1
     c88:	e1a02062 	rrx	r2, r2
     c8c:	e056e002 	subs	lr, r6, r2
     c90:	e0d5e003 	sbcs	lr, r5, r3
     c94:	20466002 	subcs	r6, r6, r2
     c98:	21a0500e 	movcs	r5, lr
     c9c:	218001ac 	orrcs	r0, r0, r12, lsr #3
     ca0:	e195e006 	orrs	lr, r5, r6
     ca4:	0a00000d 	beq	ce0 <__aeabi_ddiv+0x134>
     ca8:	e1a05205 	lsl	r5, r5, #4
     cac:	e1855e26 	orr	r5, r5, r6, lsr #28
     cb0:	e1a06206 	lsl	r6, r6, #4
     cb4:	e1a03183 	lsl	r3, r3, #3
     cb8:	e1833ea2 	orr	r3, r3, r2, lsr #29
     cbc:	e1a02182 	lsl	r2, r2, #3
     cc0:	e1b0c22c 	lsrs	r12, r12, #4
     cc4:	1affffdb 	bne	c38 <__aeabi_ddiv+0x8c>
     cc8:	e3110601 	tst	r1, #1048576	; 0x100000
     ccc:	1a000006 	bne	cec <__aeabi_ddiv+0x140>
     cd0:	e1811000 	orr	r1, r1, r0
     cd4:	e3a00000 	mov	r0, #0
     cd8:	e3a0c102 	mov	r12, #-2147483648	; 0x80000000
     cdc:	eaffffd5 	b	c38 <__aeabi_ddiv+0x8c>
     ce0:	e3110601 	tst	r1, #1048576	; 0x100000
     ce4:	01811000 	orreq	r1, r1, r0
     ce8:	03a00000 	moveq	r0, #0
     cec:	e254c0fd 	subs	r12, r4, #253	; 0xfd
     cf0:	835c0c07 	cmphi	r12, #1792	; 0x700
     cf4:	8affff43 	bhi	a08 <__aeabi_dmul+0xec>
     cf8:	e055c003 	subs	r12, r5, r3
     cfc:	0056c002 	subseq	r12, r6, r2
     d00:	01b0c0a0 	lsrseq	r12, r0, #1
     d04:	e2b00000 	adcs	r0, r0, #0
     d08:	e0a11a04 	adc	r1, r1, r4, lsl #20
     d0c:	e8bd4070 	pop	{r4, r5, r6, lr}
     d10:	e12fff1e 	bx	lr
     d14:	e20ee102 	and	lr, lr, #-2147483648	; 0x80000000
     d18:	e18e1621 	orr	r1, lr, r1, lsr #12
     d1c:	e09440ac 	adds	r4, r4, r12, lsr #1
     d20:	c074500c 	rsbsgt	r5, r4, r12
     d24:	c1811a04 	orrgt	r1, r1, r4, lsl #20
     d28:	c8bd4070 	popgt	{r4, r5, r6, lr}
     d2c:	c12fff1e 	bxgt	lr
     d30:	e3811601 	orr	r1, r1, #1048576	; 0x100000
     d34:	e3a0e000 	mov	lr, #0
     d38:	e2544001 	subs	r4, r4, #1
     d3c:	eaffff31 	b	a08 <__aeabi_dmul+0xec>
     d40:	e185e006 	orr	lr, r5, r6
     d44:	eaffff2f 	b	a08 <__aeabi_dmul+0xec>
     d48:	e00c5a23 	and	r5, r12, r3, lsr #20
     d4c:	e134000c 	teq	r4, r12
     d50:	0135000c 	teqeq	r5, r12
     d54:	0affff90 	beq	b9c <__aeabi_dmul+0x280>
     d58:	e134000c 	teq	r4, r12
     d5c:	1a000006 	bne	d7c <__aeabi_ddiv+0x1d0>
     d60:	e1904601 	orrs	r4, r0, r1, lsl #12
     d64:	1affff8c 	bne	b9c <__aeabi_dmul+0x280>
     d68:	e135000c 	teq	r5, r12
     d6c:	1affff83 	bne	b80 <__aeabi_dmul+0x264>
     d70:	e1a00002 	mov	r0, r2
     d74:	e1a01003 	mov	r1, r3
     d78:	eaffff87 	b	b9c <__aeabi_dmul+0x280>
     d7c:	e135000c 	teq	r5, r12
     d80:	1a000004 	bne	d98 <__aeabi_ddiv+0x1ec>
     d84:	e1925603 	orrs	r5, r2, r3, lsl #12
     d88:	0affff68 	beq	b30 <__aeabi_dmul+0x214>
     d8c:	e1a00002 	mov	r0, r2
     d90:	e1a01003 	mov	r1, r3
     d94:	eaffff80 	b	b9c <__aeabi_dmul+0x280>
     d98:	e1906081 	orrs	r6, r0, r1, lsl #1
     d9c:	11926083 	orrsne	r6, r2, r3, lsl #1
     da0:	1affff48 	bne	ac8 <__aeabi_dmul+0x1ac>
     da4:	e1904081 	orrs	r4, r0, r1, lsl #1
     da8:	1affff74 	bne	b80 <__aeabi_dmul+0x264>
     dac:	e1925083 	orrs	r5, r2, r3, lsl #1
     db0:	1affff5e 	bne	b30 <__aeabi_dmul+0x214>
     db4:	eaffff78 	b	b9c <__aeabi_dmul+0x280>

00000db8 <__aeabi_frsub>:
     db8:	e2200102 	eor	r0, r0, #-2147483648	; 0x80000000
     dbc:	ea000000 	b	dc4 <__addsf3>

00000dc0 <__aeabi_fsub>:
     dc0:	e2211102 	eor	r1, r1, #-2147483648	; 0x80000000

00000dc4 <__addsf3>:
     dc4:	e1b02080 	lsls	r2, r0, #1
     dc8:	11b03081 	lslsne	r3, r1, #1
     dcc:	11320003 	teqne	r2, r3
     dd0:	11f0cc42 	mvnsne	r12, r2, asr #24
     dd4:	11f0cc43 	mvnsne	r12, r3, asr #24
     dd8:	0a000047 	beq	efc <__addsf3+0x138>
     ddc:	e1a02c22 	lsr	r2, r2, #24
     de0:	e0723c23 	rsbs	r3, r2, r3, lsr #24
     de4:	c0822003 	addgt	r2, r2, r3
     de8:	c0201001 	eorgt	r1, r0, r1
     dec:	c0210000 	eorgt	r0, r1, r0
     df0:	c0201001 	eorgt	r1, r0, r1
     df4:	b2633000 	rsblt	r3, r3, #0
     df8:	e3530019 	cmp	r3, #25
     dfc:	812fff1e 	bxhi	lr
     e00:	e3100102 	tst	r0, #-2147483648	; 0x80000000
     e04:	e3800502 	orr	r0, r0, #8388608	; 0x800000
     e08:	e3c004ff 	bic	r0, r0, #-16777216	; 0xff000000
     e0c:	12600000 	rsbne	r0, r0, #0
     e10:	e3110102 	tst	r1, #-2147483648	; 0x80000000
     e14:	e3811502 	orr	r1, r1, #8388608	; 0x800000
     e18:	e3c114ff 	bic	r1, r1, #-16777216	; 0xff000000
     e1c:	12611000 	rsbne	r1, r1, #0
     e20:	e1320003 	teq	r2, r3
     e24:	0a00002e 	beq	ee4 <__addsf3+0x120>
     e28:	e2422001 	sub	r2, r2, #1
     e2c:	e0900351 	adds	r0, r0, r1, asr r3
     e30:	e2633020 	rsb	r3, r3, #32
     e34:	e1a01311 	lsl	r1, r1, r3
     e38:	e2003102 	and	r3, r0, #-2147483648	; 0x80000000
     e3c:	5a000001 	bpl	e48 <__addsf3+0x84>
     e40:	e2711000 	rsbs	r1, r1, #0
     e44:	e2e00000 	rsc	r0, r0, #0
     e48:	e3500502 	cmp	r0, #8388608	; 0x800000
     e4c:	3a00000b 	bcc	e80 <__addsf3+0xbc>
     e50:	e3500401 	cmp	r0, #16777216	; 0x1000000
     e54:	3a000004 	bcc	e6c <__addsf3+0xa8>
     e58:	e1b000a0 	lsrs	r0, r0, #1
     e5c:	e1a01061 	rrx	r1, r1
     e60:	e2822001 	add	r2, r2, #1
     e64:	e35200fe 	cmp	r2, #254	; 0xfe
     e68:	2a000038 	bcs	f50 <__addsf3+0x18c>
     e6c:	e3510102 	cmp	r1, #-2147483648	; 0x80000000
     e70:	e0a00b82 	adc	r0, r0, r2, lsl #23
     e74:	03c00001 	biceq	r0, r0, #1
     e78:	e1800003 	orr	r0, r0, r3
     e7c:	e12fff1e 	bx	lr
     e80:	e1b01081 	lsls	r1, r1, #1
     e84:	e0a00000 	adc	r0, r0, r0
     e88:	e3100502 	tst	r0, #8388608	; 0x800000
     e8c:	e2422001 	sub	r2, r2, #1
     e90:	1afffff5 	bne	e6c <__addsf3+0xa8>
     e94:	e1b0c620 	lsrs	r12, r0, #12
     e98:	01a00600 	lsleq	r0, r0, #12
     e9c:	0242200c 	subeq	r2, r2, #12
     ea0:	e31008ff 	tst	r0, #16711680	; 0xff0000
     ea4:	01a00400 	lsleq	r0, r0, #8
     ea8:	02422008 	subeq	r2, r2, #8
     eac:	e310060f 	tst	r0, #15728640	; 0xf00000
     eb0:	01a00200 	lsleq	r0, r0, #4
     eb4:	02422004 	subeq	r2, r2, #4
     eb8:	e3100503 	tst	r0, #12582912	; 0xc00000
     ebc:	01a00100 	lsleq	r0, r0, #2
     ec0:	02422002 	subeq	r2, r2, #2
     ec4:	e3500502 	cmp	r0, #8388608	; 0x800000
     ec8:	31a00080 	lslcc	r0, r0, #1
     ecc:	e2d22000 	sbcs	r2, r2, #0
     ed0:	a0800b82 	addge	r0, r0, r2, lsl #23
     ed4:	b2622000 	rsblt	r2, r2, #0
     ed8:	a1800003 	orrge	r0, r0, r3
     edc:	b1830230 	orrlt	r0, r3, r0, lsr r2
     ee0:	e12fff1e 	bx	lr
     ee4:	e3320000 	teq	r2, #0
     ee8:	e2211502 	eor	r1, r1, #8388608	; 0x800000
     eec:	02200502 	eoreq	r0, r0, #8388608	; 0x800000
     ef0:	02822001 	addeq	r2, r2, #1
     ef4:	12433001 	subne	r3, r3, #1
     ef8:	eaffffca 	b	e28 <__addsf3+0x64>
     efc:	e1a03081 	lsl	r3, r1, #1
     f00:	e1f0cc42 	mvns	r12, r2, asr #24
     f04:	11f0cc43 	mvnsne	r12, r3, asr #24
     f08:	0a000013 	beq	f5c <__addsf3+0x198>
     f0c:	e1320003 	teq	r2, r3
     f10:	0a000002 	beq	f20 <__addsf3+0x15c>
     f14:	e3320000 	teq	r2, #0
     f18:	01a00001 	moveq	r0, r1
     f1c:	e12fff1e 	bx	lr
     f20:	e1300001 	teq	r0, r1
     f24:	13a00000 	movne	r0, #0
     f28:	112fff1e 	bxne	lr
     f2c:	e31204ff 	tst	r2, #-16777216	; 0xff000000
     f30:	1a000002 	bne	f40 <__addsf3+0x17c>
     f34:	e1b00080 	lsls	r0, r0, #1
     f38:	23800102 	orrcs	r0, r0, #-2147483648	; 0x80000000
     f3c:	e12fff1e 	bx	lr
     f40:	e2922402 	adds	r2, r2, #33554432	; 0x2000000
     f44:	32800502 	addcc	r0, r0, #8388608	; 0x800000
     f48:	312fff1e 	bxcc	lr
     f4c:	e2003102 	and	r3, r0, #-2147483648	; 0x80000000
     f50:	e383047f 	orr	r0, r3, #2130706432	; 0x7f000000
     f54:	e3800502 	orr	r0, r0, #8388608	; 0x800000
     f58:	e12fff1e 	bx	lr
     f5c:	e1f02c42 	mvns	r2, r2, asr #24
     f60:	11a00001 	movne	r0, r1
     f64:	01f03c43 	mvnseq	r3, r3, asr #24
     f68:	11a01000 	movne	r1, r0
     f6c:	e1b02480 	lsls	r2, r0, #9
     f70:	01b03481 	lslseq	r3, r1, #9
     f74:	01300001 	teqeq	r0, r1
     f78:	13800501 	orrne	r0, r0, #4194304	; 0x400000
     f7c:	e12fff1e 	bx	lr

00000f80 <__aeabi_ui2f>:
     f80:	e3a03000 	mov	r3, #0
     f84:	ea000001 	b	f90 <__aeabi_i2f+0x8>

00000f88 <__aeabi_i2f>:
     f88:	e2103102 	ands	r3, r0, #-2147483648	; 0x80000000
     f8c:	42600000 	rsbmi	r0, r0, #0
     f90:	e1b0c000 	movs	r12, r0
     f94:	012fff1e 	bxeq	lr
     f98:	e383344b 	orr	r3, r3, #1258291200	; 0x4b000000
     f9c:	e1a01000 	mov	r1, r0
     fa0:	e3a00000 	mov	r0, #0
     fa4:	ea00000f 	b	fe8 <__aeabi_l2f+0x30>

00000fa8 <__aeabi_ul2f>:
     fa8:	e1902001 	orrs	r2, r0, r1
     fac:	012fff1e 	bxeq	lr
     fb0:	e3a03000 	mov	r3, #0
     fb4:	ea000005 	b	fd0 <__aeabi_l2f+0x18>

00000fb8 <__aeabi_l2f>:
     fb8:	e1902001 	orrs	r2, r0, r1
     fbc:	012fff1e 	bxeq	lr
     fc0:	e2113102 	ands	r3, r1, #-2147483648	; 0x80000000
     fc4:	5a000001 	bpl	fd0 <__aeabi_l2f+0x18>
     fc8:	e2700000 	rsbs	r0, r0, #0
     fcc:	e2e11000 	rsc	r1, r1, #0
     fd0:	e1b0c001 	movs	r12, r1
     fd4:	01a0c000 	moveq	r12, r0
     fd8:	01a01000 	moveq	r1, r0
     fdc:	03a00000 	moveq	r0, #0
     fe0:	e383345b 	orr	r3, r3, #1526726656	; 0x5b000000
     fe4:	02433201 	subeq	r3, r3, #268435456	; 0x10000000
     fe8:	e2433502 	sub	r3, r3, #8388608	; 0x800000
     fec:	e3a02017 	mov	r2, #23
     ff0:	e35c0801 	cmp	r12, #65536	; 0x10000
     ff4:	21a0c82c 	lsrcs	r12, r12, #16
     ff8:	22422010 	subcs	r2, r2, #16
     ffc:	e35c0c01 	cmp	r12, #256	; 0x100
    1000:	21a0c42c 	lsrcs	r12, r12, #8
    1004:	22422008 	subcs	r2, r2, #8
    1008:	e35c0010 	cmp	r12, #16
    100c:	21a0c22c 	lsrcs	r12, r12, #4
    1010:	22422004 	subcs	r2, r2, #4
    1014:	e35c0004 	cmp	r12, #4
    1018:	22422002 	subcs	r2, r2, #2
    101c:	304220ac 	subcc	r2, r2, r12, lsr #1
    1020:	e05221ac 	subs	r2, r2, r12, lsr #3
    1024:	e0433b82 	sub	r3, r3, r2, lsl #23
    1028:	ba000006 	blt	1048 <__aeabi_l2f+0x90>
    102c:	e0833211 	add	r3, r3, r1, lsl r2
    1030:	e1a0c210 	lsl	r12, r0, r2
    1034:	e2622020 	rsb	r2, r2, #32
    1038:	e35c0102 	cmp	r12, #-2147483648	; 0x80000000
    103c:	e0a30230 	adc	r0, r3, r0, lsr r2
    1040:	03c00001 	biceq	r0, r0, #1
    1044:	e12fff1e 	bx	lr
    1048:	e2822020 	add	r2, r2, #32
    104c:	e1a0c211 	lsl	r12, r1, r2
    1050:	e2622020 	rsb	r2, r2, #32
    1054:	e190008c 	orrs	r0, r0, r12, lsl #1
    1058:	e0a30231 	adc	r0, r3, r1, lsr r2
    105c:	01c00fac 	biceq	r0, r0, r12, lsr #31
    1060:	e12fff1e 	bx	lr

00001064 <atexit>:
    1064:	e1a01000 	mov	r1, r0
    1068:	e3a00000 	mov	r0, #0
    106c:	e92d4008 	push	{r3, lr}
    1070:	e1a02000 	mov	r2, r0
    1074:	e1a03000 	mov	r3, r0
    1078:	eb000ed4 	bl	4bd0 <__register_exitproc>
    107c:	e8bd4008 	pop	{r3, lr}
    1080:	e12fff1e 	bx	lr

00001084 <exit>:
    1084:	e92d4008 	push	{r3, lr}
    1088:	e3a01000 	mov	r1, #0
    108c:	e1a04000 	mov	r4, r0
    1090:	eb000f0b 	bl	4cc4 <__call_exitprocs>
    1094:	e59f3018 	ldr	r3, [pc, #24]	; 10b4 <exit+0x30>
    1098:	e5930000 	ldr	r0, [r3]
    109c:	e590303c 	ldr	r3, [r0, #60]	; 0x3c
    10a0:	e3530000 	cmp	r3, #0
    10a4:	11a0e00f 	movne	lr, pc
    10a8:	112fff13 	bxne	r3
    10ac:	e1a00004 	mov	r0, r4
    10b0:	eb0047fa 	bl	130a0 <_exit>
    10b4:	00013804 	.word	0x00013804

000010b8 <_printf_r>:
    10b8:	e92d000e 	push	{r1, r2, r3}
    10bc:	e52de004 	push	{lr}		; (str lr, [sp, #-4]!)
    10c0:	e24dd008 	sub	sp, sp, #8
    10c4:	e28dc010 	add	r12, sp, #16
    10c8:	e5901008 	ldr	r1, [r0, #8]
    10cc:	e59d200c 	ldr	r2, [sp, #12]
    10d0:	e1a0300c 	mov	r3, r12
    10d4:	e58dc004 	str	r12, [sp, #4]
    10d8:	eb000076 	bl	12b8 <_vfprintf_r>
    10dc:	e28dd008 	add	sp, sp, #8
    10e0:	e49de004 	pop	{lr}		; (ldr lr, [sp], #4)
    10e4:	e28dd00c 	add	sp, sp, #12
    10e8:	e12fff1e 	bx	lr

000010ec <printf>:
    10ec:	e92d000f 	push	{r0, r1, r2, r3}
    10f0:	e52de004 	push	{lr}		; (str lr, [sp, #-4]!)
    10f4:	e59f302c 	ldr	r3, [pc, #44]	; 1128 <printf+0x3c>
    10f8:	e24dd00c 	sub	sp, sp, #12
    10fc:	e5930000 	ldr	r0, [r3]
    1100:	e28dc014 	add	r12, sp, #20
    1104:	e5901008 	ldr	r1, [r0, #8]
    1108:	e59d2010 	ldr	r2, [sp, #16]
    110c:	e1a0300c 	mov	r3, r12
    1110:	e58dc004 	str	r12, [sp, #4]
    1114:	eb000067 	bl	12b8 <_vfprintf_r>
    1118:	e28dd00c 	add	sp, sp, #12
    111c:	e49de004 	pop	{lr}		; (ldr lr, [sp], #4)
    1120:	e28dd010 	add	sp, sp, #16
    1124:	e12fff1e 	bx	lr
    1128:	00013c00 	.word	0x00013c00

0000112c <_puts_r>:
    112c:	e92d4030 	push	{r4, r5, lr}
    1130:	e1a05000 	mov	r5, r0
    1134:	e24dd024 	sub	sp, sp, #36	; 0x24
    1138:	e1a00001 	mov	r0, r1
    113c:	e1a04001 	mov	r4, r1
    1140:	eb000044 	bl	1258 <strlen>
    1144:	e59f307c 	ldr	r3, [pc, #124]	; 11c8 <_puts_r+0x9c>
    1148:	e5933000 	ldr	r3, [r3]
    114c:	e1a02000 	mov	r2, r0
    1150:	e5933008 	ldr	r3, [r3, #8]
    1154:	e58d2014 	str	r2, [sp, #20]
    1158:	e59f206c 	ldr	r2, [pc, #108]	; 11cc <_puts_r+0xa0>
    115c:	e1d310bc 	ldrh	r1, [r3, #12]
    1160:	e58d2018 	str	r2, [sp, #24]
    1164:	e3a02001 	mov	r2, #1
    1168:	e58d201c 	str	r2, [sp, #28]
    116c:	e28d2010 	add	r2, sp, #16
    1170:	e3110a02 	tst	r1, #8192	; 0x2000
    1174:	e58d2004 	str	r2, [sp, #4]
    1178:	e3a02002 	mov	r2, #2
    117c:	e58d2008 	str	r2, [sp, #8]
    1180:	05932064 	ldreq	r2, [r3, #100]	; 0x64
    1184:	03811a02 	orreq	r1, r1, #8192	; 0x2000
    1188:	03c22a02 	biceq	r2, r2, #8192	; 0x2000
    118c:	e2800001 	add	r0, r0, #1
    1190:	01c310bc 	strheq	r1, [r3, #12]
    1194:	05832064 	streq	r2, [r3, #100]	; 0x64
    1198:	e58d000c 	str	r0, [sp, #12]
    119c:	e5951008 	ldr	r1, [r5, #8]
    11a0:	e1a00005 	mov	r0, r5
    11a4:	e28d2004 	add	r2, sp, #4
    11a8:	e58d4010 	str	r4, [sp, #16]
    11ac:	eb00181d 	bl	7228 <__sfvwrite_r>
    11b0:	e3500000 	cmp	r0, #0
    11b4:	03a0000a 	moveq	r0, #10
    11b8:	13e00000 	mvnne	r0, #0
    11bc:	e28dd024 	add	sp, sp, #36	; 0x24
    11c0:	e8bd4030 	pop	{r4, r5, lr}
    11c4:	e12fff1e 	bx	lr
    11c8:	00013c00 	.word	0x00013c00
    11cc:	000137d8 	.word	0x000137d8

000011d0 <puts>:
    11d0:	e59f3008 	ldr	r3, [pc, #8]	; 11e0 <puts+0x10>
    11d4:	e1a01000 	mov	r1, r0
    11d8:	e5930000 	ldr	r0, [r3]
    11dc:	eaffffd2 	b	112c <_puts_r>
    11e0:	00013c00 	.word	0x00013c00

000011e4 <scanf>:
    11e4:	e92d000f 	push	{r0, r1, r2, r3}
    11e8:	e52de004 	push	{lr}		; (str lr, [sp, #-4]!)
    11ec:	e59f302c 	ldr	r3, [pc, #44]	; 1220 <scanf+0x3c>
    11f0:	e24dd00c 	sub	sp, sp, #12
    11f4:	e5930000 	ldr	r0, [r3]
    11f8:	e28dc014 	add	r12, sp, #20
    11fc:	e5901004 	ldr	r1, [r0, #4]
    1200:	e59d2010 	ldr	r2, [sp, #16]
    1204:	e1a0300c 	mov	r3, r12
    1208:	e58dc004 	str	r12, [sp, #4]
    120c:	eb000889 	bl	3438 <__svfscanf_r>
    1210:	e28dd00c 	add	sp, sp, #12
    1214:	e49de004 	pop	{lr}		; (ldr lr, [sp], #4)
    1218:	e28dd010 	add	sp, sp, #16
    121c:	e12fff1e 	bx	lr
    1220:	00013c00 	.word	0x00013c00

00001224 <_scanf_r>:
    1224:	e92d000e 	push	{r1, r2, r3}
    1228:	e52de004 	push	{lr}		; (str lr, [sp, #-4]!)
    122c:	e24dd008 	sub	sp, sp, #8
    1230:	e28dc010 	add	r12, sp, #16
    1234:	e5901004 	ldr	r1, [r0, #4]
    1238:	e59d200c 	ldr	r2, [sp, #12]
    123c:	e1a0300c 	mov	r3, r12
    1240:	e58dc004 	str	r12, [sp, #4]
    1244:	eb00087b 	bl	3438 <__svfscanf_r>
    1248:	e28dd008 	add	sp, sp, #8
    124c:	e49de004 	pop	{lr}		; (ldr lr, [sp], #4)
    1250:	e28dd00c 	add	sp, sp, #12
    1254:	e12fff1e 	bx	lr

00001258 <strlen>:
    1258:	e3c01003 	bic	r1, r0, #3
    125c:	e2100003 	ands	r0, r0, #3
    1260:	e2600000 	rsb	r0, r0, #0
    1264:	e4913004 	ldr	r3, [r1], #4
    1268:	e280c004 	add	r12, r0, #4
    126c:	e1a0c18c 	lsl	r12, r12, #3
    1270:	e3e02000 	mvn	r2, #0
    1274:	11833c32 	orrne	r3, r3, r2, lsr r12
    1278:	e3a0c001 	mov	r12, #1
    127c:	e18cc40c 	orr	r12, r12, r12, lsl #8
    1280:	e18cc80c 	orr	r12, r12, r12, lsl #16
    1284:	e043200c 	sub	r2, r3, r12
    1288:	e1c22003 	bic	r2, r2, r3
    128c:	e012238c 	ands	r2, r2, r12, lsl #7
    1290:	04913004 	ldreq	r3, [r1], #4
    1294:	02800004 	addeq	r0, r0, #4
    1298:	0afffff9 	beq	1284 <strlen+0x2c>
    129c:	e31300ff 	tst	r3, #255	; 0xff
    12a0:	12800001 	addne	r0, r0, #1
    12a4:	13130cff 	tstne	r3, #65280	; 0xff00
    12a8:	12800001 	addne	r0, r0, #1
    12ac:	131308ff 	tstne	r3, #16711680	; 0xff0000
    12b0:	12800001 	addne	r0, r0, #1
    12b4:	e12fff1e 	bx	lr

000012b8 <_vfprintf_r>:
    12b8:	e92d4ff0 	push	{r4, r5, r6, r7, r8, r9, r10, r11, lr}
    12bc:	e24ddd15 	sub	sp, sp, #1344	; 0x540
    12c0:	e24dd004 	sub	sp, sp, #4
    12c4:	e1a09001 	mov	r9, r1
    12c8:	e1a04002 	mov	r4, r2
    12cc:	e58d303c 	str	r3, [sp, #60]	; 0x3c
    12d0:	e58d002c 	str	r0, [sp, #44]	; 0x2c
    12d4:	eb001979 	bl	78c0 <_localeconv_r>
    12d8:	e5900000 	ldr	r0, [r0]
    12dc:	e58d0058 	str	r0, [sp, #88]	; 0x58
    12e0:	ebffffdc 	bl	1258 <strlen>
    12e4:	e59d602c 	ldr	r6, [sp, #44]	; 0x2c
    12e8:	e3a0b000 	mov	r11, #0
    12ec:	e3a0c000 	mov	r12, #0
    12f0:	e3560000 	cmp	r6, #0
    12f4:	e58d0064 	str	r0, [sp, #100]	; 0x64
    12f8:	e58db068 	str	r11, [sp, #104]	; 0x68
    12fc:	e58dc06c 	str	r12, [sp, #108]	; 0x6c
    1300:	0a000002 	beq	1310 <_vfprintf_r+0x58>
    1304:	e5963038 	ldr	r3, [r6, #56]	; 0x38
    1308:	e3530000 	cmp	r3, #0
    130c:	0a000101 	beq	1718 <_vfprintf_r+0x460>
    1310:	e1d980bc 	ldrh	r8, [r9, #12]
    1314:	e3180a02 	tst	r8, #8192	; 0x2000
    1318:	05993064 	ldreq	r3, [r9, #100]	; 0x64
    131c:	03888a02 	orreq	r8, r8, #8192	; 0x2000
    1320:	03c33a02 	biceq	r3, r3, #8192	; 0x2000
    1324:	01c980bc 	strheq	r8, [r9, #12]
    1328:	05893064 	streq	r3, [r9, #100]	; 0x64
    132c:	e3180008 	tst	r8, #8
    1330:	0a0000aa 	beq	15e0 <_vfprintf_r+0x328>
    1334:	e5993010 	ldr	r3, [r9, #16]
    1338:	e3530000 	cmp	r3, #0
    133c:	0a0000a7 	beq	15e0 <_vfprintf_r+0x328>
    1340:	e208301a 	and	r3, r8, #26
    1344:	e353000a 	cmp	r3, #10
    1348:	0a0000c4 	beq	1660 <_vfprintf_r+0x3a8>
    134c:	e28d60d8 	add	r6, sp, #216	; 0xd8
    1350:	e28d70d7 	add	r7, sp, #215	; 0xd7
    1354:	e3a03000 	mov	r3, #0
    1358:	e28dbd05 	add	r11, sp, #320	; 0x140
    135c:	e58d4028 	str	r4, [sp, #40]	; 0x28
    1360:	e0674006 	rsb	r4, r7, r6
    1364:	e58d3044 	str	r3, [sp, #68]	; 0x44
    1368:	e58d6054 	str	r6, [sp, #84]	; 0x54
    136c:	e58d705c 	str	r7, [sp, #92]	; 0x5c
    1370:	e58db0a4 	str	r11, [sp, #164]	; 0xa4
    1374:	e58d30ac 	str	r3, [sp, #172]	; 0xac
    1378:	e58d30a8 	str	r3, [sp, #168]	; 0xa8
    137c:	e58d3074 	str	r3, [sp, #116]	; 0x74
    1380:	e58d3070 	str	r3, [sp, #112]	; 0x70
    1384:	e58d3034 	str	r3, [sp, #52]	; 0x34
    1388:	e58d407c 	str	r4, [sp, #124]	; 0x7c
    138c:	e58d901c 	str	r9, [sp, #28]
    1390:	e1a0c00b 	mov	r12, r11
    1394:	e1a0500b 	mov	r5, r11
    1398:	e59d6028 	ldr	r6, [sp, #40]	; 0x28
    139c:	e5d63000 	ldrb	r3, [r6]
    13a0:	e3530025 	cmp	r3, #37	; 0x25
    13a4:	13530000 	cmpne	r3, #0
    13a8:	0a0000dd 	beq	1724 <_vfprintf_r+0x46c>
    13ac:	e2863001 	add	r3, r6, #1
    13b0:	e1a07003 	mov	r7, r3
    13b4:	e5d33000 	ldrb	r3, [r3]
    13b8:	e3530025 	cmp	r3, #37	; 0x25
    13bc:	13530000 	cmpne	r3, #0
    13c0:	e2873001 	add	r3, r7, #1
    13c4:	1afffff9 	bne	13b0 <_vfprintf_r+0xf8>
    13c8:	e59dc028 	ldr	r12, [sp, #40]	; 0x28
    13cc:	e057800c 	subs	r8, r7, r12
    13d0:	0a00000d 	beq	140c <_vfprintf_r+0x154>
    13d4:	e28d40a8 	add	r4, sp, #168	; 0xa8
    13d8:	e8940050 	ldm	r4, {r4, r6}
    13dc:	e2844001 	add	r4, r4, #1
    13e0:	e0866008 	add	r6, r6, r8
    13e4:	e3540007 	cmp	r4, #7
    13e8:	e585c000 	str	r12, [r5]
    13ec:	e5858004 	str	r8, [r5, #4]
    13f0:	e58d60ac 	str	r6, [sp, #172]	; 0xac
    13f4:	e58d40a8 	str	r4, [sp, #168]	; 0xa8
    13f8:	d2855008 	addle	r5, r5, #8
    13fc:	ca000084 	bgt	1614 <_vfprintf_r+0x35c>
    1400:	e59d4034 	ldr	r4, [sp, #52]	; 0x34
    1404:	e0844008 	add	r4, r4, r8
    1408:	e58d4034 	str	r4, [sp, #52]	; 0x34
    140c:	e5d73000 	ldrb	r3, [r7]
    1410:	e3530000 	cmp	r3, #0
    1414:	0a000699 	beq	2e80 <_vfprintf_r+0x1bc8>
    1418:	e2876001 	add	r6, r7, #1
    141c:	e3a03000 	mov	r3, #0
    1420:	e58d6028 	str	r6, [sp, #40]	; 0x28
    1424:	e5d78001 	ldrb	r8, [r7, #1]
    1428:	e58d3030 	str	r3, [sp, #48]	; 0x30
    142c:	e5cd3083 	strb	r3, [sp, #131]	; 0x83
    1430:	e58d3018 	str	r3, [sp, #24]
    1434:	e3e04000 	mvn	r4, #0
    1438:	e3a01020 	mov	r1, #32
    143c:	e3a0202b 	mov	r2, #43	; 0x2b
    1440:	e1a03006 	mov	r3, r6
    1444:	e2833001 	add	r3, r3, #1
    1448:	e2480020 	sub	r0, r8, #32
    144c:	e3500058 	cmp	r0, #88	; 0x58
    1450:	979ff100 	ldrls	pc, [pc, r0, lsl #2]
    1454:	ea000224 	b	1cec <_vfprintf_r+0xa34>
    1458:	00001d28 	.word	0x00001d28
    145c:	00001cec 	.word	0x00001cec
    1460:	00001cec 	.word	0x00001cec
    1464:	00001d40 	.word	0x00001d40
    1468:	00001cec 	.word	0x00001cec
    146c:	00001cec 	.word	0x00001cec
    1470:	00001cec 	.word	0x00001cec
    1474:	00001cec 	.word	0x00001cec
    1478:	00001cec 	.word	0x00001cec
    147c:	00001cec 	.word	0x00001cec
    1480:	00001d54 	.word	0x00001d54
    1484:	0000172c 	.word	0x0000172c
    1488:	00001cec 	.word	0x00001cec
    148c:	000015cc 	.word	0x000015cc
    1490:	00001738 	.word	0x00001738
    1494:	00001cec 	.word	0x00001cec
    1498:	00001784 	.word	0x00001784
    149c:	00001798 	.word	0x00001798
    14a0:	00001798 	.word	0x00001798
    14a4:	00001798 	.word	0x00001798
    14a8:	00001798 	.word	0x00001798
    14ac:	00001798 	.word	0x00001798
    14b0:	00001798 	.word	0x00001798
    14b4:	00001798 	.word	0x00001798
    14b8:	00001798 	.word	0x00001798
    14bc:	00001798 	.word	0x00001798
    14c0:	00001cec 	.word	0x00001cec
    14c4:	00001cec 	.word	0x00001cec
    14c8:	00001cec 	.word	0x00001cec
    14cc:	00001cec 	.word	0x00001cec
    14d0:	00001cec 	.word	0x00001cec
    14d4:	00001cec 	.word	0x00001cec
    14d8:	00001cec 	.word	0x00001cec
    14dc:	00001cec 	.word	0x00001cec
    14e0:	00001cec 	.word	0x00001cec
    14e4:	00001cec 	.word	0x00001cec
    14e8:	000017c8 	.word	0x000017c8
    14ec:	00001a04 	.word	0x00001a04
    14f0:	00001cec 	.word	0x00001cec
    14f4:	00001a04 	.word	0x00001a04
    14f8:	00001cec 	.word	0x00001cec
    14fc:	00001cec 	.word	0x00001cec
    1500:	00001cec 	.word	0x00001cec
    1504:	00001cec 	.word	0x00001cec
    1508:	00001ab4 	.word	0x00001ab4
    150c:	00001cec 	.word	0x00001cec
    1510:	00001cec 	.word	0x00001cec
    1514:	00001ac8 	.word	0x00001ac8
    1518:	00001cec 	.word	0x00001cec
    151c:	00001cec 	.word	0x00001cec
    1520:	00001cec 	.word	0x00001cec
    1524:	00001cec 	.word	0x00001cec
    1528:	00001cec 	.word	0x00001cec
    152c:	00001b18 	.word	0x00001b18
    1530:	00001cec 	.word	0x00001cec
    1534:	00001cec 	.word	0x00001cec
    1538:	00001b60 	.word	0x00001b60
    153c:	00001cec 	.word	0x00001cec
    1540:	00001cec 	.word	0x00001cec
    1544:	00001cec 	.word	0x00001cec
    1548:	00001cec 	.word	0x00001cec
    154c:	00001cec 	.word	0x00001cec
    1550:	00001cec 	.word	0x00001cec
    1554:	00001cec 	.word	0x00001cec
    1558:	00001cec 	.word	0x00001cec
    155c:	00001cec 	.word	0x00001cec
    1560:	00001cec 	.word	0x00001cec
    1564:	00001e5c 	.word	0x00001e5c
    1568:	00001e04 	.word	0x00001e04
    156c:	00001a04 	.word	0x00001a04
    1570:	00001a04 	.word	0x00001a04
    1574:	00001a04 	.word	0x00001a04
    1578:	00001e48 	.word	0x00001e48
    157c:	00001e04 	.word	0x00001e04
    1580:	00001cec 	.word	0x00001cec
    1584:	00001cec 	.word	0x00001cec
    1588:	00001c44 	.word	0x00001c44
    158c:	00001cec 	.word	0x00001cec
    1590:	00001c74 	.word	0x00001c74
    1594:	00001ca8 	.word	0x00001ca8
    1598:	00001e98 	.word	0x00001e98
    159c:	00001bb0 	.word	0x00001bb0
    15a0:	00001cec 	.word	0x00001cec
    15a4:	00001bc4 	.word	0x00001bc4
    15a8:	00001cec 	.word	0x00001cec
    15ac:	00001d7c 	.word	0x00001d7c
    15b0:	00001cec 	.word	0x00001cec
    15b4:	00001cec 	.word	0x00001cec
    15b8:	00001dc4 	.word	0x00001dc4
    15bc:	e59d6030 	ldr	r6, [sp, #48]	; 0x30
    15c0:	e2666000 	rsb	r6, r6, #0
    15c4:	e58d6030 	str	r6, [sp, #48]	; 0x30
    15c8:	e58d003c 	str	r0, [sp, #60]	; 0x3c
    15cc:	e59d7018 	ldr	r7, [sp, #24]
    15d0:	e3877004 	orr	r7, r7, #4
    15d4:	e58d7018 	str	r7, [sp, #24]
    15d8:	e5d38000 	ldrb	r8, [r3]
    15dc:	eaffff98 	b	1444 <_vfprintf_r+0x18c>
    15e0:	e59d002c 	ldr	r0, [sp, #44]	; 0x2c
    15e4:	e1a01009 	mov	r1, r9
    15e8:	eb000d2a 	bl	4a98 <__swsetup_r>
    15ec:	e3500000 	cmp	r0, #0
    15f0:	01d980bc 	ldrheq	r8, [r9, #12]
    15f4:	0affff51 	beq	1340 <_vfprintf_r+0x88>
    15f8:	e3e0c000 	mvn	r12, #0
    15fc:	e58dc034 	str	r12, [sp, #52]	; 0x34
    1600:	e59d0034 	ldr	r0, [sp, #52]	; 0x34
    1604:	e28ddf51 	add	sp, sp, #324	; 0x144
    1608:	e28ddb01 	add	sp, sp, #1024	; 0x400
    160c:	e8bd4ff0 	pop	{r4, r5, r6, r7, r8, r9, r10, r11, lr}
    1610:	e12fff1e 	bx	lr
    1614:	e59d002c 	ldr	r0, [sp, #44]	; 0x2c
    1618:	e59d101c 	ldr	r1, [sp, #28]
    161c:	e28d20a4 	add	r2, sp, #164	; 0xa4
    1620:	eb00339f 	bl	e4a4 <__sprint_r>
    1624:	e3500000 	cmp	r0, #0
    1628:	1a000007 	bne	164c <_vfprintf_r+0x394>
    162c:	e28d5d05 	add	r5, sp, #320	; 0x140
    1630:	eaffff72 	b	1400 <_vfprintf_r+0x148>
    1634:	e59d002c 	ldr	r0, [sp, #44]	; 0x2c
    1638:	e59d101c 	ldr	r1, [sp, #28]
    163c:	e28d20a4 	add	r2, sp, #164	; 0xa4
    1640:	eb003397 	bl	e4a4 <__sprint_r>
    1644:	e3500000 	cmp	r0, #0
    1648:	0a0002d2 	beq	2198 <_vfprintf_r+0xee0>
    164c:	e59d901c 	ldr	r9, [sp, #28]
    1650:	e1d930bc 	ldrh	r3, [r9, #12]
    1654:	e3130040 	tst	r3, #64	; 0x40
    1658:	1affffe6 	bne	15f8 <_vfprintf_r+0x340>
    165c:	eaffffe7 	b	1600 <_vfprintf_r+0x348>
    1660:	e1d9c0be 	ldrh	r12, [r9, #14]
    1664:	e31c0902 	tst	r12, #32768	; 0x8000
    1668:	1affff37 	bne	134c <_vfprintf_r+0x94>
    166c:	e1a02004 	mov	r2, r4
    1670:	e59f4fb0 	ldr	r4, [pc, #4016]	; 2628 <_vfprintf_r+0x1370>
    1674:	e28dbd15 	add	r11, sp, #1344	; 0x540
    1678:	e3c88002 	bic	r8, r8, #2
    167c:	e18b80b4 	strh	r8, [r11, r4]
    1680:	e5997064 	ldr	r7, [r9, #100]	; 0x64
    1684:	e599601c 	ldr	r6, [r9, #28]
    1688:	e599a024 	ldr	r10, [r9, #36]	; 0x24
    168c:	e2844002 	add	r4, r4, #2
    1690:	e3a0eb01 	mov	lr, #1024	; 0x400
    1694:	e28d5d05 	add	r5, sp, #320	; 0x140
    1698:	e18bc0b4 	strh	r12, [r11, r4]
    169c:	e59d002c 	ldr	r0, [sp, #44]	; 0x2c
    16a0:	e3a0c000 	mov	r12, #0
    16a4:	e28d10d8 	add	r1, sp, #216	; 0xd8
    16a8:	e59d303c 	ldr	r3, [sp, #60]	; 0x3c
    16ac:	e58d713c 	str	r7, [sp, #316]	; 0x13c
    16b0:	e58d60f4 	str	r6, [sp, #244]	; 0xf4
    16b4:	e58da0fc 	str	r10, [sp, #252]	; 0xfc
    16b8:	e58d50d8 	str	r5, [sp, #216]	; 0xd8
    16bc:	e58d50e8 	str	r5, [sp, #232]	; 0xe8
    16c0:	e58de0e0 	str	lr, [sp, #224]	; 0xe0
    16c4:	e58de0ec 	str	lr, [sp, #236]	; 0xec
    16c8:	e58dc0f0 	str	r12, [sp, #240]	; 0xf0
    16cc:	ebfffef9 	bl	12b8 <_vfprintf_r>
    16d0:	e3500000 	cmp	r0, #0
    16d4:	e58d0034 	str	r0, [sp, #52]	; 0x34
    16d8:	ba000006 	blt	16f8 <_vfprintf_r+0x440>
    16dc:	e59d002c 	ldr	r0, [sp, #44]	; 0x2c
    16e0:	e28d10d8 	add	r1, sp, #216	; 0xd8
    16e4:	eb001409 	bl	6710 <_fflush_r>
    16e8:	e59dc034 	ldr	r12, [sp, #52]	; 0x34
    16ec:	e3500000 	cmp	r0, #0
    16f0:	13e0c000 	mvnne	r12, #0
    16f4:	e58dc034 	str	r12, [sp, #52]	; 0x34
    16f8:	e59f3f28 	ldr	r3, [pc, #3880]	; 2628 <_vfprintf_r+0x1370>
    16fc:	e28d0d15 	add	r0, sp, #1344	; 0x540
    1700:	e19030b3 	ldrh	r3, [r0, r3]
    1704:	e3130040 	tst	r3, #64	; 0x40
    1708:	11d930bc 	ldrhne	r3, [r9, #12]
    170c:	13833040 	orrne	r3, r3, #64	; 0x40
    1710:	11c930bc 	strhne	r3, [r9, #12]
    1714:	eaffffb9 	b	1600 <_vfprintf_r+0x348>
    1718:	e1a00006 	mov	r0, r6
    171c:	eb0014d5 	bl	6a78 <__sinit>
    1720:	eafffefa 	b	1310 <_vfprintf_r+0x58>
    1724:	e59d7028 	ldr	r7, [sp, #40]	; 0x28
    1728:	eaffff37 	b	140c <_vfprintf_r+0x154>
    172c:	e5cd2083 	strb	r2, [sp, #131]	; 0x83
    1730:	e5d38000 	ldrb	r8, [r3]
    1734:	eaffff42 	b	1444 <_vfprintf_r+0x18c>
    1738:	e1a0c003 	mov	r12, r3
    173c:	e4dc8001 	ldrb	r8, [r12], #1
    1740:	e358002a 	cmp	r8, #42	; 0x2a
    1744:	0a000717 	beq	33a8 <_vfprintf_r+0x20f0>
    1748:	e2480030 	sub	r0, r8, #48	; 0x30
    174c:	e3500009 	cmp	r0, #9
    1750:	81a0300c 	movhi	r3, r12
    1754:	83a04000 	movhi	r4, #0
    1758:	8affff3a 	bhi	1448 <_vfprintf_r+0x190>
    175c:	e3a04000 	mov	r4, #0
    1760:	e4dc8001 	ldrb	r8, [r12], #1
    1764:	e0844104 	add	r4, r4, r4, lsl #2
    1768:	e0804084 	add	r4, r0, r4, lsl #1
    176c:	e2480030 	sub	r0, r8, #48	; 0x30
    1770:	e3500009 	cmp	r0, #9
    1774:	e1a0300c 	mov	r3, r12
    1778:	9afffff8 	bls	1760 <_vfprintf_r+0x4a8>
    177c:	e1844fc4 	orr	r4, r4, r4, asr #31
    1780:	eaffff30 	b	1448 <_vfprintf_r+0x190>
    1784:	e59dc018 	ldr	r12, [sp, #24]
    1788:	e38cc080 	orr	r12, r12, #128	; 0x80
    178c:	e58dc018 	str	r12, [sp, #24]
    1790:	e5d38000 	ldrb	r8, [r3]
    1794:	eaffff2a 	b	1444 <_vfprintf_r+0x18c>
    1798:	e1a0c003 	mov	r12, r3
    179c:	e3a00000 	mov	r0, #0
    17a0:	e2483030 	sub	r3, r8, #48	; 0x30
    17a4:	e4dc8001 	ldrb	r8, [r12], #1
    17a8:	e2486030 	sub	r6, r8, #48	; 0x30
    17ac:	e0800100 	add	r0, r0, r0, lsl #2
    17b0:	e3560009 	cmp	r6, #9
    17b4:	e0830080 	add	r0, r3, r0, lsl #1
    17b8:	e1a0300c 	mov	r3, r12
    17bc:	9afffff7 	bls	17a0 <_vfprintf_r+0x4e8>
    17c0:	e58d0030 	str	r0, [sp, #48]	; 0x30
    17c4:	eaffff1f 	b	1448 <_vfprintf_r+0x190>
    17c8:	e59d6018 	ldr	r6, [sp, #24]
    17cc:	e3866010 	orr	r6, r6, #16
    17d0:	e58d6018 	str	r6, [sp, #24]
    17d4:	e59d7018 	ldr	r7, [sp, #24]
    17d8:	e3170020 	tst	r7, #32
    17dc:	e58d3028 	str	r3, [sp, #40]	; 0x28
    17e0:	0a00018b 	beq	1e14 <_vfprintf_r+0xb5c>
    17e4:	e59db03c 	ldr	r11, [sp, #60]	; 0x3c
    17e8:	e28b1007 	add	r1, r11, #7
    17ec:	e3c11007 	bic	r1, r1, #7
    17f0:	e891000c 	ldm	r1, {r2, r3}
    17f4:	e2811008 	add	r1, r1, #8
    17f8:	e58d103c 	str	r1, [sp, #60]	; 0x3c
    17fc:	e1a06002 	mov	r6, r2
    1800:	e1a07003 	mov	r7, r3
    1804:	e3520000 	cmp	r2, #0
    1808:	e2d30000 	sbcs	r0, r3, #0
    180c:	ba0004ae 	blt	2acc <_vfprintf_r+0x1814>
    1810:	e1961007 	orrs	r1, r6, r7
    1814:	03a02000 	moveq	r2, #0
    1818:	13a02001 	movne	r2, #1
    181c:	e3a03001 	mov	r3, #1
    1820:	e3540000 	cmp	r4, #0
    1824:	a59dc018 	ldrge	r12, [sp, #24]
    1828:	a3ccc080 	bicge	r12, r12, #128	; 0x80
    182c:	a58dc018 	strge	r12, [sp, #24]
    1830:	e3540000 	cmp	r4, #0
    1834:	13822001 	orrne	r2, r2, #1
    1838:	e3520000 	cmp	r2, #0
    183c:	0a0002a4 	beq	22d4 <_vfprintf_r+0x101c>
    1840:	e3530001 	cmp	r3, #1
    1844:	0a000397 	beq	26a8 <_vfprintf_r+0x13f0>
    1848:	e3530002 	cmp	r3, #2
    184c:	e59dc05c 	ldr	r12, [sp, #92]	; 0x5c
    1850:	0a000380 	beq	2658 <_vfprintf_r+0x13a0>
    1854:	e3a00007 	mov	r0, #7
    1858:	e1a0a1a6 	lsr	r10, r6, #3
    185c:	e18aae87 	orr	r10, r10, r7, lsl #29
    1860:	e0062000 	and	r2, r6, r0
    1864:	e1a031a7 	lsr	r3, r7, #3
    1868:	e1a07003 	mov	r7, r3
    186c:	e1a0600a 	mov	r6, r10
    1870:	e2822030 	add	r2, r2, #48	; 0x30
    1874:	e20220ff 	and	r2, r2, #255	; 0xff
    1878:	e196b007 	orrs	r11, r6, r7
    187c:	e1a0300c 	mov	r3, r12
    1880:	e5cc2000 	strb	r2, [r12]
    1884:	e24cc001 	sub	r12, r12, #1
    1888:	1afffff2 	bne	1858 <_vfprintf_r+0x5a0>
    188c:	e59d6018 	ldr	r6, [sp, #24]
    1890:	e3160001 	tst	r6, #1
    1894:	e58d304c 	str	r3, [sp, #76]	; 0x4c
    1898:	1a00047f 	bne	2a9c <_vfprintf_r+0x17e4>
    189c:	e59d7054 	ldr	r7, [sp, #84]	; 0x54
    18a0:	e0637007 	rsb	r7, r3, r7
    18a4:	e58d7038 	str	r7, [sp, #56]	; 0x38
    18a8:	e59d7038 	ldr	r7, [sp, #56]	; 0x38
    18ac:	e3a0b000 	mov	r11, #0
    18b0:	e1570004 	cmp	r7, r4
    18b4:	b1a07004 	movlt	r7, r4
    18b8:	e58d7020 	str	r7, [sp, #32]
    18bc:	e5dd3083 	ldrb	r3, [sp, #131]	; 0x83
    18c0:	e58d4040 	str	r4, [sp, #64]	; 0x40
    18c4:	e58db060 	str	r11, [sp, #96]	; 0x60
    18c8:	e3530000 	cmp	r3, #0
    18cc:	0a000002 	beq	18dc <_vfprintf_r+0x624>
    18d0:	e59d7020 	ldr	r7, [sp, #32]
    18d4:	e2877001 	add	r7, r7, #1
    18d8:	e58d7020 	str	r7, [sp, #32]
    18dc:	e59db018 	ldr	r11, [sp, #24]
    18e0:	e21bb002 	ands	r11, r11, #2
    18e4:	159dc020 	ldrne	r12, [sp, #32]
    18e8:	e59d3018 	ldr	r3, [sp, #24]
    18ec:	128cc002 	addne	r12, r12, #2
    18f0:	158dc020 	strne	r12, [sp, #32]
    18f4:	e2133084 	ands	r3, r3, #132	; 0x84
    18f8:	e58db048 	str	r11, [sp, #72]	; 0x48
    18fc:	e58d3050 	str	r3, [sp, #80]	; 0x50
    1900:	1a000178 	bne	1ee8 <_vfprintf_r+0xc30>
    1904:	e59d4030 	ldr	r4, [sp, #48]	; 0x30
    1908:	e59d6020 	ldr	r6, [sp, #32]
    190c:	e0667004 	rsb	r7, r6, r4
    1910:	e3570000 	cmp	r7, #0
    1914:	da000173 	ble	1ee8 <_vfprintf_r+0xc30>
    1918:	e28d40a8 	add	r4, sp, #168	; 0xa8
    191c:	e3570010 	cmp	r7, #16
    1920:	e8940050 	ldm	r4, {r4, r6}
    1924:	e59f9d00 	ldr	r9, [pc, #3328]	; 262c <_vfprintf_r+0x1374>
    1928:	da000023 	ble	19bc <_vfprintf_r+0x704>
    192c:	e28da0a4 	add	r10, sp, #164	; 0xa4
    1930:	e1a03009 	mov	r3, r9
    1934:	e58d8078 	str	r8, [sp, #120]	; 0x78
    1938:	e1a09007 	mov	r9, r7
    193c:	e1a0800a 	mov	r8, r10
    1940:	e3a0b010 	mov	r11, #16
    1944:	e59da02c 	ldr	r10, [sp, #44]	; 0x2c
    1948:	e1a07003 	mov	r7, r3
    194c:	ea000002 	b	195c <_vfprintf_r+0x6a4>
    1950:	e2499010 	sub	r9, r9, #16
    1954:	e3590010 	cmp	r9, #16
    1958:	da000013 	ble	19ac <_vfprintf_r+0x6f4>
    195c:	e2844001 	add	r4, r4, #1
    1960:	e3540007 	cmp	r4, #7
    1964:	e2866010 	add	r6, r6, #16
    1968:	e8850880 	stm	r5, {r7, r11}
    196c:	e58d60ac 	str	r6, [sp, #172]	; 0xac
    1970:	e58d40a8 	str	r4, [sp, #168]	; 0xa8
    1974:	d2855008 	addle	r5, r5, #8
    1978:	dafffff4 	ble	1950 <_vfprintf_r+0x698>
    197c:	e1a0000a 	mov	r0, r10
    1980:	e59d101c 	ldr	r1, [sp, #28]
    1984:	e1a02008 	mov	r2, r8
    1988:	eb0032c5 	bl	e4a4 <__sprint_r>
    198c:	e3500000 	cmp	r0, #0
    1990:	1affff2d 	bne	164c <_vfprintf_r+0x394>
    1994:	e2499010 	sub	r9, r9, #16
    1998:	e28d40a8 	add	r4, sp, #168	; 0xa8
    199c:	e3590010 	cmp	r9, #16
    19a0:	e8940050 	ldm	r4, {r4, r6}
    19a4:	e28d5d05 	add	r5, sp, #320	; 0x140
    19a8:	caffffeb 	bgt	195c <_vfprintf_r+0x6a4>
    19ac:	e1a03007 	mov	r3, r7
    19b0:	e59d8078 	ldr	r8, [sp, #120]	; 0x78
    19b4:	e1a07009 	mov	r7, r9
    19b8:	e1a09003 	mov	r9, r3
    19bc:	e2844001 	add	r4, r4, #1
    19c0:	e0866007 	add	r6, r6, r7
    19c4:	e3540007 	cmp	r4, #7
    19c8:	e5859000 	str	r9, [r5]
    19cc:	e5857004 	str	r7, [r5, #4]
    19d0:	e58d60ac 	str	r6, [sp, #172]	; 0xac
    19d4:	e58d40a8 	str	r4, [sp, #168]	; 0xa8
    19d8:	d2855008 	addle	r5, r5, #8
    19dc:	da000142 	ble	1eec <_vfprintf_r+0xc34>
    19e0:	e59d002c 	ldr	r0, [sp, #44]	; 0x2c
    19e4:	e59d101c 	ldr	r1, [sp, #28]
    19e8:	e28d20a4 	add	r2, sp, #164	; 0xa4
    19ec:	eb0032ac 	bl	e4a4 <__sprint_r>
    19f0:	e3500000 	cmp	r0, #0
    19f4:	1affff14 	bne	164c <_vfprintf_r+0x394>
    19f8:	e59d60ac 	ldr	r6, [sp, #172]	; 0xac
    19fc:	e28d5d05 	add	r5, sp, #320	; 0x140
    1a00:	ea000139 	b	1eec <_vfprintf_r+0xc34>
    1a04:	e59d6018 	ldr	r6, [sp, #24]
    1a08:	e3160008 	tst	r6, #8
    1a0c:	e58d3028 	str	r3, [sp, #40]	; 0x28
    1a10:	0a000493 	beq	2c64 <_vfprintf_r+0x19ac>
    1a14:	e59d703c 	ldr	r7, [sp, #60]	; 0x3c
    1a18:	e2871007 	add	r1, r7, #7
    1a1c:	e3c11007 	bic	r1, r1, #7
    1a20:	e591a000 	ldr	r10, [r1]
    1a24:	e5917004 	ldr	r7, [r1, #4]
    1a28:	e1a0b00a 	mov	r11, r10
    1a2c:	e1a0c007 	mov	r12, r7
    1a30:	e2811008 	add	r1, r1, #8
    1a34:	e58db068 	str	r11, [sp, #104]	; 0x68
    1a38:	e58dc06c 	str	r12, [sp, #108]	; 0x6c
    1a3c:	e58d103c 	str	r1, [sp, #60]	; 0x3c
    1a40:	e1a01007 	mov	r1, r7
    1a44:	e1a0000a 	mov	r0, r10
    1a48:	eb0020bc 	bl	9d40 <__fpclassifyd>
    1a4c:	e3500001 	cmp	r0, #1
    1a50:	e1a01007 	mov	r1, r7
    1a54:	e1a0000a 	mov	r0, r10
    1a58:	1a000426 	bne	2af8 <_vfprintf_r+0x1840>
    1a5c:	e3a03000 	mov	r3, #0
    1a60:	e3a02000 	mov	r2, #0
    1a64:	eb00420b 	bl	12298 <__aeabi_dcmplt>
    1a68:	e3500000 	cmp	r0, #0
    1a6c:	13a0302d 	movne	r3, #45	; 0x2d
    1a70:	e59d7018 	ldr	r7, [sp, #24]
    1a74:	e59f2bb4 	ldr	r2, [pc, #2996]	; 2630 <_vfprintf_r+0x1378>
    1a78:	e59f1bb4 	ldr	r1, [pc, #2996]	; 2634 <_vfprintf_r+0x137c>
    1a7c:	05dd3083 	ldrbeq	r3, [sp, #131]	; 0x83
    1a80:	15cd3083 	strbne	r3, [sp, #131]	; 0x83
    1a84:	e3580047 	cmp	r8, #71	; 0x47
    1a88:	e3a04003 	mov	r4, #3
    1a8c:	e3a06000 	mov	r6, #0
    1a90:	d1a01002 	movle	r1, r2
    1a94:	e3c77080 	bic	r7, r7, #128	; 0x80
    1a98:	e58d4020 	str	r4, [sp, #32]
    1a9c:	e58d6040 	str	r6, [sp, #64]	; 0x40
    1aa0:	e58d104c 	str	r1, [sp, #76]	; 0x4c
    1aa4:	e58d7018 	str	r7, [sp, #24]
    1aa8:	e58d4038 	str	r4, [sp, #56]	; 0x38
    1aac:	e58d6060 	str	r6, [sp, #96]	; 0x60
    1ab0:	eaffff84 	b	18c8 <_vfprintf_r+0x610>
    1ab4:	e59d6018 	ldr	r6, [sp, #24]
    1ab8:	e3866008 	orr	r6, r6, #8
    1abc:	e58d6018 	str	r6, [sp, #24]
    1ac0:	e5d38000 	ldrb	r8, [r3]
    1ac4:	eafffe5e 	b	1444 <_vfprintf_r+0x18c>
    1ac8:	e59d6018 	ldr	r6, [sp, #24]
    1acc:	e3866010 	orr	r6, r6, #16
    1ad0:	e58d6018 	str	r6, [sp, #24]
    1ad4:	e59d7018 	ldr	r7, [sp, #24]
    1ad8:	e58d3028 	str	r3, [sp, #40]	; 0x28
    1adc:	e2173020 	ands	r3, r7, #32
    1ae0:	0a000074 	beq	1cb8 <_vfprintf_r+0xa00>
    1ae4:	e59db03c 	ldr	r11, [sp, #60]	; 0x3c
    1ae8:	e28b3007 	add	r3, r11, #7
    1aec:	e3c33007 	bic	r3, r3, #7
    1af0:	e89300c0 	ldm	r3, {r6, r7}
    1af4:	e2833008 	add	r3, r3, #8
    1af8:	e196c007 	orrs	r12, r6, r7
    1afc:	e58d303c 	str	r3, [sp, #60]	; 0x3c
    1b00:	03a02000 	moveq	r2, #0
    1b04:	13a02001 	movne	r2, #1
    1b08:	e3a03000 	mov	r3, #0
    1b0c:	e3a01000 	mov	r1, #0
    1b10:	e5cd1083 	strb	r1, [sp, #131]	; 0x83
    1b14:	eaffff41 	b	1820 <_vfprintf_r+0x568>
    1b18:	e59d6018 	ldr	r6, [sp, #24]
    1b1c:	e3866010 	orr	r6, r6, #16
    1b20:	e58d6018 	str	r6, [sp, #24]
    1b24:	e59d7018 	ldr	r7, [sp, #24]
    1b28:	e3170020 	tst	r7, #32
    1b2c:	e58d3028 	str	r3, [sp, #40]	; 0x28
    1b30:	0a000095 	beq	1d8c <_vfprintf_r+0xad4>
    1b34:	e59db03c 	ldr	r11, [sp, #60]	; 0x3c
    1b38:	e28b3007 	add	r3, r11, #7
    1b3c:	e3c33007 	bic	r3, r3, #7
    1b40:	e89300c0 	ldm	r3, {r6, r7}
    1b44:	e2833008 	add	r3, r3, #8
    1b48:	e196c007 	orrs	r12, r6, r7
    1b4c:	e58d303c 	str	r3, [sp, #60]	; 0x3c
    1b50:	03a02000 	moveq	r2, #0
    1b54:	13a02001 	movne	r2, #1
    1b58:	e3a03001 	mov	r3, #1
    1b5c:	eaffffea 	b	1b0c <_vfprintf_r+0x854>
    1b60:	e59db018 	ldr	r11, [sp, #24]
    1b64:	e59f7acc 	ldr	r7, [pc, #2764]	; 2638 <_vfprintf_r+0x1380>
    1b68:	e31b0020 	tst	r11, #32
    1b6c:	e58d3028 	str	r3, [sp, #40]	; 0x28
    1b70:	e58d7074 	str	r7, [sp, #116]	; 0x74
    1b74:	0a000098 	beq	1ddc <_vfprintf_r+0xb24>
    1b78:	e59dc03c 	ldr	r12, [sp, #60]	; 0x3c
    1b7c:	e28c3007 	add	r3, r12, #7
    1b80:	e3c33007 	bic	r3, r3, #7
    1b84:	e2836008 	add	r6, r3, #8
    1b88:	e58d603c 	str	r6, [sp, #60]	; 0x3c
    1b8c:	e89300c0 	ldm	r3, {r6, r7}
    1b90:	e59db018 	ldr	r11, [sp, #24]
    1b94:	e31b0001 	tst	r11, #1
    1b98:	1a0002f2 	bne	2768 <_vfprintf_r+0x14b0>
    1b9c:	e196c007 	orrs	r12, r6, r7
    1ba0:	03a02000 	moveq	r2, #0
    1ba4:	13a02001 	movne	r2, #1
    1ba8:	e3a03002 	mov	r3, #2
    1bac:	eaffffd6 	b	1b0c <_vfprintf_r+0x854>
    1bb0:	e59d6018 	ldr	r6, [sp, #24]
    1bb4:	e3866020 	orr	r6, r6, #32
    1bb8:	e58d6018 	str	r6, [sp, #24]
    1bbc:	e5d38000 	ldrb	r8, [r3]
    1bc0:	eafffe1f 	b	1444 <_vfprintf_r+0x18c>
    1bc4:	e3a06000 	mov	r6, #0
    1bc8:	e5cd6083 	strb	r6, [sp, #131]	; 0x83
    1bcc:	e59d703c 	ldr	r7, [sp, #60]	; 0x3c
    1bd0:	e5977000 	ldr	r7, [r7]
    1bd4:	e59db03c 	ldr	r11, [sp, #60]	; 0x3c
    1bd8:	e1570006 	cmp	r7, r6
    1bdc:	e58d704c 	str	r7, [sp, #76]	; 0x4c
    1be0:	e58d3028 	str	r3, [sp, #40]	; 0x28
    1be4:	e28b7004 	add	r7, r11, #4
    1be8:	0a000536 	beq	30c8 <_vfprintf_r+0x1e10>
    1bec:	e3540000 	cmp	r4, #0
    1bf0:	e59d004c 	ldr	r0, [sp, #76]	; 0x4c
    1bf4:	ba000513 	blt	3048 <_vfprintf_r+0x1d90>
    1bf8:	e1a01006 	mov	r1, r6
    1bfc:	e1a02004 	mov	r2, r4
    1c00:	eb0019d0 	bl	8348 <memchr>
    1c04:	e3500000 	cmp	r0, #0
    1c08:	0a000584 	beq	3220 <_vfprintf_r+0x1f68>
    1c0c:	e59dc04c 	ldr	r12, [sp, #76]	; 0x4c
    1c10:	e06c0000 	rsb	r0, r12, r0
    1c14:	e1500004 	cmp	r0, r4
    1c18:	e58d0038 	str	r0, [sp, #56]	; 0x38
    1c1c:	e58d6040 	str	r6, [sp, #64]	; 0x40
    1c20:	da00049f 	ble	2ea4 <_vfprintf_r+0x1bec>
    1c24:	e58d703c 	str	r7, [sp, #60]	; 0x3c
    1c28:	e59d7040 	ldr	r7, [sp, #64]	; 0x40
    1c2c:	e1c46fc4 	bic	r6, r4, r4, asr #31
    1c30:	e58d6020 	str	r6, [sp, #32]
    1c34:	e5dd3083 	ldrb	r3, [sp, #131]	; 0x83
    1c38:	e58d4038 	str	r4, [sp, #56]	; 0x38
    1c3c:	e58d7060 	str	r7, [sp, #96]	; 0x60
    1c40:	eaffff20 	b	18c8 <_vfprintf_r+0x610>
    1c44:	e5d38000 	ldrb	r8, [r3]
    1c48:	e358006c 	cmp	r8, #108	; 0x6c
    1c4c:	059db018 	ldreq	r11, [sp, #24]
    1c50:	159dc018 	ldrne	r12, [sp, #24]
    1c54:	e1a00003 	mov	r0, r3
    1c58:	038bb020 	orreq	r11, r11, #32
    1c5c:	138cc010 	orrne	r12, r12, #16
    1c60:	02833001 	addeq	r3, r3, #1
    1c64:	058db018 	streq	r11, [sp, #24]
    1c68:	05d08001 	ldrbeq	r8, [r0, #1]
    1c6c:	158dc018 	strne	r12, [sp, #24]
    1c70:	eafffdf3 	b	1444 <_vfprintf_r+0x18c>
    1c74:	e59d4018 	ldr	r4, [sp, #24]
    1c78:	e3140020 	tst	r4, #32
    1c7c:	e58d3028 	str	r3, [sp, #40]	; 0x28
    1c80:	0a000403 	beq	2c94 <_vfprintf_r+0x19dc>
    1c84:	e59d603c 	ldr	r6, [sp, #60]	; 0x3c
    1c88:	e59d2034 	ldr	r2, [sp, #52]	; 0x34
    1c8c:	e5963000 	ldr	r3, [r6]
    1c90:	e1a01fc2 	asr	r1, r2, #31
    1c94:	e2866004 	add	r6, r6, #4
    1c98:	e5832000 	str	r2, [r3]
    1c9c:	e5831004 	str	r1, [r3, #4]
    1ca0:	e58d603c 	str	r6, [sp, #60]	; 0x3c
    1ca4:	eafffdbb 	b	1398 <_vfprintf_r+0xe0>
    1ca8:	e59d7018 	ldr	r7, [sp, #24]
    1cac:	e58d3028 	str	r3, [sp, #40]	; 0x28
    1cb0:	e2173020 	ands	r3, r7, #32
    1cb4:	1affff8a 	bne	1ae4 <_vfprintf_r+0x82c>
    1cb8:	e59d6018 	ldr	r6, [sp, #24]
    1cbc:	e2161010 	ands	r1, r6, #16
    1cc0:	0a00041e 	beq	2d40 <_vfprintf_r+0x1a88>
    1cc4:	e59d703c 	ldr	r7, [sp, #60]	; 0x3c
    1cc8:	e59db03c 	ldr	r11, [sp, #60]	; 0x3c
    1ccc:	e5972000 	ldr	r2, [r7]
    1cd0:	e3a07000 	mov	r7, #0
    1cd4:	e1a06002 	mov	r6, r2
    1cd8:	e28bb004 	add	r11, r11, #4
    1cdc:	e0522007 	subs	r2, r2, r7
    1ce0:	13a02001 	movne	r2, #1
    1ce4:	e58db03c 	str	r11, [sp, #60]	; 0x3c
    1ce8:	eaffff87 	b	1b0c <_vfprintf_r+0x854>
    1cec:	e3580000 	cmp	r8, #0
    1cf0:	e58d3028 	str	r3, [sp, #40]	; 0x28
    1cf4:	0a000461 	beq	2e80 <_vfprintf_r+0x1bc8>
    1cf8:	e3a0c001 	mov	r12, #1
    1cfc:	e3a03000 	mov	r3, #0
    1d00:	e28d40b0 	add	r4, sp, #176	; 0xb0
    1d04:	e58dc020 	str	r12, [sp, #32]
    1d08:	e5cd80b0 	strb	r8, [sp, #176]	; 0xb0
    1d0c:	e5cd3083 	strb	r3, [sp, #131]	; 0x83
    1d10:	e58dc038 	str	r12, [sp, #56]	; 0x38
    1d14:	e58d404c 	str	r4, [sp, #76]	; 0x4c
    1d18:	e3a04000 	mov	r4, #0
    1d1c:	e58d4040 	str	r4, [sp, #64]	; 0x40
    1d20:	e58d4060 	str	r4, [sp, #96]	; 0x60
    1d24:	eafffeec 	b	18dc <_vfprintf_r+0x624>
    1d28:	e5dd0083 	ldrb	r0, [sp, #131]	; 0x83
    1d2c:	e3500000 	cmp	r0, #0
    1d30:	1a00036e 	bne	2af0 <_vfprintf_r+0x1838>
    1d34:	e5cd1083 	strb	r1, [sp, #131]	; 0x83
    1d38:	e5d38000 	ldrb	r8, [r3]
    1d3c:	eafffdc0 	b	1444 <_vfprintf_r+0x18c>
    1d40:	e59d7018 	ldr	r7, [sp, #24]
    1d44:	e3877001 	orr	r7, r7, #1
    1d48:	e58d7018 	str	r7, [sp, #24]
    1d4c:	e5d38000 	ldrb	r8, [r3]
    1d50:	eafffdbb 	b	1444 <_vfprintf_r+0x18c>
    1d54:	e59db03c 	ldr	r11, [sp, #60]	; 0x3c
    1d58:	e59bb000 	ldr	r11, [r11]
    1d5c:	e59dc03c 	ldr	r12, [sp, #60]	; 0x3c
    1d60:	e35b0000 	cmp	r11, #0
    1d64:	e58db030 	str	r11, [sp, #48]	; 0x30
    1d68:	e28c0004 	add	r0, r12, #4
    1d6c:	bafffe12 	blt	15bc <_vfprintf_r+0x304>
    1d70:	e5d38000 	ldrb	r8, [r3]
    1d74:	e58d003c 	str	r0, [sp, #60]	; 0x3c
    1d78:	eafffdb1 	b	1444 <_vfprintf_r+0x18c>
    1d7c:	e59d7018 	ldr	r7, [sp, #24]
    1d80:	e3170020 	tst	r7, #32
    1d84:	e58d3028 	str	r3, [sp, #40]	; 0x28
    1d88:	1affff69 	bne	1b34 <_vfprintf_r+0x87c>
    1d8c:	e59d6018 	ldr	r6, [sp, #24]
    1d90:	e3160010 	tst	r6, #16
    1d94:	0a0003e3 	beq	2d28 <_vfprintf_r+0x1a70>
    1d98:	e59d703c 	ldr	r7, [sp, #60]	; 0x3c
    1d9c:	e5972000 	ldr	r2, [r7]
    1da0:	e59db03c 	ldr	r11, [sp, #60]	; 0x3c
    1da4:	e3a07000 	mov	r7, #0
    1da8:	e1a06002 	mov	r6, r2
    1dac:	e28bb004 	add	r11, r11, #4
    1db0:	e0522007 	subs	r2, r2, r7
    1db4:	13a02001 	movne	r2, #1
    1db8:	e58db03c 	str	r11, [sp, #60]	; 0x3c
    1dbc:	e3a03001 	mov	r3, #1
    1dc0:	eaffff51 	b	1b0c <_vfprintf_r+0x854>
    1dc4:	e59db018 	ldr	r11, [sp, #24]
    1dc8:	e59f686c 	ldr	r6, [pc, #2156]	; 263c <_vfprintf_r+0x1384>
    1dcc:	e31b0020 	tst	r11, #32
    1dd0:	e58d3028 	str	r3, [sp, #40]	; 0x28
    1dd4:	e58d6074 	str	r6, [sp, #116]	; 0x74
    1dd8:	1affff66 	bne	1b78 <_vfprintf_r+0x8c0>
    1ddc:	e59d7018 	ldr	r7, [sp, #24]
    1de0:	e3170010 	tst	r7, #16
    1de4:	0a0003c4 	beq	2cfc <_vfprintf_r+0x1a44>
    1de8:	e59db03c 	ldr	r11, [sp, #60]	; 0x3c
    1dec:	e59b3000 	ldr	r3, [r11]
    1df0:	e28bb004 	add	r11, r11, #4
    1df4:	e1a06003 	mov	r6, r3
    1df8:	e3a07000 	mov	r7, #0
    1dfc:	e58db03c 	str	r11, [sp, #60]	; 0x3c
    1e00:	eaffff62 	b	1b90 <_vfprintf_r+0x8d8>
    1e04:	e59d7018 	ldr	r7, [sp, #24]
    1e08:	e3170020 	tst	r7, #32
    1e0c:	e58d3028 	str	r3, [sp, #40]	; 0x28
    1e10:	1afffe73 	bne	17e4 <_vfprintf_r+0x52c>
    1e14:	e59dc018 	ldr	r12, [sp, #24]
    1e18:	e31c0010 	tst	r12, #16
    1e1c:	0a0003b0 	beq	2ce4 <_vfprintf_r+0x1a2c>
    1e20:	e59d603c 	ldr	r6, [sp, #60]	; 0x3c
    1e24:	e5963000 	ldr	r3, [r6]
    1e28:	e59db03c 	ldr	r11, [sp, #60]	; 0x3c
    1e2c:	e1a07fc3 	asr	r7, r3, #31
    1e30:	e28bb004 	add	r11, r11, #4
    1e34:	e1a06003 	mov	r6, r3
    1e38:	e1a02003 	mov	r2, r3
    1e3c:	e58db03c 	str	r11, [sp, #60]	; 0x3c
    1e40:	e1a03007 	mov	r3, r7
    1e44:	eafffe6e 	b	1804 <_vfprintf_r+0x54c>
    1e48:	e59d7018 	ldr	r7, [sp, #24]
    1e4c:	e3877040 	orr	r7, r7, #64	; 0x40
    1e50:	e58d7018 	str	r7, [sp, #24]
    1e54:	e5d38000 	ldrb	r8, [r3]
    1e58:	eafffd79 	b	1444 <_vfprintf_r+0x18c>
    1e5c:	e58d3028 	str	r3, [sp, #40]	; 0x28
    1e60:	e59d303c 	ldr	r3, [sp, #60]	; 0x3c
    1e64:	e59db03c 	ldr	r11, [sp, #60]	; 0x3c
    1e68:	e5933000 	ldr	r3, [r3]
    1e6c:	e3a07001 	mov	r7, #1
    1e70:	e28bb004 	add	r11, r11, #4
    1e74:	e5cd30b0 	strb	r3, [sp, #176]	; 0xb0
    1e78:	e28dc0b0 	add	r12, sp, #176	; 0xb0
    1e7c:	e3a03000 	mov	r3, #0
    1e80:	e58d7020 	str	r7, [sp, #32]
    1e84:	e58db03c 	str	r11, [sp, #60]	; 0x3c
    1e88:	e5cd3083 	strb	r3, [sp, #131]	; 0x83
    1e8c:	e58d7038 	str	r7, [sp, #56]	; 0x38
    1e90:	e58dc04c 	str	r12, [sp, #76]	; 0x4c
    1e94:	eaffff9f 	b	1d18 <_vfprintf_r+0xa60>
    1e98:	e59dc018 	ldr	r12, [sp, #24]
    1e9c:	e58d3028 	str	r3, [sp, #40]	; 0x28
    1ea0:	e59d303c 	ldr	r3, [sp, #60]	; 0x3c
    1ea4:	e38cc002 	orr	r12, r12, #2
    1ea8:	e5932000 	ldr	r2, [r3]
    1eac:	e58dc018 	str	r12, [sp, #24]
    1eb0:	e3a07000 	mov	r7, #0
    1eb4:	e59fc780 	ldr	r12, [pc, #1920]	; 263c <_vfprintf_r+0x1384>
    1eb8:	e283b004 	add	r11, r3, #4
    1ebc:	e3a08078 	mov	r8, #120	; 0x78
    1ec0:	e3a03030 	mov	r3, #48	; 0x30
    1ec4:	e1a06002 	mov	r6, r2
    1ec8:	e0522007 	subs	r2, r2, r7
    1ecc:	e5cd3084 	strb	r3, [sp, #132]	; 0x84
    1ed0:	e58db03c 	str	r11, [sp, #60]	; 0x3c
    1ed4:	e5cd8085 	strb	r8, [sp, #133]	; 0x85
    1ed8:	13a02001 	movne	r2, #1
    1edc:	e58dc074 	str	r12, [sp, #116]	; 0x74
    1ee0:	e3a03002 	mov	r3, #2
    1ee4:	eaffff08 	b	1b0c <_vfprintf_r+0x854>
    1ee8:	e59d60ac 	ldr	r6, [sp, #172]	; 0xac
    1eec:	e5dd3083 	ldrb	r3, [sp, #131]	; 0x83
    1ef0:	e3530000 	cmp	r3, #0
    1ef4:	0a00000c 	beq	1f2c <_vfprintf_r+0xc74>
    1ef8:	e59d40a8 	ldr	r4, [sp, #168]	; 0xa8
    1efc:	e28d3083 	add	r3, sp, #131	; 0x83
    1f00:	e2844001 	add	r4, r4, #1
    1f04:	e5853000 	str	r3, [r5]
    1f08:	e2866001 	add	r6, r6, #1
    1f0c:	e3540007 	cmp	r4, #7
    1f10:	e3a03001 	mov	r3, #1
    1f14:	e5853004 	str	r3, [r5, #4]
    1f18:	e28d7090 	add	r7, sp, #144	; 0x90
    1f1c:	e58d60ac 	str	r6, [sp, #172]	; 0xac
    1f20:	e58d40a8 	str	r4, [sp, #168]	; 0xa8
    1f24:	d2855008 	addle	r5, r5, #8
    1f28:	ca000179 	bgt	2514 <_vfprintf_r+0x125c>
    1f2c:	e59dc048 	ldr	r12, [sp, #72]	; 0x48
    1f30:	e35c0000 	cmp	r12, #0
    1f34:	0a00000b 	beq	1f68 <_vfprintf_r+0xcb0>
    1f38:	e59d40a8 	ldr	r4, [sp, #168]	; 0xa8
    1f3c:	e28d3084 	add	r3, sp, #132	; 0x84
    1f40:	e2844001 	add	r4, r4, #1
    1f44:	e5853000 	str	r3, [r5]
    1f48:	e2866002 	add	r6, r6, #2
    1f4c:	e3540007 	cmp	r4, #7
    1f50:	e3a03002 	mov	r3, #2
    1f54:	e5853004 	str	r3, [r5, #4]
    1f58:	e58d60ac 	str	r6, [sp, #172]	; 0xac
    1f5c:	e58d40a8 	str	r4, [sp, #168]	; 0xa8
    1f60:	d2855008 	addle	r5, r5, #8
    1f64:	ca000161 	bgt	24f0 <_vfprintf_r+0x1238>
    1f68:	e59d4050 	ldr	r4, [sp, #80]	; 0x50
    1f6c:	e3540080 	cmp	r4, #128	; 0x80
    1f70:	0a0000e3 	beq	2304 <_vfprintf_r+0x104c>
    1f74:	e59d4040 	ldr	r4, [sp, #64]	; 0x40
    1f78:	e59d7038 	ldr	r7, [sp, #56]	; 0x38
    1f7c:	e0679004 	rsb	r9, r7, r4
    1f80:	e3590000 	cmp	r9, #0
    1f84:	da000031 	ble	2050 <_vfprintf_r+0xd98>
    1f88:	e3590010 	cmp	r9, #16
    1f8c:	e59d40a8 	ldr	r4, [sp, #168]	; 0xa8
    1f90:	e59f76ac 	ldr	r7, [pc, #1708]	; 2644 <_vfprintf_r+0x138c>
    1f94:	da00001d 	ble	2010 <_vfprintf_r+0xd58>
    1f98:	e28da0a4 	add	r10, sp, #164	; 0xa4
    1f9c:	e58d8040 	str	r8, [sp, #64]	; 0x40
    1fa0:	e3a0b010 	mov	r11, #16
    1fa4:	e1a0800a 	mov	r8, r10
    1fa8:	e59da02c 	ldr	r10, [sp, #44]	; 0x2c
    1fac:	ea000002 	b	1fbc <_vfprintf_r+0xd04>
    1fb0:	e2499010 	sub	r9, r9, #16
    1fb4:	e3590010 	cmp	r9, #16
    1fb8:	da000013 	ble	200c <_vfprintf_r+0xd54>
    1fbc:	e2844001 	add	r4, r4, #1
    1fc0:	e3540007 	cmp	r4, #7
    1fc4:	e2866010 	add	r6, r6, #16
    1fc8:	e8850880 	stm	r5, {r7, r11}
    1fcc:	e58d60ac 	str	r6, [sp, #172]	; 0xac
    1fd0:	e58d40a8 	str	r4, [sp, #168]	; 0xa8
    1fd4:	d2855008 	addle	r5, r5, #8
    1fd8:	dafffff4 	ble	1fb0 <_vfprintf_r+0xcf8>
    1fdc:	e1a0000a 	mov	r0, r10
    1fe0:	e59d101c 	ldr	r1, [sp, #28]
    1fe4:	e1a02008 	mov	r2, r8
    1fe8:	eb00312d 	bl	e4a4 <__sprint_r>
    1fec:	e3500000 	cmp	r0, #0
    1ff0:	1afffd95 	bne	164c <_vfprintf_r+0x394>
    1ff4:	e2499010 	sub	r9, r9, #16
    1ff8:	e28d40a8 	add	r4, sp, #168	; 0xa8
    1ffc:	e3590010 	cmp	r9, #16
    2000:	e8940050 	ldm	r4, {r4, r6}
    2004:	e28d5d05 	add	r5, sp, #320	; 0x140
    2008:	caffffeb 	bgt	1fbc <_vfprintf_r+0xd04>
    200c:	e59d8040 	ldr	r8, [sp, #64]	; 0x40
    2010:	e2844001 	add	r4, r4, #1
    2014:	e0866009 	add	r6, r6, r9
    2018:	e3540007 	cmp	r4, #7
    201c:	e8850280 	stm	r5, {r7, r9}
    2020:	e58d60ac 	str	r6, [sp, #172]	; 0xac
    2024:	e58d40a8 	str	r4, [sp, #168]	; 0xa8
    2028:	d2855008 	addle	r5, r5, #8
    202c:	da000007 	ble	2050 <_vfprintf_r+0xd98>
    2030:	e59d002c 	ldr	r0, [sp, #44]	; 0x2c
    2034:	e59d101c 	ldr	r1, [sp, #28]
    2038:	e28d20a4 	add	r2, sp, #164	; 0xa4
    203c:	eb003118 	bl	e4a4 <__sprint_r>
    2040:	e3500000 	cmp	r0, #0
    2044:	1afffd80 	bne	164c <_vfprintf_r+0x394>
    2048:	e59d60ac 	ldr	r6, [sp, #172]	; 0xac
    204c:	e28d5d05 	add	r5, sp, #320	; 0x140
    2050:	e59d4018 	ldr	r4, [sp, #24]
    2054:	e3140c01 	tst	r4, #256	; 0x100
    2058:	1a000052 	bne	21a8 <_vfprintf_r+0xef0>
    205c:	e59d40a8 	ldr	r4, [sp, #168]	; 0xa8
    2060:	e59d7038 	ldr	r7, [sp, #56]	; 0x38
    2064:	e2844001 	add	r4, r4, #1
    2068:	e59dc04c 	ldr	r12, [sp, #76]	; 0x4c
    206c:	e0866007 	add	r6, r6, r7
    2070:	e3540007 	cmp	r4, #7
    2074:	e585c000 	str	r12, [r5]
    2078:	e5857004 	str	r7, [r5, #4]
    207c:	e58d60ac 	str	r6, [sp, #172]	; 0xac
    2080:	e58d40a8 	str	r4, [sp, #168]	; 0xa8
    2084:	ca00010c 	bgt	24bc <_vfprintf_r+0x1204>
    2088:	e2855008 	add	r5, r5, #8
    208c:	e59d4018 	ldr	r4, [sp, #24]
    2090:	e3140004 	tst	r4, #4
    2094:	0a000036 	beq	2174 <_vfprintf_r+0xebc>
    2098:	e59d7030 	ldr	r7, [sp, #48]	; 0x30
    209c:	e59db020 	ldr	r11, [sp, #32]
    20a0:	e06b8007 	rsb	r8, r11, r7
    20a4:	e3580000 	cmp	r8, #0
    20a8:	da000031 	ble	2174 <_vfprintf_r+0xebc>
    20ac:	e3580010 	cmp	r8, #16
    20b0:	e59d40a8 	ldr	r4, [sp, #168]	; 0xa8
    20b4:	e59f9570 	ldr	r9, [pc, #1392]	; 262c <_vfprintf_r+0x1374>
    20b8:	da00001e 	ble	2138 <_vfprintf_r+0xe80>
    20bc:	e28d70a4 	add	r7, sp, #164	; 0xa4
    20c0:	e1a03007 	mov	r3, r7
    20c4:	e3a0a010 	mov	r10, #16
    20c8:	e1a07009 	mov	r7, r9
    20cc:	e59db02c 	ldr	r11, [sp, #44]	; 0x2c
    20d0:	e1a09003 	mov	r9, r3
    20d4:	ea000002 	b	20e4 <_vfprintf_r+0xe2c>
    20d8:	e2488010 	sub	r8, r8, #16
    20dc:	e3580010 	cmp	r8, #16
    20e0:	da000013 	ble	2134 <_vfprintf_r+0xe7c>
    20e4:	e2844001 	add	r4, r4, #1
    20e8:	e3540007 	cmp	r4, #7
    20ec:	e2866010 	add	r6, r6, #16
    20f0:	e8850480 	stm	r5, {r7, r10}
    20f4:	e58d60ac 	str	r6, [sp, #172]	; 0xac
    20f8:	e58d40a8 	str	r4, [sp, #168]	; 0xa8
    20fc:	d2855008 	addle	r5, r5, #8
    2100:	dafffff4 	ble	20d8 <_vfprintf_r+0xe20>
    2104:	e1a0000b 	mov	r0, r11
    2108:	e59d101c 	ldr	r1, [sp, #28]
    210c:	e1a02009 	mov	r2, r9
    2110:	eb0030e3 	bl	e4a4 <__sprint_r>
    2114:	e3500000 	cmp	r0, #0
    2118:	1afffd4b 	bne	164c <_vfprintf_r+0x394>
    211c:	e2488010 	sub	r8, r8, #16
    2120:	e28d40a8 	add	r4, sp, #168	; 0xa8
    2124:	e3580010 	cmp	r8, #16
    2128:	e8940050 	ldm	r4, {r4, r6}
    212c:	e28d5d05 	add	r5, sp, #320	; 0x140
    2130:	caffffeb 	bgt	20e4 <_vfprintf_r+0xe2c>
    2134:	e1a09007 	mov	r9, r7
    2138:	e2844001 	add	r4, r4, #1
    213c:	e0886006 	add	r6, r8, r6
    2140:	e3540007 	cmp	r4, #7
    2144:	e5859000 	str	r9, [r5]
    2148:	e5858004 	str	r8, [r5, #4]
    214c:	e58d60ac 	str	r6, [sp, #172]	; 0xac
    2150:	e58d40a8 	str	r4, [sp, #168]	; 0xa8
    2154:	da000006 	ble	2174 <_vfprintf_r+0xebc>
    2158:	e59d002c 	ldr	r0, [sp, #44]	; 0x2c
    215c:	e59d101c 	ldr	r1, [sp, #28]
    2160:	e28d20a4 	add	r2, sp, #164	; 0xa4
    2164:	eb0030ce 	bl	e4a4 <__sprint_r>
    2168:	e3500000 	cmp	r0, #0
    216c:	1afffd36 	bne	164c <_vfprintf_r+0x394>
    2170:	e59d60ac 	ldr	r6, [sp, #172]	; 0xac
    2174:	e59d4034 	ldr	r4, [sp, #52]	; 0x34
    2178:	e59d7020 	ldr	r7, [sp, #32]
    217c:	e59db030 	ldr	r11, [sp, #48]	; 0x30
    2180:	e157000b 	cmp	r7, r11
    2184:	a0844007 	addge	r4, r4, r7
    2188:	b084400b 	addlt	r4, r4, r11
    218c:	e3560000 	cmp	r6, #0
    2190:	e58d4034 	str	r4, [sp, #52]	; 0x34
    2194:	1afffd26 	bne	1634 <_vfprintf_r+0x37c>
    2198:	e3a03000 	mov	r3, #0
    219c:	e58d30a8 	str	r3, [sp, #168]	; 0xa8
    21a0:	e28d5d05 	add	r5, sp, #320	; 0x140
    21a4:	eafffc7b 	b	1398 <_vfprintf_r+0xe0>
    21a8:	e3580065 	cmp	r8, #101	; 0x65
    21ac:	da00008c 	ble	23e4 <_vfprintf_r+0x112c>
    21b0:	e28d1068 	add	r1, sp, #104	; 0x68
    21b4:	e8910003 	ldm	r1, {r0, r1}
    21b8:	e3a02000 	mov	r2, #0
    21bc:	e3a03000 	mov	r3, #0
    21c0:	eb00402e 	bl	12280 <__aeabi_dcmpeq>
    21c4:	e3500000 	cmp	r0, #0
    21c8:	0a0000db 	beq	253c <_vfprintf_r+0x1284>
    21cc:	e59d40a8 	ldr	r4, [sp, #168]	; 0xa8
    21d0:	e59f3468 	ldr	r3, [pc, #1128]	; 2640 <_vfprintf_r+0x1388>
    21d4:	e2844001 	add	r4, r4, #1
    21d8:	e5853000 	str	r3, [r5]
    21dc:	e2866001 	add	r6, r6, #1
    21e0:	e3540007 	cmp	r4, #7
    21e4:	e3a03001 	mov	r3, #1
    21e8:	e5853004 	str	r3, [r5, #4]
    21ec:	e58d60ac 	str	r6, [sp, #172]	; 0xac
    21f0:	e58d40a8 	str	r4, [sp, #168]	; 0xa8
    21f4:	d2855008 	addle	r5, r5, #8
    21f8:	ca0002de 	bgt	2d78 <_vfprintf_r+0x1ac0>
    21fc:	e59d3088 	ldr	r3, [sp, #136]	; 0x88
    2200:	e59d7044 	ldr	r7, [sp, #68]	; 0x44
    2204:	e1530007 	cmp	r3, r7
    2208:	ba000002 	blt	2218 <_vfprintf_r+0xf60>
    220c:	e59db018 	ldr	r11, [sp, #24]
    2210:	e31b0001 	tst	r11, #1
    2214:	0affff9c 	beq	208c <_vfprintf_r+0xdd4>
    2218:	e59d40a8 	ldr	r4, [sp, #168]	; 0xa8
    221c:	e59dc064 	ldr	r12, [sp, #100]	; 0x64
    2220:	e2844001 	add	r4, r4, #1
    2224:	e59d7058 	ldr	r7, [sp, #88]	; 0x58
    2228:	e086600c 	add	r6, r6, r12
    222c:	e3540007 	cmp	r4, #7
    2230:	e8851080 	stm	r5, {r7, r12}
    2234:	e58d60ac 	str	r6, [sp, #172]	; 0xac
    2238:	e58d40a8 	str	r4, [sp, #168]	; 0xa8
    223c:	d2855008 	addle	r5, r5, #8
    2240:	ca000362 	bgt	2fd0 <_vfprintf_r+0x1d18>
    2244:	e59dc044 	ldr	r12, [sp, #68]	; 0x44
    2248:	e24ca001 	sub	r10, r12, #1
    224c:	e35a0000 	cmp	r10, #0
    2250:	daffff8d 	ble	208c <_vfprintf_r+0xdd4>
    2254:	e35a0010 	cmp	r10, #16
    2258:	e59d40a8 	ldr	r4, [sp, #168]	; 0xa8
    225c:	e59f73e0 	ldr	r7, [pc, #992]	; 2644 <_vfprintf_r+0x138c>
    2260:	da00014c 	ble	2798 <_vfprintf_r+0x14e0>
    2264:	e28d80a4 	add	r8, sp, #164	; 0xa4
    2268:	e1a03008 	mov	r3, r8
    226c:	e3a09010 	mov	r9, #16
    2270:	e1a08007 	mov	r8, r7
    2274:	e59db02c 	ldr	r11, [sp, #44]	; 0x2c
    2278:	e1a07003 	mov	r7, r3
    227c:	ea000002 	b	228c <_vfprintf_r+0xfd4>
    2280:	e24aa010 	sub	r10, r10, #16
    2284:	e35a0010 	cmp	r10, #16
    2288:	da000141 	ble	2794 <_vfprintf_r+0x14dc>
    228c:	e2844001 	add	r4, r4, #1
    2290:	e3540007 	cmp	r4, #7
    2294:	e2866010 	add	r6, r6, #16
    2298:	e8850300 	stm	r5, {r8, r9}
    229c:	e58d60ac 	str	r6, [sp, #172]	; 0xac
    22a0:	e58d40a8 	str	r4, [sp, #168]	; 0xa8
    22a4:	d2855008 	addle	r5, r5, #8
    22a8:	dafffff4 	ble	2280 <_vfprintf_r+0xfc8>
    22ac:	e1a0000b 	mov	r0, r11
    22b0:	e59d101c 	ldr	r1, [sp, #28]
    22b4:	e1a02007 	mov	r2, r7
    22b8:	eb003079 	bl	e4a4 <__sprint_r>
    22bc:	e3500000 	cmp	r0, #0
    22c0:	1afffce1 	bne	164c <_vfprintf_r+0x394>
    22c4:	e28d40a8 	add	r4, sp, #168	; 0xa8
    22c8:	e8940050 	ldm	r4, {r4, r6}
    22cc:	e28d5d05 	add	r5, sp, #320	; 0x140
    22d0:	eaffffea 	b	2280 <_vfprintf_r+0xfc8>
    22d4:	e3530000 	cmp	r3, #0
    22d8:	1a000080 	bne	24e0 <_vfprintf_r+0x1228>
    22dc:	e59d6018 	ldr	r6, [sp, #24]
    22e0:	e3160001 	tst	r6, #1
    22e4:	0a0000f9 	beq	26d0 <_vfprintf_r+0x1418>
    22e8:	e59d707c 	ldr	r7, [sp, #124]	; 0x7c
    22ec:	e59db05c 	ldr	r11, [sp, #92]	; 0x5c
    22f0:	e3a03030 	mov	r3, #48	; 0x30
    22f4:	e5cd30d7 	strb	r3, [sp, #215]	; 0xd7
    22f8:	e58d7038 	str	r7, [sp, #56]	; 0x38
    22fc:	e58db04c 	str	r11, [sp, #76]	; 0x4c
    2300:	eafffd68 	b	18a8 <_vfprintf_r+0x5f0>
    2304:	e59d7030 	ldr	r7, [sp, #48]	; 0x30
    2308:	e59db020 	ldr	r11, [sp, #32]
    230c:	e06b9007 	rsb	r9, r11, r7
    2310:	e3590000 	cmp	r9, #0
    2314:	daffff16 	ble	1f74 <_vfprintf_r+0xcbc>
    2318:	e3590010 	cmp	r9, #16
    231c:	e59d40a8 	ldr	r4, [sp, #168]	; 0xa8
    2320:	e59f731c 	ldr	r7, [pc, #796]	; 2644 <_vfprintf_r+0x138c>
    2324:	da00001d 	ble	23a0 <_vfprintf_r+0x10e8>
    2328:	e28da0a4 	add	r10, sp, #164	; 0xa4
    232c:	e58d8048 	str	r8, [sp, #72]	; 0x48
    2330:	e3a0b010 	mov	r11, #16
    2334:	e1a0800a 	mov	r8, r10
    2338:	e59da02c 	ldr	r10, [sp, #44]	; 0x2c
    233c:	ea000002 	b	234c <_vfprintf_r+0x1094>
    2340:	e2499010 	sub	r9, r9, #16
    2344:	e3590010 	cmp	r9, #16
    2348:	da000013 	ble	239c <_vfprintf_r+0x10e4>
    234c:	e2844001 	add	r4, r4, #1
    2350:	e3540007 	cmp	r4, #7
    2354:	e2866010 	add	r6, r6, #16
    2358:	e8850880 	stm	r5, {r7, r11}
    235c:	e58d60ac 	str	r6, [sp, #172]	; 0xac
    2360:	e58d40a8 	str	r4, [sp, #168]	; 0xa8
    2364:	d2855008 	addle	r5, r5, #8
    2368:	dafffff4 	ble	2340 <_vfprintf_r+0x1088>
    236c:	e1a0000a 	mov	r0, r10
    2370:	e59d101c 	ldr	r1, [sp, #28]
    2374:	e1a02008 	mov	r2, r8
    2378:	eb003049 	bl	e4a4 <__sprint_r>
    237c:	e3500000 	cmp	r0, #0
    2380:	1afffcb1 	bne	164c <_vfprintf_r+0x394>
    2384:	e2499010 	sub	r9, r9, #16
    2388:	e28d40a8 	add	r4, sp, #168	; 0xa8
    238c:	e3590010 	cmp	r9, #16
    2390:	e8940050 	ldm	r4, {r4, r6}
    2394:	e28d5d05 	add	r5, sp, #320	; 0x140
    2398:	caffffeb 	bgt	234c <_vfprintf_r+0x1094>
    239c:	e59d8048 	ldr	r8, [sp, #72]	; 0x48
    23a0:	e2844001 	add	r4, r4, #1
    23a4:	e0866009 	add	r6, r6, r9
    23a8:	e3540007 	cmp	r4, #7
    23ac:	e8850280 	stm	r5, {r7, r9}
    23b0:	e58d60ac 	str	r6, [sp, #172]	; 0xac
    23b4:	e58d40a8 	str	r4, [sp, #168]	; 0xa8
    23b8:	d2855008 	addle	r5, r5, #8
    23bc:	dafffeec 	ble	1f74 <_vfprintf_r+0xcbc>
    23c0:	e59d002c 	ldr	r0, [sp, #44]	; 0x2c
    23c4:	e59d101c 	ldr	r1, [sp, #28]
    23c8:	e28d20a4 	add	r2, sp, #164	; 0xa4
    23cc:	eb003034 	bl	e4a4 <__sprint_r>
    23d0:	e3500000 	cmp	r0, #0
    23d4:	1afffc9c 	bne	164c <_vfprintf_r+0x394>
    23d8:	e59d60ac 	ldr	r6, [sp, #172]	; 0xac
    23dc:	e28d5d05 	add	r5, sp, #320	; 0x140
    23e0:	eafffee3 	b	1f74 <_vfprintf_r+0xcbc>
    23e4:	e59d4044 	ldr	r4, [sp, #68]	; 0x44
    23e8:	e3540001 	cmp	r4, #1
    23ec:	e59d40a8 	ldr	r4, [sp, #168]	; 0xa8
    23f0:	e2866001 	add	r6, r6, #1
    23f4:	e2844001 	add	r4, r4, #1
    23f8:	da000156 	ble	2958 <_vfprintf_r+0x16a0>
    23fc:	e59dc04c 	ldr	r12, [sp, #76]	; 0x4c
    2400:	e3540007 	cmp	r4, #7
    2404:	e3a03001 	mov	r3, #1
    2408:	e585c000 	str	r12, [r5]
    240c:	e5853004 	str	r3, [r5, #4]
    2410:	e58d60ac 	str	r6, [sp, #172]	; 0xac
    2414:	e58d40a8 	str	r4, [sp, #168]	; 0xa8
    2418:	d2855008 	addle	r5, r5, #8
    241c:	ca000160 	bgt	29a4 <_vfprintf_r+0x16ec>
    2420:	e59d7064 	ldr	r7, [sp, #100]	; 0x64
    2424:	e2844001 	add	r4, r4, #1
    2428:	e59db058 	ldr	r11, [sp, #88]	; 0x58
    242c:	e0866007 	add	r6, r6, r7
    2430:	e3540007 	cmp	r4, #7
    2434:	e585b000 	str	r11, [r5]
    2438:	e5857004 	str	r7, [r5, #4]
    243c:	e58d60ac 	str	r6, [sp, #172]	; 0xac
    2440:	e58d40a8 	str	r4, [sp, #168]	; 0xa8
    2444:	d2855008 	addle	r5, r5, #8
    2448:	ca00015f 	bgt	29cc <_vfprintf_r+0x1714>
    244c:	e28d1068 	add	r1, sp, #104	; 0x68
    2450:	e8910003 	ldm	r1, {r0, r1}
    2454:	e3a02000 	mov	r2, #0
    2458:	e3a03000 	mov	r3, #0
    245c:	eb003f87 	bl	12280 <__aeabi_dcmpeq>
    2460:	e3500000 	cmp	r0, #0
    2464:	e59d7044 	ldr	r7, [sp, #68]	; 0x44
    2468:	1a00009c 	bne	26e0 <_vfprintf_r+0x1428>
    246c:	e59dc04c 	ldr	r12, [sp, #76]	; 0x4c
    2470:	e2473001 	sub	r3, r7, #1
    2474:	e2844001 	add	r4, r4, #1
    2478:	e28c2001 	add	r2, r12, #1
    247c:	e0866003 	add	r6, r6, r3
    2480:	e3540007 	cmp	r4, #7
    2484:	e885000c 	stm	r5, {r2, r3}
    2488:	e58d60ac 	str	r6, [sp, #172]	; 0xac
    248c:	e58d40a8 	str	r4, [sp, #168]	; 0xa8
    2490:	ca00015f 	bgt	2a14 <_vfprintf_r+0x175c>
    2494:	e2855008 	add	r5, r5, #8
    2498:	e59dc070 	ldr	r12, [sp, #112]	; 0x70
    249c:	e2844001 	add	r4, r4, #1
    24a0:	e086600c 	add	r6, r6, r12
    24a4:	e28d3094 	add	r3, sp, #148	; 0x94
    24a8:	e3540007 	cmp	r4, #7
    24ac:	e8851008 	stm	r5, {r3, r12}
    24b0:	e58d60ac 	str	r6, [sp, #172]	; 0xac
    24b4:	e58d40a8 	str	r4, [sp, #168]	; 0xa8
    24b8:	dafffef2 	ble	2088 <_vfprintf_r+0xdd0>
    24bc:	e59d002c 	ldr	r0, [sp, #44]	; 0x2c
    24c0:	e59d101c 	ldr	r1, [sp, #28]
    24c4:	e28d20a4 	add	r2, sp, #164	; 0xa4
    24c8:	eb002ff5 	bl	e4a4 <__sprint_r>
    24cc:	e3500000 	cmp	r0, #0
    24d0:	1afffc5d 	bne	164c <_vfprintf_r+0x394>
    24d4:	e28d5d05 	add	r5, sp, #320	; 0x140
    24d8:	e59d60ac 	ldr	r6, [sp, #172]	; 0xac
    24dc:	eafffeea 	b	208c <_vfprintf_r+0xdd4>
    24e0:	e59dc054 	ldr	r12, [sp, #84]	; 0x54
    24e4:	e58d2038 	str	r2, [sp, #56]	; 0x38
    24e8:	e58dc04c 	str	r12, [sp, #76]	; 0x4c
    24ec:	eafffced 	b	18a8 <_vfprintf_r+0x5f0>
    24f0:	e59d002c 	ldr	r0, [sp, #44]	; 0x2c
    24f4:	e59d101c 	ldr	r1, [sp, #28]
    24f8:	e28d20a4 	add	r2, sp, #164	; 0xa4
    24fc:	eb002fe8 	bl	e4a4 <__sprint_r>
    2500:	e3500000 	cmp	r0, #0
    2504:	1afffc50 	bne	164c <_vfprintf_r+0x394>
    2508:	e59d60ac 	ldr	r6, [sp, #172]	; 0xac
    250c:	e28d5d05 	add	r5, sp, #320	; 0x140
    2510:	eafffe94 	b	1f68 <_vfprintf_r+0xcb0>
    2514:	e59d002c 	ldr	r0, [sp, #44]	; 0x2c
    2518:	e59d101c 	ldr	r1, [sp, #28]
    251c:	e28d20a4 	add	r2, sp, #164	; 0xa4
    2520:	eb002fdf 	bl	e4a4 <__sprint_r>
    2524:	e3500000 	cmp	r0, #0
    2528:	e28db0b0 	add	r11, sp, #176	; 0xb0
    252c:	1afffc46 	bne	164c <_vfprintf_r+0x394>
    2530:	e59d60ac 	ldr	r6, [sp, #172]	; 0xac
    2534:	e28d5d05 	add	r5, sp, #320	; 0x140
    2538:	eafffe7b 	b	1f2c <_vfprintf_r+0xc74>
    253c:	e59d8088 	ldr	r8, [sp, #136]	; 0x88
    2540:	e3580000 	cmp	r8, #0
    2544:	da000215 	ble	2da0 <_vfprintf_r+0x1ae8>
    2548:	e59d4060 	ldr	r4, [sp, #96]	; 0x60
    254c:	e59d7044 	ldr	r7, [sp, #68]	; 0x44
    2550:	e59dc04c 	ldr	r12, [sp, #76]	; 0x4c
    2554:	e1570004 	cmp	r7, r4
    2558:	a1a07004 	movge	r7, r4
    255c:	e59d4044 	ldr	r4, [sp, #68]	; 0x44
    2560:	e3570000 	cmp	r7, #0
    2564:	e08cb004 	add	r11, r12, r4
    2568:	da000009 	ble	2594 <_vfprintf_r+0x12dc>
    256c:	e59d40a8 	ldr	r4, [sp, #168]	; 0xa8
    2570:	e2844001 	add	r4, r4, #1
    2574:	e0866007 	add	r6, r6, r7
    2578:	e3540007 	cmp	r4, #7
    257c:	e585c000 	str	r12, [r5]
    2580:	e5857004 	str	r7, [r5, #4]
    2584:	e58d60ac 	str	r6, [sp, #172]	; 0xac
    2588:	e58d40a8 	str	r4, [sp, #168]	; 0xa8
    258c:	d2855008 	addle	r5, r5, #8
    2590:	ca0002b5 	bgt	306c <_vfprintf_r+0x1db4>
    2594:	e59dc060 	ldr	r12, [sp, #96]	; 0x60
    2598:	e1c77fc7 	bic	r7, r7, r7, asr #31
    259c:	e067a00c 	rsb	r10, r7, r12
    25a0:	e35a0000 	cmp	r10, #0
    25a4:	da000095 	ble	2800 <_vfprintf_r+0x1548>
    25a8:	e35a0010 	cmp	r10, #16
    25ac:	e59d40a8 	ldr	r4, [sp, #168]	; 0xa8
    25b0:	e59f708c 	ldr	r7, [pc, #140]	; 2644 <_vfprintf_r+0x138c>
    25b4:	da000081 	ble	27c0 <_vfprintf_r+0x1508>
    25b8:	e28d80a4 	add	r8, sp, #164	; 0xa4
    25bc:	e58db038 	str	r11, [sp, #56]	; 0x38
    25c0:	e3a09010 	mov	r9, #16
    25c4:	e1a0b00a 	mov	r11, r10
    25c8:	e1a0a008 	mov	r10, r8
    25cc:	e59d802c 	ldr	r8, [sp, #44]	; 0x2c
    25d0:	ea000002 	b	25e0 <_vfprintf_r+0x1328>
    25d4:	e24bb010 	sub	r11, r11, #16
    25d8:	e35b0010 	cmp	r11, #16
    25dc:	da000075 	ble	27b8 <_vfprintf_r+0x1500>
    25e0:	e2844001 	add	r4, r4, #1
    25e4:	e3540007 	cmp	r4, #7
    25e8:	e2866010 	add	r6, r6, #16
    25ec:	e8850280 	stm	r5, {r7, r9}
    25f0:	e58d60ac 	str	r6, [sp, #172]	; 0xac
    25f4:	e58d40a8 	str	r4, [sp, #168]	; 0xa8
    25f8:	d2855008 	addle	r5, r5, #8
    25fc:	dafffff4 	ble	25d4 <_vfprintf_r+0x131c>
    2600:	e1a00008 	mov	r0, r8
    2604:	e59d101c 	ldr	r1, [sp, #28]
    2608:	e1a0200a 	mov	r2, r10
    260c:	eb002fa4 	bl	e4a4 <__sprint_r>
    2610:	e3500000 	cmp	r0, #0
    2614:	1afffc0c 	bne	164c <_vfprintf_r+0x394>
    2618:	e28d40a8 	add	r4, sp, #168	; 0xa8
    261c:	e8940050 	ldm	r4, {r4, r6}
    2620:	e28d5d05 	add	r5, sp, #320	; 0x140
    2624:	eaffffea 	b	25d4 <_vfprintf_r+0x131c>
    2628:	fffffba4 	.word	0xfffffba4
    262c:	0001380c 	.word	0x0001380c
    2630:	0001382c 	.word	0x0001382c
    2634:	00013830 	.word	0x00013830
    2638:	0001383c 	.word	0x0001383c
    263c:	00013850 	.word	0x00013850
    2640:	0001386c 	.word	0x0001386c
    2644:	0001381c 	.word	0x0001381c
    2648:	00013834 	.word	0x00013834
    264c:	00013838 	.word	0x00013838
    2650:	00013864 	.word	0x00013864
    2654:	66666667 	.word	0x66666667
    2658:	e59d9074 	ldr	r9, [sp, #116]	; 0x74
    265c:	e3a0000f 	mov	r0, #15
    2660:	e1a0a226 	lsr	r10, r6, #4
    2664:	e0062000 	and	r2, r6, r0
    2668:	e18aae07 	orr	r10, r10, r7, lsl #28
    266c:	e1a03227 	lsr	r3, r7, #4
    2670:	e0892002 	add	r2, r9, r2
    2674:	e1a07003 	mov	r7, r3
    2678:	e1a0600a 	mov	r6, r10
    267c:	e5d22000 	ldrb	r2, [r2]
    2680:	e196b007 	orrs	r11, r6, r7
    2684:	e1a0300c 	mov	r3, r12
    2688:	e5cc2000 	strb	r2, [r12]
    268c:	e24cc001 	sub	r12, r12, #1
    2690:	1afffff2 	bne	2660 <_vfprintf_r+0x13a8>
    2694:	e59dc054 	ldr	r12, [sp, #84]	; 0x54
    2698:	e063c00c 	rsb	r12, r3, r12
    269c:	e58d304c 	str	r3, [sp, #76]	; 0x4c
    26a0:	e58dc038 	str	r12, [sp, #56]	; 0x38
    26a4:	eafffc7f 	b	18a8 <_vfprintf_r+0x5f0>
    26a8:	e3570000 	cmp	r7, #0
    26ac:	03560009 	cmpeq	r6, #9
    26b0:	8a0000e1 	bhi	2a3c <_vfprintf_r+0x1784>
    26b4:	e2866030 	add	r6, r6, #48	; 0x30
    26b8:	e5cd60d7 	strb	r6, [sp, #215]	; 0xd7
    26bc:	e59d705c 	ldr	r7, [sp, #92]	; 0x5c
    26c0:	e59d607c 	ldr	r6, [sp, #124]	; 0x7c
    26c4:	e58d704c 	str	r7, [sp, #76]	; 0x4c
    26c8:	e58d6038 	str	r6, [sp, #56]	; 0x38
    26cc:	eafffc75 	b	18a8 <_vfprintf_r+0x5f0>
    26d0:	e59d6054 	ldr	r6, [sp, #84]	; 0x54
    26d4:	e58d3038 	str	r3, [sp, #56]	; 0x38
    26d8:	e58d604c 	str	r6, [sp, #76]	; 0x4c
    26dc:	eafffc71 	b	18a8 <_vfprintf_r+0x5f0>
    26e0:	e247a001 	sub	r10, r7, #1
    26e4:	e35a0000 	cmp	r10, #0
    26e8:	daffff6a 	ble	2498 <_vfprintf_r+0x11e0>
    26ec:	e35a0010 	cmp	r10, #16
    26f0:	e51f70b4 	ldr	r7, [pc, #-180]	; 2644 <_vfprintf_r+0x138c>
    26f4:	da0000bf 	ble	29f8 <_vfprintf_r+0x1740>
    26f8:	e28d80a4 	add	r8, sp, #164	; 0xa4
    26fc:	e1a03008 	mov	r3, r8
    2700:	e3a09010 	mov	r9, #16
    2704:	e1a08007 	mov	r8, r7
    2708:	e59db02c 	ldr	r11, [sp, #44]	; 0x2c
    270c:	e1a07003 	mov	r7, r3
    2710:	ea000002 	b	2720 <_vfprintf_r+0x1468>
    2714:	e24aa010 	sub	r10, r10, #16
    2718:	e35a0010 	cmp	r10, #16
    271c:	da0000b4 	ble	29f4 <_vfprintf_r+0x173c>
    2720:	e2844001 	add	r4, r4, #1
    2724:	e3540007 	cmp	r4, #7
    2728:	e2866010 	add	r6, r6, #16
    272c:	e8850300 	stm	r5, {r8, r9}
    2730:	e58d60ac 	str	r6, [sp, #172]	; 0xac
    2734:	e58d40a8 	str	r4, [sp, #168]	; 0xa8
    2738:	d2855008 	addle	r5, r5, #8
    273c:	dafffff4 	ble	2714 <_vfprintf_r+0x145c>
    2740:	e1a0000b 	mov	r0, r11
    2744:	e59d101c 	ldr	r1, [sp, #28]
    2748:	e1a02007 	mov	r2, r7
    274c:	eb002f54 	bl	e4a4 <__sprint_r>
    2750:	e3500000 	cmp	r0, #0
    2754:	1afffbbc 	bne	164c <_vfprintf_r+0x394>
    2758:	e28d40a8 	add	r4, sp, #168	; 0xa8
    275c:	e8940050 	ldm	r4, {r4, r6}
    2760:	e28d5d05 	add	r5, sp, #320	; 0x140
    2764:	eaffffea 	b	2714 <_vfprintf_r+0x145c>
    2768:	e1960007 	orrs	r0, r6, r7
    276c:	159db018 	ldrne	r11, [sp, #24]
    2770:	13a03030 	movne	r3, #48	; 0x30
    2774:	138bb002 	orrne	r11, r11, #2
    2778:	15cd3084 	strbne	r3, [sp, #132]	; 0x84
    277c:	15cd8085 	strbne	r8, [sp, #133]	; 0x85
    2780:	158db018 	strne	r11, [sp, #24]
    2784:	13a02001 	movne	r2, #1
    2788:	03a02000 	moveq	r2, #0
    278c:	e3a03002 	mov	r3, #2
    2790:	eafffcdd 	b	1b0c <_vfprintf_r+0x854>
    2794:	e1a07008 	mov	r7, r8
    2798:	e2844001 	add	r4, r4, #1
    279c:	e086600a 	add	r6, r6, r10
    27a0:	e3540007 	cmp	r4, #7
    27a4:	e8850480 	stm	r5, {r7, r10}
    27a8:	e58d60ac 	str	r6, [sp, #172]	; 0xac
    27ac:	e58d40a8 	str	r4, [sp, #168]	; 0xa8
    27b0:	dafffe34 	ble	2088 <_vfprintf_r+0xdd0>
    27b4:	eaffff40 	b	24bc <_vfprintf_r+0x1204>
    27b8:	e1a0a00b 	mov	r10, r11
    27bc:	e59db038 	ldr	r11, [sp, #56]	; 0x38
    27c0:	e2844001 	add	r4, r4, #1
    27c4:	e086600a 	add	r6, r6, r10
    27c8:	e3540007 	cmp	r4, #7
    27cc:	e8850480 	stm	r5, {r7, r10}
    27d0:	e58d60ac 	str	r6, [sp, #172]	; 0xac
    27d4:	e58d40a8 	str	r4, [sp, #168]	; 0xa8
    27d8:	d2855008 	addle	r5, r5, #8
    27dc:	da000007 	ble	2800 <_vfprintf_r+0x1548>
    27e0:	e59d002c 	ldr	r0, [sp, #44]	; 0x2c
    27e4:	e59d101c 	ldr	r1, [sp, #28]
    27e8:	e28d20a4 	add	r2, sp, #164	; 0xa4
    27ec:	eb002f2c 	bl	e4a4 <__sprint_r>
    27f0:	e3500000 	cmp	r0, #0
    27f4:	1afffb94 	bne	164c <_vfprintf_r+0x394>
    27f8:	e59d60ac 	ldr	r6, [sp, #172]	; 0xac
    27fc:	e28d5d05 	add	r5, sp, #320	; 0x140
    2800:	e59d3088 	ldr	r3, [sp, #136]	; 0x88
    2804:	e59d4044 	ldr	r4, [sp, #68]	; 0x44
    2808:	e59d704c 	ldr	r7, [sp, #76]	; 0x4c
    280c:	e59dc060 	ldr	r12, [sp, #96]	; 0x60
    2810:	e1530004 	cmp	r3, r4
    2814:	e087800c 	add	r8, r7, r12
    2818:	ba000038 	blt	2900 <_vfprintf_r+0x1648>
    281c:	e59d4018 	ldr	r4, [sp, #24]
    2820:	e3140001 	tst	r4, #1
    2824:	1a000035 	bne	2900 <_vfprintf_r+0x1648>
    2828:	e59d4044 	ldr	r4, [sp, #68]	; 0x44
    282c:	e068700b 	rsb	r7, r8, r11
    2830:	e0633004 	rsb	r3, r3, r4
    2834:	e1530007 	cmp	r3, r7
    2838:	b1a07003 	movlt	r7, r3
    283c:	a1a07007 	movge	r7, r7
    2840:	e3570000 	cmp	r7, #0
    2844:	da000009 	ble	2870 <_vfprintf_r+0x15b8>
    2848:	e59d40a8 	ldr	r4, [sp, #168]	; 0xa8
    284c:	e2844001 	add	r4, r4, #1
    2850:	e0866007 	add	r6, r6, r7
    2854:	e3540007 	cmp	r4, #7
    2858:	e5858000 	str	r8, [r5]
    285c:	e5857004 	str	r7, [r5, #4]
    2860:	e58d60ac 	str	r6, [sp, #172]	; 0xac
    2864:	e58d40a8 	str	r4, [sp, #168]	; 0xa8
    2868:	d2855008 	addle	r5, r5, #8
    286c:	ca000208 	bgt	3094 <_vfprintf_r+0x1ddc>
    2870:	e1c77fc7 	bic	r7, r7, r7, asr #31
    2874:	e067a003 	rsb	r10, r7, r3
    2878:	e35a0000 	cmp	r10, #0
    287c:	dafffe02 	ble	208c <_vfprintf_r+0xdd4>
    2880:	e35a0010 	cmp	r10, #16
    2884:	e59d40a8 	ldr	r4, [sp, #168]	; 0xa8
    2888:	e51f724c 	ldr	r7, [pc, #-588]	; 2644 <_vfprintf_r+0x138c>
    288c:	daffffc1 	ble	2798 <_vfprintf_r+0x14e0>
    2890:	e28d80a4 	add	r8, sp, #164	; 0xa4
    2894:	e1a03008 	mov	r3, r8
    2898:	e3a09010 	mov	r9, #16
    289c:	e1a08007 	mov	r8, r7
    28a0:	e59db02c 	ldr	r11, [sp, #44]	; 0x2c
    28a4:	e1a07003 	mov	r7, r3
    28a8:	ea000002 	b	28b8 <_vfprintf_r+0x1600>
    28ac:	e24aa010 	sub	r10, r10, #16
    28b0:	e35a0010 	cmp	r10, #16
    28b4:	daffffb6 	ble	2794 <_vfprintf_r+0x14dc>
    28b8:	e2844001 	add	r4, r4, #1
    28bc:	e3540007 	cmp	r4, #7
    28c0:	e2866010 	add	r6, r6, #16
    28c4:	e8850300 	stm	r5, {r8, r9}
    28c8:	e58d60ac 	str	r6, [sp, #172]	; 0xac
    28cc:	e58d40a8 	str	r4, [sp, #168]	; 0xa8
    28d0:	d2855008 	addle	r5, r5, #8
    28d4:	dafffff4 	ble	28ac <_vfprintf_r+0x15f4>
    28d8:	e1a0000b 	mov	r0, r11
    28dc:	e59d101c 	ldr	r1, [sp, #28]
    28e0:	e1a02007 	mov	r2, r7
    28e4:	eb002eee 	bl	e4a4 <__sprint_r>
    28e8:	e3500000 	cmp	r0, #0
    28ec:	1afffb56 	bne	164c <_vfprintf_r+0x394>
    28f0:	e28d40a8 	add	r4, sp, #168	; 0xa8
    28f4:	e8940050 	ldm	r4, {r4, r6}
    28f8:	e28d5d05 	add	r5, sp, #320	; 0x140
    28fc:	eaffffea 	b	28ac <_vfprintf_r+0x15f4>
    2900:	e59d40a8 	ldr	r4, [sp, #168]	; 0xa8
    2904:	e59d7064 	ldr	r7, [sp, #100]	; 0x64
    2908:	e2844001 	add	r4, r4, #1
    290c:	e59dc058 	ldr	r12, [sp, #88]	; 0x58
    2910:	e0866007 	add	r6, r6, r7
    2914:	e3540007 	cmp	r4, #7
    2918:	e585c000 	str	r12, [r5]
    291c:	e5857004 	str	r7, [r5, #4]
    2920:	e58d60ac 	str	r6, [sp, #172]	; 0xac
    2924:	e58d40a8 	str	r4, [sp, #168]	; 0xa8
    2928:	d2855008 	addle	r5, r5, #8
    292c:	daffffbd 	ble	2828 <_vfprintf_r+0x1570>
    2930:	e59d002c 	ldr	r0, [sp, #44]	; 0x2c
    2934:	e59d101c 	ldr	r1, [sp, #28]
    2938:	e28d20a4 	add	r2, sp, #164	; 0xa4
    293c:	eb002ed8 	bl	e4a4 <__sprint_r>
    2940:	e3500000 	cmp	r0, #0
    2944:	1afffb40 	bne	164c <_vfprintf_r+0x394>
    2948:	e59d3088 	ldr	r3, [sp, #136]	; 0x88
    294c:	e59d60ac 	ldr	r6, [sp, #172]	; 0xac
    2950:	e28d5d05 	add	r5, sp, #320	; 0x140
    2954:	eaffffb3 	b	2828 <_vfprintf_r+0x1570>
    2958:	e59d7018 	ldr	r7, [sp, #24]
    295c:	e3170001 	tst	r7, #1
    2960:	1afffea5 	bne	23fc <_vfprintf_r+0x1144>
    2964:	e59d704c 	ldr	r7, [sp, #76]	; 0x4c
    2968:	e3a03001 	mov	r3, #1
    296c:	e3540007 	cmp	r4, #7
    2970:	e5857000 	str	r7, [r5]
    2974:	e5853004 	str	r3, [r5, #4]
    2978:	e58d60ac 	str	r6, [sp, #172]	; 0xac
    297c:	e58d40a8 	str	r4, [sp, #168]	; 0xa8
    2980:	dafffec3 	ble	2494 <_vfprintf_r+0x11dc>
    2984:	e59d002c 	ldr	r0, [sp, #44]	; 0x2c
    2988:	e59d101c 	ldr	r1, [sp, #28]
    298c:	e28d20a4 	add	r2, sp, #164	; 0xa4
    2990:	eb002ec3 	bl	e4a4 <__sprint_r>
    2994:	e3500000 	cmp	r0, #0
    2998:	e28db0b0 	add	r11, sp, #176	; 0xb0
    299c:	0a000022 	beq	2a2c <_vfprintf_r+0x1774>
    29a0:	eafffb29 	b	164c <_vfprintf_r+0x394>
    29a4:	e59d002c 	ldr	r0, [sp, #44]	; 0x2c
    29a8:	e59d101c 	ldr	r1, [sp, #28]
    29ac:	e28d20a4 	add	r2, sp, #164	; 0xa4
    29b0:	eb002ebb 	bl	e4a4 <__sprint_r>
    29b4:	e3500000 	cmp	r0, #0
    29b8:	1afffb23 	bne	164c <_vfprintf_r+0x394>
    29bc:	e28d40a8 	add	r4, sp, #168	; 0xa8
    29c0:	e8940050 	ldm	r4, {r4, r6}
    29c4:	e28d5d05 	add	r5, sp, #320	; 0x140
    29c8:	eafffe94 	b	2420 <_vfprintf_r+0x1168>
    29cc:	e59d002c 	ldr	r0, [sp, #44]	; 0x2c
    29d0:	e59d101c 	ldr	r1, [sp, #28]
    29d4:	e28d20a4 	add	r2, sp, #164	; 0xa4
    29d8:	eb002eb1 	bl	e4a4 <__sprint_r>
    29dc:	e3500000 	cmp	r0, #0
    29e0:	1afffb19 	bne	164c <_vfprintf_r+0x394>
    29e4:	e28d40a8 	add	r4, sp, #168	; 0xa8
    29e8:	e8940050 	ldm	r4, {r4, r6}
    29ec:	e28d5d05 	add	r5, sp, #320	; 0x140
    29f0:	eafffe95 	b	244c <_vfprintf_r+0x1194>
    29f4:	e1a07008 	mov	r7, r8
    29f8:	e2844001 	add	r4, r4, #1
    29fc:	e086600a 	add	r6, r6, r10
    2a00:	e3540007 	cmp	r4, #7
    2a04:	e8850480 	stm	r5, {r7, r10}
    2a08:	e58d60ac 	str	r6, [sp, #172]	; 0xac
    2a0c:	e58d40a8 	str	r4, [sp, #168]	; 0xa8
    2a10:	dafffe9f 	ble	2494 <_vfprintf_r+0x11dc>
    2a14:	e59d002c 	ldr	r0, [sp, #44]	; 0x2c
    2a18:	e59d101c 	ldr	r1, [sp, #28]
    2a1c:	e28d20a4 	add	r2, sp, #164	; 0xa4
    2a20:	eb002e9f 	bl	e4a4 <__sprint_r>
    2a24:	e3500000 	cmp	r0, #0
    2a28:	1afffb07 	bne	164c <_vfprintf_r+0x394>
    2a2c:	e28d40a8 	add	r4, sp, #168	; 0xa8
    2a30:	e28d5d05 	add	r5, sp, #320	; 0x140
    2a34:	e8940050 	ldm	r4, {r4, r6}
    2a38:	eafffe96 	b	2498 <_vfprintf_r+0x11e0>
    2a3c:	e59da05c 	ldr	r10, [sp, #92]	; 0x5c
    2a40:	e1a00006 	mov	r0, r6
    2a44:	e1a01007 	mov	r1, r7
    2a48:	e3a0200a 	mov	r2, #10
    2a4c:	e3a03000 	mov	r3, #0
    2a50:	eb003ec1 	bl	1255c <__aeabi_uldivmod>
    2a54:	e2822030 	add	r2, r2, #48	; 0x30
    2a58:	e5ca2000 	strb	r2, [r10]
    2a5c:	e1a00006 	mov	r0, r6
    2a60:	e1a01007 	mov	r1, r7
    2a64:	e3a0200a 	mov	r2, #10
    2a68:	e3a03000 	mov	r3, #0
    2a6c:	eb003eba 	bl	1255c <__aeabi_uldivmod>
    2a70:	e1a06000 	mov	r6, r0
    2a74:	e1a07001 	mov	r7, r1
    2a78:	e196b007 	orrs	r11, r6, r7
    2a7c:	e1a0900a 	mov	r9, r10
    2a80:	e24aa001 	sub	r10, r10, #1
    2a84:	1affffed 	bne	2a40 <_vfprintf_r+0x1788>
    2a88:	e59dc054 	ldr	r12, [sp, #84]	; 0x54
    2a8c:	e069c00c 	rsb	r12, r9, r12
    2a90:	e58d904c 	str	r9, [sp, #76]	; 0x4c
    2a94:	e58dc038 	str	r12, [sp, #56]	; 0x38
    2a98:	eafffb82 	b	18a8 <_vfprintf_r+0x5f0>
    2a9c:	e3520030 	cmp	r2, #48	; 0x30
    2aa0:	13a02030 	movne	r2, #48	; 0x30
    2aa4:	059db054 	ldreq	r11, [sp, #84]	; 0x54
    2aa8:	15432001 	strbne	r2, [r3, #-1]
    2aac:	059dc04c 	ldreq	r12, [sp, #76]	; 0x4c
    2ab0:	159d3054 	ldrne	r3, [sp, #84]	; 0x54
    2ab4:	006cb00b 	rsbeq	r11, r12, r11
    2ab8:	106c3003 	rsbne	r3, r12, r3
    2abc:	058db038 	streq	r11, [sp, #56]	; 0x38
    2ac0:	158dc04c 	strne	r12, [sp, #76]	; 0x4c
    2ac4:	158d3038 	strne	r3, [sp, #56]	; 0x38
    2ac8:	eafffb76 	b	18a8 <_vfprintf_r+0x5f0>
    2acc:	e2766000 	rsbs	r6, r6, #0
    2ad0:	e2e77000 	rsc	r7, r7, #0
    2ad4:	e3a0302d 	mov	r3, #45	; 0x2d
    2ad8:	e1962007 	orrs	r2, r6, r7
    2adc:	e5cd3083 	strb	r3, [sp, #131]	; 0x83
    2ae0:	03a02000 	moveq	r2, #0
    2ae4:	13a02001 	movne	r2, #1
    2ae8:	e3a03001 	mov	r3, #1
    2aec:	eafffb4b 	b	1820 <_vfprintf_r+0x568>
    2af0:	e5d38000 	ldrb	r8, [r3]
    2af4:	eafffa52 	b	1444 <_vfprintf_r+0x18c>
    2af8:	eb001c90 	bl	9d40 <__fpclassifyd>
    2afc:	e3500000 	cmp	r0, #0
    2b00:	0a000111 	beq	2f4c <_vfprintf_r+0x1c94>
    2b04:	e3740001 	cmn	r4, #1
    2b08:	e3c89020 	bic	r9, r8, #32
    2b0c:	03a04006 	moveq	r4, #6
    2b10:	0a000003 	beq	2b24 <_vfprintf_r+0x186c>
    2b14:	e3590047 	cmp	r9, #71	; 0x47
    2b18:	1a000001 	bne	2b24 <_vfprintf_r+0x186c>
    2b1c:	e3540000 	cmp	r4, #0
    2b20:	03a04001 	moveq	r4, #1
    2b24:	e59d6018 	ldr	r6, [sp, #24]
    2b28:	e3570000 	cmp	r7, #0
    2b2c:	e3866c01 	orr	r6, r6, #256	; 0x100
    2b30:	b2877102 	addlt	r7, r7, #-2147483648	; 0x80000000
    2b34:	b3a0b02d 	movlt	r11, #45	; 0x2d
    2b38:	a3a0b000 	movge	r11, #0
    2b3c:	e2593046 	subs	r3, r9, #70	; 0x46
    2b40:	e58d6040 	str	r6, [sp, #64]	; 0x40
    2b44:	e2736000 	rsbs	r6, r3, #0
    2b48:	e0b66003 	adcs	r6, r6, r3
    2b4c:	e3560000 	cmp	r6, #0
    2b50:	1a00016a 	bne	3100 <_vfprintf_r+0x1e48>
    2b54:	e3590045 	cmp	r9, #69	; 0x45
    2b58:	1a0001c4 	bne	3270 <_vfprintf_r+0x1fb8>
    2b5c:	e28d3090 	add	r3, sp, #144	; 0x90
    2b60:	e58da020 	str	r10, [sp, #32]
    2b64:	e2846001 	add	r6, r4, #1
    2b68:	e28d1088 	add	r1, sp, #136	; 0x88
    2b6c:	e28d208c 	add	r2, sp, #140	; 0x8c
    2b70:	e58d7024 	str	r7, [sp, #36]	; 0x24
    2b74:	e3a00002 	mov	r0, #2
    2b78:	e88d0041 	stm	sp, {r0, r6}
    2b7c:	e58d200c 	str	r2, [sp, #12]
    2b80:	e58d3010 	str	r3, [sp, #16]
    2b84:	e58d1008 	str	r1, [sp, #8]
    2b88:	e59d002c 	ldr	r0, [sp, #44]	; 0x2c
    2b8c:	e28d3020 	add	r3, sp, #32
    2b90:	e893000c 	ldm	r3, {r2, r3}
    2b94:	eb00092b 	bl	5048 <_dtoa_r>
    2b98:	e58d004c 	str	r0, [sp, #76]	; 0x4c
    2b9c:	e0806006 	add	r6, r0, r6
    2ba0:	e1a0000a 	mov	r0, r10
    2ba4:	e1a01007 	mov	r1, r7
    2ba8:	e3a02000 	mov	r2, #0
    2bac:	e3a03000 	mov	r3, #0
    2bb0:	eb003db2 	bl	12280 <__aeabi_dcmpeq>
    2bb4:	e3500000 	cmp	r0, #0
    2bb8:	1a000008 	bne	2be0 <_vfprintf_r+0x1928>
    2bbc:	e59d3090 	ldr	r3, [sp, #144]	; 0x90
    2bc0:	e1560003 	cmp	r6, r3
    2bc4:	91a06003 	movls	r6, r3
    2bc8:	9a000004 	bls	2be0 <_vfprintf_r+0x1928>
    2bcc:	e3a02030 	mov	r2, #48	; 0x30
    2bd0:	e4c32001 	strb	r2, [r3], #1
    2bd4:	e1530006 	cmp	r3, r6
    2bd8:	e58d3090 	str	r3, [sp, #144]	; 0x90
    2bdc:	1afffffb 	bne	2bd0 <_vfprintf_r+0x1918>
    2be0:	e59d704c 	ldr	r7, [sp, #76]	; 0x4c
    2be4:	e3590047 	cmp	r9, #71	; 0x47
    2be8:	e0676006 	rsb	r6, r7, r6
    2bec:	e58d6044 	str	r6, [sp, #68]	; 0x44
    2bf0:	0a000163 	beq	3184 <_vfprintf_r+0x1ecc>
    2bf4:	e3580065 	cmp	r8, #101	; 0x65
    2bf8:	da000201 	ble	3404 <_vfprintf_r+0x214c>
    2bfc:	e3580066 	cmp	r8, #102	; 0x66
    2c00:	e59d3088 	ldr	r3, [sp, #136]	; 0x88
    2c04:	0a0001a5 	beq	32a0 <_vfprintf_r+0x1fe8>
    2c08:	e59dc044 	ldr	r12, [sp, #68]	; 0x44
    2c0c:	e153000c 	cmp	r3, r12
    2c10:	ba000198 	blt	3278 <_vfprintf_r+0x1fc0>
    2c14:	e59d4018 	ldr	r4, [sp, #24]
    2c18:	e3140001 	tst	r4, #1
    2c1c:	12837001 	addne	r7, r3, #1
    2c20:	01c36fc3 	biceq	r6, r3, r3, asr #31
    2c24:	11c7cfc7 	bicne	r12, r7, r7, asr #31
    2c28:	058d6020 	streq	r6, [sp, #32]
    2c2c:	058d3038 	streq	r3, [sp, #56]	; 0x38
    2c30:	158d7038 	strne	r7, [sp, #56]	; 0x38
    2c34:	158dc020 	strne	r12, [sp, #32]
    2c38:	e3a08067 	mov	r8, #103	; 0x67
    2c3c:	e58d3060 	str	r3, [sp, #96]	; 0x60
    2c40:	e35b0000 	cmp	r11, #0
    2c44:	0a000128 	beq	30ec <_vfprintf_r+0x1e34>
    2c48:	e59db040 	ldr	r11, [sp, #64]	; 0x40
    2c4c:	e3a0302d 	mov	r3, #45	; 0x2d
    2c50:	e3a0c000 	mov	r12, #0
    2c54:	e5cd3083 	strb	r3, [sp, #131]	; 0x83
    2c58:	e58db018 	str	r11, [sp, #24]
    2c5c:	e58dc040 	str	r12, [sp, #64]	; 0x40
    2c60:	eafffb1a 	b	18d0 <_vfprintf_r+0x618>
    2c64:	e59dc03c 	ldr	r12, [sp, #60]	; 0x3c
    2c68:	e28c1007 	add	r1, r12, #7
    2c6c:	e3c11007 	bic	r1, r1, #7
    2c70:	e591a000 	ldr	r10, [r1]
    2c74:	e5917004 	ldr	r7, [r1, #4]
    2c78:	e2811008 	add	r1, r1, #8
    2c7c:	e58d103c 	str	r1, [sp, #60]	; 0x3c
    2c80:	e1a0000a 	mov	r0, r10
    2c84:	e1a01007 	mov	r1, r7
    2c88:	e58d0068 	str	r0, [sp, #104]	; 0x68
    2c8c:	e58d106c 	str	r1, [sp, #108]	; 0x6c
    2c90:	eafffb6a 	b	1a40 <_vfprintf_r+0x788>
    2c94:	e59d7018 	ldr	r7, [sp, #24]
    2c98:	e3170010 	tst	r7, #16
    2c9c:	1a000009 	bne	2cc8 <_vfprintf_r+0x1a10>
    2ca0:	e59d4018 	ldr	r4, [sp, #24]
    2ca4:	e3140040 	tst	r4, #64	; 0x40
    2ca8:	0a000006 	beq	2cc8 <_vfprintf_r+0x1a10>
    2cac:	e59d603c 	ldr	r6, [sp, #60]	; 0x3c
    2cb0:	e59d7034 	ldr	r7, [sp, #52]	; 0x34
    2cb4:	e5963000 	ldr	r3, [r6]
    2cb8:	e2866004 	add	r6, r6, #4
    2cbc:	e58d603c 	str	r6, [sp, #60]	; 0x3c
    2cc0:	e1c370b0 	strh	r7, [r3]
    2cc4:	eafff9b3 	b	1398 <_vfprintf_r+0xe0>
    2cc8:	e59db03c 	ldr	r11, [sp, #60]	; 0x3c
    2ccc:	e59dc034 	ldr	r12, [sp, #52]	; 0x34
    2cd0:	e59b3000 	ldr	r3, [r11]
    2cd4:	e28bb004 	add	r11, r11, #4
    2cd8:	e58db03c 	str	r11, [sp, #60]	; 0x3c
    2cdc:	e583c000 	str	r12, [r3]
    2ce0:	eafff9ac 	b	1398 <_vfprintf_r+0xe0>
    2ce4:	e59dc018 	ldr	r12, [sp, #24]
    2ce8:	e31c0040 	tst	r12, #64	; 0x40
    2cec:	0a00008d 	beq	2f28 <_vfprintf_r+0x1c70>
    2cf0:	e59d603c 	ldr	r6, [sp, #60]	; 0x3c
    2cf4:	e1d630f0 	ldrsh	r3, [r6]
    2cf8:	eafffc4a 	b	1e28 <_vfprintf_r+0xb70>
    2cfc:	e59dc018 	ldr	r12, [sp, #24]
    2d00:	e31c0040 	tst	r12, #64	; 0x40
    2d04:	0a000080 	beq	2f0c <_vfprintf_r+0x1c54>
    2d08:	e59d603c 	ldr	r6, [sp, #60]	; 0x3c
    2d0c:	e59db03c 	ldr	r11, [sp, #60]	; 0x3c
    2d10:	e1d630b0 	ldrh	r3, [r6]
    2d14:	e28bb004 	add	r11, r11, #4
    2d18:	e1a06003 	mov	r6, r3
    2d1c:	e3a07000 	mov	r7, #0
    2d20:	e58db03c 	str	r11, [sp, #60]	; 0x3c
    2d24:	eafffb99 	b	1b90 <_vfprintf_r+0x8d8>
    2d28:	e59dc018 	ldr	r12, [sp, #24]
    2d2c:	e31c0040 	tst	r12, #64	; 0x40
    2d30:	0a00006b 	beq	2ee4 <_vfprintf_r+0x1c2c>
    2d34:	e59d603c 	ldr	r6, [sp, #60]	; 0x3c
    2d38:	e1d620b0 	ldrh	r2, [r6]
    2d3c:	eafffc17 	b	1da0 <_vfprintf_r+0xae8>
    2d40:	e59dc018 	ldr	r12, [sp, #24]
    2d44:	e21c3040 	ands	r3, r12, #64	; 0x40
    2d48:	0a00005c 	beq	2ec0 <_vfprintf_r+0x1c08>
    2d4c:	e59d603c 	ldr	r6, [sp, #60]	; 0x3c
    2d50:	e59db03c 	ldr	r11, [sp, #60]	; 0x3c
    2d54:	e1d620b0 	ldrh	r2, [r6]
    2d58:	e3a07000 	mov	r7, #0
    2d5c:	e1a06002 	mov	r6, r2
    2d60:	e28bb004 	add	r11, r11, #4
    2d64:	e0522007 	subs	r2, r2, r7
    2d68:	13a02001 	movne	r2, #1
    2d6c:	e58db03c 	str	r11, [sp, #60]	; 0x3c
    2d70:	e1a03001 	mov	r3, r1
    2d74:	eafffb64 	b	1b0c <_vfprintf_r+0x854>
    2d78:	e59d002c 	ldr	r0, [sp, #44]	; 0x2c
    2d7c:	e59d101c 	ldr	r1, [sp, #28]
    2d80:	e28d20a4 	add	r2, sp, #164	; 0xa4
    2d84:	eb002dc6 	bl	e4a4 <__sprint_r>
    2d88:	e3500000 	cmp	r0, #0
    2d8c:	e28d40b0 	add	r4, sp, #176	; 0xb0
    2d90:	1afffa2d 	bne	164c <_vfprintf_r+0x394>
    2d94:	e59d60ac 	ldr	r6, [sp, #172]	; 0xac
    2d98:	e28d5d05 	add	r5, sp, #320	; 0x140
    2d9c:	eafffd16 	b	21fc <_vfprintf_r+0xf44>
    2da0:	e59d40a8 	ldr	r4, [sp, #168]	; 0xa8
    2da4:	e51f376c 	ldr	r3, [pc, #-1900]	; 2640 <_vfprintf_r+0x1388>
    2da8:	e2844001 	add	r4, r4, #1
    2dac:	e5853000 	str	r3, [r5]
    2db0:	e2866001 	add	r6, r6, #1
    2db4:	e3540007 	cmp	r4, #7
    2db8:	e3a03001 	mov	r3, #1
    2dbc:	e5853004 	str	r3, [r5, #4]
    2dc0:	e58d60ac 	str	r6, [sp, #172]	; 0xac
    2dc4:	e58d40a8 	str	r4, [sp, #168]	; 0xa8
    2dc8:	d2855008 	addle	r5, r5, #8
    2dcc:	ca000074 	bgt	2fa4 <_vfprintf_r+0x1cec>
    2dd0:	e3580000 	cmp	r8, #0
    2dd4:	0a00006b 	beq	2f88 <_vfprintf_r+0x1cd0>
    2dd8:	e59d40a8 	ldr	r4, [sp, #168]	; 0xa8
    2ddc:	e59dc064 	ldr	r12, [sp, #100]	; 0x64
    2de0:	e2844001 	add	r4, r4, #1
    2de4:	e59d7058 	ldr	r7, [sp, #88]	; 0x58
    2de8:	e086600c 	add	r6, r6, r12
    2dec:	e3540007 	cmp	r4, #7
    2df0:	e8851080 	stm	r5, {r7, r12}
    2df4:	e58d60ac 	str	r6, [sp, #172]	; 0xac
    2df8:	e58d40a8 	str	r4, [sp, #168]	; 0xa8
    2dfc:	d2855008 	addle	r5, r5, #8
    2e00:	ca00010e 	bgt	3240 <_vfprintf_r+0x1f88>
    2e04:	e2688000 	rsb	r8, r8, #0
    2e08:	e3580000 	cmp	r8, #0
    2e0c:	da00008a 	ble	303c <_vfprintf_r+0x1d84>
    2e10:	e3580010 	cmp	r8, #16
    2e14:	e51f77d8 	ldr	r7, [pc, #-2008]	; 2644 <_vfprintf_r+0x138c>
    2e18:	da000076 	ble	2ff8 <_vfprintf_r+0x1d40>
    2e1c:	e3a0a010 	mov	r10, #16
    2e20:	e28d90a4 	add	r9, sp, #164	; 0xa4
    2e24:	e59db02c 	ldr	r11, [sp, #44]	; 0x2c
    2e28:	ea000002 	b	2e38 <_vfprintf_r+0x1b80>
    2e2c:	e2488010 	sub	r8, r8, #16
    2e30:	e3580010 	cmp	r8, #16
    2e34:	da00006f 	ble	2ff8 <_vfprintf_r+0x1d40>
    2e38:	e2844001 	add	r4, r4, #1
    2e3c:	e3540007 	cmp	r4, #7
    2e40:	e2866010 	add	r6, r6, #16
    2e44:	e8850480 	stm	r5, {r7, r10}
    2e48:	e58d60ac 	str	r6, [sp, #172]	; 0xac
    2e4c:	e58d40a8 	str	r4, [sp, #168]	; 0xa8
    2e50:	d2855008 	addle	r5, r5, #8
    2e54:	dafffff4 	ble	2e2c <_vfprintf_r+0x1b74>
    2e58:	e1a0000b 	mov	r0, r11
    2e5c:	e59d101c 	ldr	r1, [sp, #28]
    2e60:	e1a02009 	mov	r2, r9
    2e64:	eb002d8e 	bl	e4a4 <__sprint_r>
    2e68:	e3500000 	cmp	r0, #0
    2e6c:	1afff9f6 	bne	164c <_vfprintf_r+0x394>
    2e70:	e28d40a8 	add	r4, sp, #168	; 0xa8
    2e74:	e8940050 	ldm	r4, {r4, r6}
    2e78:	e28d5d05 	add	r5, sp, #320	; 0x140
    2e7c:	eaffffea 	b	2e2c <_vfprintf_r+0x1b74>
    2e80:	e59d30ac 	ldr	r3, [sp, #172]	; 0xac
    2e84:	e3530000 	cmp	r3, #0
    2e88:	e59d901c 	ldr	r9, [sp, #28]
    2e8c:	0afff9ef 	beq	1650 <_vfprintf_r+0x398>
    2e90:	e59d002c 	ldr	r0, [sp, #44]	; 0x2c
    2e94:	e1a01009 	mov	r1, r9
    2e98:	e28d20a4 	add	r2, sp, #164	; 0xa4
    2e9c:	eb002d80 	bl	e4a4 <__sprint_r>
    2ea0:	eafff9ea 	b	1650 <_vfprintf_r+0x398>
    2ea4:	e59db038 	ldr	r11, [sp, #56]	; 0x38
    2ea8:	e1cbbfcb 	bic	r11, r11, r11, asr #31
    2eac:	e58db020 	str	r11, [sp, #32]
    2eb0:	e5dd3083 	ldrb	r3, [sp, #131]	; 0x83
    2eb4:	e58d703c 	str	r7, [sp, #60]	; 0x3c
    2eb8:	e58d6060 	str	r6, [sp, #96]	; 0x60
    2ebc:	eafffa81 	b	18c8 <_vfprintf_r+0x610>
    2ec0:	e59dc03c 	ldr	r12, [sp, #60]	; 0x3c
    2ec4:	e59c2000 	ldr	r2, [r12]
    2ec8:	e3a07000 	mov	r7, #0
    2ecc:	e1a06002 	mov	r6, r2
    2ed0:	e28cc004 	add	r12, r12, #4
    2ed4:	e0522007 	subs	r2, r2, r7
    2ed8:	13a02001 	movne	r2, #1
    2edc:	e58dc03c 	str	r12, [sp, #60]	; 0x3c
    2ee0:	eafffb09 	b	1b0c <_vfprintf_r+0x854>
    2ee4:	e59dc03c 	ldr	r12, [sp, #60]	; 0x3c
    2ee8:	e59c2000 	ldr	r2, [r12]
    2eec:	e3a07000 	mov	r7, #0
    2ef0:	e1a06002 	mov	r6, r2
    2ef4:	e28cc004 	add	r12, r12, #4
    2ef8:	e0522007 	subs	r2, r2, r7
    2efc:	13a02001 	movne	r2, #1
    2f00:	e58dc03c 	str	r12, [sp, #60]	; 0x3c
    2f04:	e3a03001 	mov	r3, #1
    2f08:	eafffaff 	b	1b0c <_vfprintf_r+0x854>
    2f0c:	e59dc03c 	ldr	r12, [sp, #60]	; 0x3c
    2f10:	e59c3000 	ldr	r3, [r12]
    2f14:	e28cc004 	add	r12, r12, #4
    2f18:	e1a06003 	mov	r6, r3
    2f1c:	e3a07000 	mov	r7, #0
    2f20:	e58dc03c 	str	r12, [sp, #60]	; 0x3c
    2f24:	eafffb19 	b	1b90 <_vfprintf_r+0x8d8>
    2f28:	e59dc03c 	ldr	r12, [sp, #60]	; 0x3c
    2f2c:	e59c3000 	ldr	r3, [r12]
    2f30:	e28cc004 	add	r12, r12, #4
    2f34:	e1a07fc3 	asr	r7, r3, #31
    2f38:	e1a06003 	mov	r6, r3
    2f3c:	e1a02003 	mov	r2, r3
    2f40:	e58dc03c 	str	r12, [sp, #60]	; 0x3c
    2f44:	e1a03007 	mov	r3, r7
    2f48:	eafffa2d 	b	1804 <_vfprintf_r+0x54c>
    2f4c:	e51f390c 	ldr	r3, [pc, #-2316]	; 2648 <_vfprintf_r+0x1390>
    2f50:	e59dc018 	ldr	r12, [sp, #24]
    2f54:	e51f2910 	ldr	r2, [pc, #-2320]	; 264c <_vfprintf_r+0x1394>
    2f58:	e3580047 	cmp	r8, #71	; 0x47
    2f5c:	e3a0b003 	mov	r11, #3
    2f60:	d1a02003 	movle	r2, r3
    2f64:	e3ccc080 	bic	r12, r12, #128	; 0x80
    2f68:	e58db020 	str	r11, [sp, #32]
    2f6c:	e58d0040 	str	r0, [sp, #64]	; 0x40
    2f70:	e58d204c 	str	r2, [sp, #76]	; 0x4c
    2f74:	e58dc018 	str	r12, [sp, #24]
    2f78:	e5dd3083 	ldrb	r3, [sp, #131]	; 0x83
    2f7c:	e58db038 	str	r11, [sp, #56]	; 0x38
    2f80:	e58d0060 	str	r0, [sp, #96]	; 0x60
    2f84:	eafffa4f 	b	18c8 <_vfprintf_r+0x610>
    2f88:	e59d7044 	ldr	r7, [sp, #68]	; 0x44
    2f8c:	e3570000 	cmp	r7, #0
    2f90:	1affff90 	bne	2dd8 <_vfprintf_r+0x1b20>
    2f94:	e59db018 	ldr	r11, [sp, #24]
    2f98:	e31b0001 	tst	r11, #1
    2f9c:	0afffc3a 	beq	208c <_vfprintf_r+0xdd4>
    2fa0:	eaffff8c 	b	2dd8 <_vfprintf_r+0x1b20>
    2fa4:	e59d002c 	ldr	r0, [sp, #44]	; 0x2c
    2fa8:	e59d101c 	ldr	r1, [sp, #28]
    2fac:	e28d20a4 	add	r2, sp, #164	; 0xa4
    2fb0:	eb002d3b 	bl	e4a4 <__sprint_r>
    2fb4:	e3500000 	cmp	r0, #0
    2fb8:	e28d40b0 	add	r4, sp, #176	; 0xb0
    2fbc:	1afff9a2 	bne	164c <_vfprintf_r+0x394>
    2fc0:	e59d8088 	ldr	r8, [sp, #136]	; 0x88
    2fc4:	e59d60ac 	ldr	r6, [sp, #172]	; 0xac
    2fc8:	e28d5d05 	add	r5, sp, #320	; 0x140
    2fcc:	eaffff7f 	b	2dd0 <_vfprintf_r+0x1b18>
    2fd0:	e59d002c 	ldr	r0, [sp, #44]	; 0x2c
    2fd4:	e59d101c 	ldr	r1, [sp, #28]
    2fd8:	e28d20a4 	add	r2, sp, #164	; 0xa4
    2fdc:	eb002d30 	bl	e4a4 <__sprint_r>
    2fe0:	e3500000 	cmp	r0, #0
    2fe4:	e28db0b0 	add	r11, sp, #176	; 0xb0
    2fe8:	1afff997 	bne	164c <_vfprintf_r+0x394>
    2fec:	e59d60ac 	ldr	r6, [sp, #172]	; 0xac
    2ff0:	e28d5d05 	add	r5, sp, #320	; 0x140
    2ff4:	eafffc92 	b	2244 <_vfprintf_r+0xf8c>
    2ff8:	e2844001 	add	r4, r4, #1
    2ffc:	e0866008 	add	r6, r6, r8
    3000:	e3540007 	cmp	r4, #7
    3004:	e8850180 	stm	r5, {r7, r8}
    3008:	e58d60ac 	str	r6, [sp, #172]	; 0xac
    300c:	e58d40a8 	str	r4, [sp, #168]	; 0xa8
    3010:	d2855008 	addle	r5, r5, #8
    3014:	da000008 	ble	303c <_vfprintf_r+0x1d84>
    3018:	e59d002c 	ldr	r0, [sp, #44]	; 0x2c
    301c:	e59d101c 	ldr	r1, [sp, #28]
    3020:	e28d20a4 	add	r2, sp, #164	; 0xa4
    3024:	eb002d1e 	bl	e4a4 <__sprint_r>
    3028:	e3500000 	cmp	r0, #0
    302c:	1afff986 	bne	164c <_vfprintf_r+0x394>
    3030:	e28d40a8 	add	r4, sp, #168	; 0xa8
    3034:	e8940050 	ldm	r4, {r4, r6}
    3038:	e28d5d05 	add	r5, sp, #320	; 0x140
    303c:	e2844001 	add	r4, r4, #1
    3040:	e59d7044 	ldr	r7, [sp, #68]	; 0x44
    3044:	eafffc07 	b	2068 <_vfprintf_r+0xdb0>
    3048:	ebfff882 	bl	1258 <strlen>
    304c:	e1c0cfc0 	bic	r12, r0, r0, asr #31
    3050:	e58d0038 	str	r0, [sp, #56]	; 0x38
    3054:	e58d6040 	str	r6, [sp, #64]	; 0x40
    3058:	e58dc020 	str	r12, [sp, #32]
    305c:	e5dd3083 	ldrb	r3, [sp, #131]	; 0x83
    3060:	e58d703c 	str	r7, [sp, #60]	; 0x3c
    3064:	e58d6060 	str	r6, [sp, #96]	; 0x60
    3068:	eafffa16 	b	18c8 <_vfprintf_r+0x610>
    306c:	e59d002c 	ldr	r0, [sp, #44]	; 0x2c
    3070:	e59d101c 	ldr	r1, [sp, #28]
    3074:	e28d20a4 	add	r2, sp, #164	; 0xa4
    3078:	eb002d09 	bl	e4a4 <__sprint_r>
    307c:	e3500000 	cmp	r0, #0
    3080:	e28d60b0 	add	r6, sp, #176	; 0xb0
    3084:	1afff970 	bne	164c <_vfprintf_r+0x394>
    3088:	e59d60ac 	ldr	r6, [sp, #172]	; 0xac
    308c:	e28d5d05 	add	r5, sp, #320	; 0x140
    3090:	eafffd3f 	b	2594 <_vfprintf_r+0x12dc>
    3094:	e59d002c 	ldr	r0, [sp, #44]	; 0x2c
    3098:	e59d101c 	ldr	r1, [sp, #28]
    309c:	e28d20a4 	add	r2, sp, #164	; 0xa4
    30a0:	eb002cff 	bl	e4a4 <__sprint_r>
    30a4:	e3500000 	cmp	r0, #0
    30a8:	e28d60b0 	add	r6, sp, #176	; 0xb0
    30ac:	1afff966 	bne	164c <_vfprintf_r+0x394>
    30b0:	e59d3088 	ldr	r3, [sp, #136]	; 0x88
    30b4:	e59db044 	ldr	r11, [sp, #68]	; 0x44
    30b8:	e59d60ac 	ldr	r6, [sp, #172]	; 0xac
    30bc:	e063300b 	rsb	r3, r3, r11
    30c0:	e28d5d05 	add	r5, sp, #320	; 0x140
    30c4:	eafffde9 	b	2870 <_vfprintf_r+0x15b8>
    30c8:	e3540006 	cmp	r4, #6
    30cc:	23a04006 	movcs	r4, #6
    30d0:	e1c4cfc4 	bic	r12, r4, r4, asr #31
    30d4:	e58d4038 	str	r4, [sp, #56]	; 0x38
    30d8:	e51f4a90 	ldr	r4, [pc, #-2704]	; 2650 <_vfprintf_r+0x1398>
    30dc:	e58dc020 	str	r12, [sp, #32]
    30e0:	e58d703c 	str	r7, [sp, #60]	; 0x3c
    30e4:	e58d404c 	str	r4, [sp, #76]	; 0x4c
    30e8:	eafffb0a 	b	1d18 <_vfprintf_r+0xa60>
    30ec:	e59d6040 	ldr	r6, [sp, #64]	; 0x40
    30f0:	e5dd3083 	ldrb	r3, [sp, #131]	; 0x83
    30f4:	e58d6018 	str	r6, [sp, #24]
    30f8:	e58db040 	str	r11, [sp, #64]	; 0x40
    30fc:	eafff9f1 	b	18c8 <_vfprintf_r+0x610>
    3100:	e3a02003 	mov	r2, #3
    3104:	e28d3090 	add	r3, sp, #144	; 0x90
    3108:	e58da020 	str	r10, [sp, #32]
    310c:	e28d0088 	add	r0, sp, #136	; 0x88
    3110:	e28d108c 	add	r1, sp, #140	; 0x8c
    3114:	e58d7024 	str	r7, [sp, #36]	; 0x24
    3118:	e88d0014 	stm	sp, {r2, r4}
    311c:	e58d0008 	str	r0, [sp, #8]
    3120:	e58d3010 	str	r3, [sp, #16]
    3124:	e58d100c 	str	r1, [sp, #12]
    3128:	e59d002c 	ldr	r0, [sp, #44]	; 0x2c
    312c:	e28d3020 	add	r3, sp, #32
    3130:	e893000c 	ldm	r3, {r2, r3}
    3134:	eb0007c3 	bl	5048 <_dtoa_r>
    3138:	e3590047 	cmp	r9, #71	; 0x47
    313c:	e58d004c 	str	r0, [sp, #76]	; 0x4c
    3140:	1a000002 	bne	3150 <_vfprintf_r+0x1e98>
    3144:	e59dc018 	ldr	r12, [sp, #24]
    3148:	e31c0001 	tst	r12, #1
    314c:	0a000009 	beq	3178 <_vfprintf_r+0x1ec0>
    3150:	e59dc04c 	ldr	r12, [sp, #76]	; 0x4c
    3154:	e3560000 	cmp	r6, #0
    3158:	e08c6004 	add	r6, r12, r4
    315c:	0afffe8f 	beq	2ba0 <_vfprintf_r+0x18e8>
    3160:	e5dc3000 	ldrb	r3, [r12]
    3164:	e3530030 	cmp	r3, #48	; 0x30
    3168:	0a000075 	beq	3344 <_vfprintf_r+0x208c>
    316c:	e59d3088 	ldr	r3, [sp, #136]	; 0x88
    3170:	e0866003 	add	r6, r6, r3
    3174:	eafffe89 	b	2ba0 <_vfprintf_r+0x18e8>
    3178:	e59d3090 	ldr	r3, [sp, #144]	; 0x90
    317c:	e0603003 	rsb	r3, r0, r3
    3180:	e58d3044 	str	r3, [sp, #68]	; 0x44
    3184:	e59d0088 	ldr	r0, [sp, #136]	; 0x88
    3188:	e3700003 	cmn	r0, #3
    318c:	e1a03000 	mov	r3, r0
    3190:	ba000001 	blt	319c <_vfprintf_r+0x1ee4>
    3194:	e1540000 	cmp	r4, r0
    3198:	aafffe9a 	bge	2c08 <_vfprintf_r+0x1950>
    319c:	e2488002 	sub	r8, r8, #2
    31a0:	e2400001 	sub	r0, r0, #1
    31a4:	e3500000 	cmp	r0, #0
    31a8:	e58d0088 	str	r0, [sp, #136]	; 0x88
    31ac:	b2600000 	rsblt	r0, r0, #0
    31b0:	b3a0302d 	movlt	r3, #45	; 0x2d
    31b4:	a3a0302b 	movge	r3, #43	; 0x2b
    31b8:	e3500009 	cmp	r0, #9
    31bc:	e5cd8094 	strb	r8, [sp, #148]	; 0x94
    31c0:	e5cd3095 	strb	r3, [sp, #149]	; 0x95
    31c4:	ca000040 	bgt	32cc <_vfprintf_r+0x2014>
    31c8:	e2800030 	add	r0, r0, #48	; 0x30
    31cc:	e3a02030 	mov	r2, #48	; 0x30
    31d0:	e28d30a0 	add	r3, sp, #160	; 0xa0
    31d4:	e5cd0097 	strb	r0, [sp, #151]	; 0x97
    31d8:	e5cd2096 	strb	r2, [sp, #150]	; 0x96
    31dc:	e2432008 	sub	r2, r3, #8
    31e0:	e59d6044 	ldr	r6, [sp, #68]	; 0x44
    31e4:	e243300c 	sub	r3, r3, #12
    31e8:	e0633002 	rsb	r3, r3, r2
    31ec:	e0867003 	add	r7, r6, r3
    31f0:	e3560001 	cmp	r6, #1
    31f4:	e58d3070 	str	r3, [sp, #112]	; 0x70
    31f8:	e58d7038 	str	r7, [sp, #56]	; 0x38
    31fc:	da000072 	ble	33cc <_vfprintf_r+0x2114>
    3200:	e59d6038 	ldr	r6, [sp, #56]	; 0x38
    3204:	e2866001 	add	r6, r6, #1
    3208:	e1c67fc6 	bic	r7, r6, r6, asr #31
    320c:	e3a0c000 	mov	r12, #0
    3210:	e58d6038 	str	r6, [sp, #56]	; 0x38
    3214:	e58d7020 	str	r7, [sp, #32]
    3218:	e58dc060 	str	r12, [sp, #96]	; 0x60
    321c:	eafffe87 	b	2c40 <_vfprintf_r+0x1988>
    3220:	e1c46fc4 	bic	r6, r4, r4, asr #31
    3224:	e58d0040 	str	r0, [sp, #64]	; 0x40
    3228:	e58d6020 	str	r6, [sp, #32]
    322c:	e5dd3083 	ldrb	r3, [sp, #131]	; 0x83
    3230:	e58d703c 	str	r7, [sp, #60]	; 0x3c
    3234:	e58d4038 	str	r4, [sp, #56]	; 0x38
    3238:	e58d0060 	str	r0, [sp, #96]	; 0x60
    323c:	eafff9a1 	b	18c8 <_vfprintf_r+0x610>
    3240:	e59d002c 	ldr	r0, [sp, #44]	; 0x2c
    3244:	e59d101c 	ldr	r1, [sp, #28]
    3248:	e28d20a4 	add	r2, sp, #164	; 0xa4
    324c:	eb002c94 	bl	e4a4 <__sprint_r>
    3250:	e3500000 	cmp	r0, #0
    3254:	e28db0b0 	add	r11, sp, #176	; 0xb0
    3258:	1afff8fb 	bne	164c <_vfprintf_r+0x394>
    325c:	e28d40a8 	add	r4, sp, #168	; 0xa8
    3260:	e59d8088 	ldr	r8, [sp, #136]	; 0x88
    3264:	e8940050 	ldm	r4, {r4, r6}
    3268:	e28d5d05 	add	r5, sp, #320	; 0x140
    326c:	eafffee4 	b	2e04 <_vfprintf_r+0x1b4c>
    3270:	e3a02002 	mov	r2, #2
    3274:	eaffffa2 	b	3104 <_vfprintf_r+0x1e4c>
    3278:	e3530000 	cmp	r3, #0
    327c:	e59d4044 	ldr	r4, [sp, #68]	; 0x44
    3280:	d2632002 	rsble	r2, r3, #2
    3284:	c3a02001 	movgt	r2, #1
    3288:	e0822004 	add	r2, r2, r4
    328c:	e1c26fc2 	bic	r6, r2, r2, asr #31
    3290:	e58d2038 	str	r2, [sp, #56]	; 0x38
    3294:	e58d6020 	str	r6, [sp, #32]
    3298:	e3a08067 	mov	r8, #103	; 0x67
    329c:	eafffe66 	b	2c3c <_vfprintf_r+0x1984>
    32a0:	e3530000 	cmp	r3, #0
    32a4:	da000036 	ble	3384 <_vfprintf_r+0x20cc>
    32a8:	e3540000 	cmp	r4, #0
    32ac:	1a00002e 	bne	336c <_vfprintf_r+0x20b4>
    32b0:	e59d6018 	ldr	r6, [sp, #24]
    32b4:	e3160001 	tst	r6, #1
    32b8:	1a00002b 	bne	336c <_vfprintf_r+0x20b4>
    32bc:	e1c37fc3 	bic	r7, r3, r3, asr #31
    32c0:	e58d7020 	str	r7, [sp, #32]
    32c4:	e58d3038 	str	r3, [sp, #56]	; 0x38
    32c8:	eafffe5b 	b	2c3c <_vfprintf_r+0x1984>
    32cc:	e28d30a0 	add	r3, sp, #160	; 0xa0
    32d0:	e2832002 	add	r2, r3, #2
    32d4:	e51f1c88 	ldr	r1, [pc, #-3208]	; 2654 <_vfprintf_r+0x139c>
    32d8:	e0cc4091 	smull	r4, r12, r1, r0
    32dc:	e1a01fc0 	asr	r1, r0, #31
    32e0:	e061114c 	rsb	r1, r1, r12, asr #2
    32e4:	e081c101 	add	r12, r1, r1, lsl #2
    32e8:	e040c08c 	sub	r12, r0, r12, lsl #1
    32ec:	e1a00001 	mov	r0, r1
    32f0:	e3500009 	cmp	r0, #9
    32f4:	e1a01002 	mov	r1, r2
    32f8:	e28c2030 	add	r2, r12, #48	; 0x30
    32fc:	e5c12000 	strb	r2, [r1]
    3300:	e2412001 	sub	r2, r1, #1
    3304:	cafffff2 	bgt	32d4 <_vfprintf_r+0x201c>
    3308:	e2834003 	add	r4, r3, #3
    330c:	e2800030 	add	r0, r0, #48	; 0x30
    3310:	e1540002 	cmp	r4, r2
    3314:	e5410001 	strb	r0, [r1, #-1]
    3318:	9a000037 	bls	33fc <_vfprintf_r+0x2144>
    331c:	e243c00b 	sub	r12, r3, #11
    3320:	e1a02001 	mov	r2, r1
    3324:	ea000000 	b	332c <_vfprintf_r+0x2074>
    3328:	e4d20001 	ldrb	r0, [r2], #1
    332c:	e1520004 	cmp	r2, r4
    3330:	e5ec0001 	strb	r0, [r12, #1]!
    3334:	1afffffb 	bne	3328 <_vfprintf_r+0x2070>
    3338:	e0612083 	rsb	r2, r1, r3, lsl #1
    333c:	e2422006 	sub	r2, r2, #6
    3340:	eaffffa6 	b	31e0 <_vfprintf_r+0x1f28>
    3344:	e3a03000 	mov	r3, #0
    3348:	e1a0000a 	mov	r0, r10
    334c:	e1a01007 	mov	r1, r7
    3350:	e3a02000 	mov	r2, #0
    3354:	eb003bc9 	bl	12280 <__aeabi_dcmpeq>
    3358:	e3500000 	cmp	r0, #0
    335c:	02643001 	rsbeq	r3, r4, #1
    3360:	058d3088 	streq	r3, [sp, #136]	; 0x88
    3364:	0affff81 	beq	3170 <_vfprintf_r+0x1eb8>
    3368:	eaffff7f 	b	316c <_vfprintf_r+0x1eb4>
    336c:	e2844001 	add	r4, r4, #1
    3370:	e0834004 	add	r4, r3, r4
    3374:	e1c4cfc4 	bic	r12, r4, r4, asr #31
    3378:	e58d4038 	str	r4, [sp, #56]	; 0x38
    337c:	e58dc020 	str	r12, [sp, #32]
    3380:	eafffe2d 	b	2c3c <_vfprintf_r+0x1984>
    3384:	e3540000 	cmp	r4, #0
    3388:	1a000016 	bne	33e8 <_vfprintf_r+0x2130>
    338c:	e59d6018 	ldr	r6, [sp, #24]
    3390:	e3160001 	tst	r6, #1
    3394:	1a000013 	bne	33e8 <_vfprintf_r+0x2130>
    3398:	e3a07001 	mov	r7, #1
    339c:	e58d7020 	str	r7, [sp, #32]
    33a0:	e58d7038 	str	r7, [sp, #56]	; 0x38
    33a4:	eafffe24 	b	2c3c <_vfprintf_r+0x1984>
    33a8:	e59db03c 	ldr	r11, [sp, #60]	; 0x3c
    33ac:	e59b4000 	ldr	r4, [r11]
    33b0:	e28b0004 	add	r0, r11, #4
    33b4:	e3540000 	cmp	r4, #0
    33b8:	e5d38001 	ldrb	r8, [r3, #1]
    33bc:	e58d003c 	str	r0, [sp, #60]	; 0x3c
    33c0:	e1a0300c 	mov	r3, r12
    33c4:	b3e04000 	mvnlt	r4, #0
    33c8:	eafff81d 	b	1444 <_vfprintf_r+0x18c>
    33cc:	e59dc018 	ldr	r12, [sp, #24]
    33d0:	e21c3001 	ands	r3, r12, #1
    33d4:	1affff89 	bne	3200 <_vfprintf_r+0x1f48>
    33d8:	e1c74fc7 	bic	r4, r7, r7, asr #31
    33dc:	e58d4020 	str	r4, [sp, #32]
    33e0:	e58d3060 	str	r3, [sp, #96]	; 0x60
    33e4:	eafffe15 	b	2c40 <_vfprintf_r+0x1988>
    33e8:	e2844002 	add	r4, r4, #2
    33ec:	e1c47fc4 	bic	r7, r4, r4, asr #31
    33f0:	e58d4038 	str	r4, [sp, #56]	; 0x38
    33f4:	e58d7020 	str	r7, [sp, #32]
    33f8:	eafffe0f 	b	2c3c <_vfprintf_r+0x1984>
    33fc:	e243200a 	sub	r2, r3, #10
    3400:	eaffff76 	b	31e0 <_vfprintf_r+0x1f28>
    3404:	e59d0088 	ldr	r0, [sp, #136]	; 0x88
    3408:	eaffff64 	b	31a0 <_vfprintf_r+0x1ee8>

0000340c <vfprintf>:
    340c:	e52d4004 	push	{r4}		; (str r4, [sp, #-4]!)
    3410:	e1a03002 	mov	r3, r2
    3414:	e59f2018 	ldr	r2, [pc, #24]	; 3434 <vfprintf+0x28>
    3418:	e1a04000 	mov	r4, r0
    341c:	e1a0c001 	mov	r12, r1
    3420:	e5920000 	ldr	r0, [r2]
    3424:	e1a01004 	mov	r1, r4
    3428:	e1a0200c 	mov	r2, r12
    342c:	e8bd0010 	ldmfd	sp!, {r4}
    3430:	eafff7a0 	b	12b8 <_vfprintf_r>
    3434:	00013c00 	.word	0x00013c00

00003438 <__svfscanf_r>:
    3438:	e92d4ff0 	push	{r4, r5, r6, r7, r8, r9, r10, r11, lr}
    343c:	e24ddfaf 	sub	sp, sp, #700	; 0x2bc
    3440:	e1a04001 	mov	r4, r1
    3444:	e1a05002 	mov	r5, r2
    3448:	e58d3014 	str	r3, [sp, #20]
    344c:	e1a0b000 	mov	r11, r0
    3450:	eb000de4 	bl	6be8 <__sfp_lock_acquire>
    3454:	e1d430bc 	ldrh	r3, [r4, #12]
    3458:	e3130a02 	tst	r3, #8192	; 0x2000
    345c:	05942064 	ldreq	r2, [r4, #100]	; 0x64
    3460:	e3a0c000 	mov	r12, #0
    3464:	03c22a02 	biceq	r2, r2, #8192	; 0x2000
    3468:	03833a02 	orreq	r3, r3, #8192	; 0x2000
    346c:	05842064 	streq	r2, [r4, #100]	; 0x64
    3470:	01c430bc 	strheq	r3, [r4, #12]
    3474:	e1a02005 	mov	r2, r5
    3478:	e58dc01c 	str	r12, [sp, #28]
    347c:	e58dc024 	str	r12, [sp, #36]	; 0x24
    3480:	e58dc020 	str	r12, [sp, #32]
    3484:	e59f5fc0 	ldr	r5, [pc, #4032]	; 444c <__svfscanf_r+0x1014>
    3488:	e1a0900c 	mov	r9, r12
    348c:	e1a08002 	mov	r8, r2
    3490:	e4d83001 	ldrb	r3, [r8], #1
    3494:	e3530000 	cmp	r3, #0
    3498:	e58d3044 	str	r3, [sp, #68]	; 0x44
    349c:	0a0000c6 	beq	37bc <__svfscanf_r+0x384>
    34a0:	e5951000 	ldr	r1, [r5]
    34a4:	e0810003 	add	r0, r1, r3
    34a8:	e5d07001 	ldrb	r7, [r0, #1]
    34ac:	e2177008 	ands	r7, r7, #8
    34b0:	0a000016 	beq	3510 <__svfscanf_r+0xd8>
    34b4:	e5943004 	ldr	r3, [r4, #4]
    34b8:	ea00000b 	b	34ec <__svfscanf_r+0xb4>
    34bc:	e5942000 	ldr	r2, [r4]
    34c0:	e5951000 	ldr	r1, [r5]
    34c4:	e5d23000 	ldrb	r3, [r2]
    34c8:	e0813003 	add	r3, r1, r3
    34cc:	e5d33001 	ldrb	r3, [r3, #1]
    34d0:	e3130008 	tst	r3, #8
    34d4:	0a00000b 	beq	3508 <__svfscanf_r+0xd0>
    34d8:	e5943004 	ldr	r3, [r4, #4]
    34dc:	e2822001 	add	r2, r2, #1
    34e0:	e2433001 	sub	r3, r3, #1
    34e4:	e884000c 	stm	r4, {r2, r3}
    34e8:	e2899001 	add	r9, r9, #1
    34ec:	e3530000 	cmp	r3, #0
    34f0:	cafffff1 	bgt	34bc <__svfscanf_r+0x84>
    34f4:	e1a0000b 	mov	r0, r11
    34f8:	e1a01004 	mov	r1, r4
    34fc:	eb0019a6 	bl	9b9c <__srefill_r>
    3500:	e3500000 	cmp	r0, #0
    3504:	0affffec 	beq	34bc <__svfscanf_r+0x84>
    3508:	e1a02008 	mov	r2, r8
    350c:	eaffffde 	b	348c <__svfscanf_r+0x54>
    3510:	e3530025 	cmp	r3, #37	; 0x25
    3514:	0a00000f 	beq	3558 <__svfscanf_r+0x120>
    3518:	e5943004 	ldr	r3, [r4, #4]
    351c:	e3530000 	cmp	r3, #0
    3520:	da00008b 	ble	3754 <__svfscanf_r+0x31c>
    3524:	e5943000 	ldr	r3, [r4]
    3528:	e5582001 	ldrb	r2, [r8, #-1]
    352c:	e5d31000 	ldrb	r1, [r3]
    3530:	e1510002 	cmp	r1, r2
    3534:	1a0000a0 	bne	37bc <__svfscanf_r+0x384>
    3538:	e5942004 	ldr	r2, [r4, #4]
    353c:	e2833001 	add	r3, r3, #1
    3540:	e2422001 	sub	r2, r2, #1
    3544:	e5842004 	str	r2, [r4, #4]
    3548:	e5843000 	str	r3, [r4]
    354c:	e2899001 	add	r9, r9, #1
    3550:	e1a02008 	mov	r2, r8
    3554:	eaffffcc 	b	348c <__svfscanf_r+0x54>
    3558:	e5d23001 	ldrb	r3, [r2, #1]
    355c:	e1a06007 	mov	r6, r7
    3560:	e2882001 	add	r2, r8, #1
    3564:	e3530078 	cmp	r3, #120	; 0x78
    3568:	979ff103 	ldrls	pc, [pc, r3, lsl #2]
    356c:	ea0002df 	b	40f0 <__svfscanf_r+0xcb8>
    3570:	00004140 	.word	0x00004140
    3574:	000040f0 	.word	0x000040f0
    3578:	000040f0 	.word	0x000040f0
    357c:	000040f0 	.word	0x000040f0
    3580:	000040f0 	.word	0x000040f0
    3584:	000040f0 	.word	0x000040f0
    3588:	000040f0 	.word	0x000040f0
    358c:	000040f0 	.word	0x000040f0
    3590:	000040f0 	.word	0x000040f0
    3594:	000040f0 	.word	0x000040f0
    3598:	000040f0 	.word	0x000040f0
    359c:	000040f0 	.word	0x000040f0
    35a0:	000040f0 	.word	0x000040f0
    35a4:	000040f0 	.word	0x000040f0
    35a8:	000040f0 	.word	0x000040f0
    35ac:	000040f0 	.word	0x000040f0
    35b0:	000040f0 	.word	0x000040f0
    35b4:	000040f0 	.word	0x000040f0
    35b8:	000040f0 	.word	0x000040f0
    35bc:	000040f0 	.word	0x000040f0
    35c0:	000040f0 	.word	0x000040f0
    35c4:	000040f0 	.word	0x000040f0
    35c8:	000040f0 	.word	0x000040f0
    35cc:	000040f0 	.word	0x000040f0
    35d0:	000040f0 	.word	0x000040f0
    35d4:	000040f0 	.word	0x000040f0
    35d8:	000040f0 	.word	0x000040f0
    35dc:	000040f0 	.word	0x000040f0
    35e0:	000040f0 	.word	0x000040f0
    35e4:	000040f0 	.word	0x000040f0
    35e8:	000040f0 	.word	0x000040f0
    35ec:	000040f0 	.word	0x000040f0
    35f0:	000040f0 	.word	0x000040f0
    35f4:	000040f0 	.word	0x000040f0
    35f8:	000040f0 	.word	0x000040f0
    35fc:	000040f0 	.word	0x000040f0
    3600:	000040f0 	.word	0x000040f0
    3604:	00004150 	.word	0x00004150
    3608:	000040f0 	.word	0x000040f0
    360c:	000040f0 	.word	0x000040f0
    3610:	000040f0 	.word	0x000040f0
    3614:	000040f0 	.word	0x000040f0
    3618:	0000415c 	.word	0x0000415c
    361c:	000040f0 	.word	0x000040f0
    3620:	000040f0 	.word	0x000040f0
    3624:	000040f0 	.word	0x000040f0
    3628:	000040f0 	.word	0x000040f0
    362c:	000040f0 	.word	0x000040f0
    3630:	0000416c 	.word	0x0000416c
    3634:	0000416c 	.word	0x0000416c
    3638:	0000416c 	.word	0x0000416c
    363c:	0000416c 	.word	0x0000416c
    3640:	0000416c 	.word	0x0000416c
    3644:	0000416c 	.word	0x0000416c
    3648:	0000416c 	.word	0x0000416c
    364c:	0000416c 	.word	0x0000416c
    3650:	0000416c 	.word	0x0000416c
    3654:	0000416c 	.word	0x0000416c
    3658:	000040f0 	.word	0x000040f0
    365c:	000040f0 	.word	0x000040f0
    3660:	000040f0 	.word	0x000040f0
    3664:	000040f0 	.word	0x000040f0
    3668:	000040f0 	.word	0x000040f0
    366c:	000040f0 	.word	0x000040f0
    3670:	000040f0 	.word	0x000040f0
    3674:	000040f0 	.word	0x000040f0
    3678:	000040f0 	.word	0x000040f0
    367c:	000040f0 	.word	0x000040f0
    3680:	00004184 	.word	0x00004184
    3684:	00004190 	.word	0x00004190
    3688:	000040f0 	.word	0x000040f0
    368c:	00004190 	.word	0x00004190
    3690:	000040f0 	.word	0x000040f0
    3694:	000040f0 	.word	0x000040f0
    3698:	000040f0 	.word	0x000040f0
    369c:	000040f0 	.word	0x000040f0
    36a0:	0000419c 	.word	0x0000419c
    36a4:	000040f0 	.word	0x000040f0
    36a8:	000040f0 	.word	0x000040f0
    36ac:	000041ac 	.word	0x000041ac
    36b0:	000040f0 	.word	0x000040f0
    36b4:	000040f0 	.word	0x000040f0
    36b8:	000040f0 	.word	0x000040f0
    36bc:	000040f0 	.word	0x000040f0
    36c0:	000040f0 	.word	0x000040f0
    36c4:	000040f0 	.word	0x000040f0
    36c8:	000040f0 	.word	0x000040f0
    36cc:	000040f0 	.word	0x000040f0
    36d0:	000041cc 	.word	0x000041cc
    36d4:	000040f0 	.word	0x000040f0
    36d8:	000040f0 	.word	0x000040f0
    36dc:	000041ec 	.word	0x000041ec
    36e0:	000040f0 	.word	0x000040f0
    36e4:	000040f0 	.word	0x000040f0
    36e8:	000040f0 	.word	0x000040f0
    36ec:	000040f0 	.word	0x000040f0
    36f0:	000040f0 	.word	0x000040f0
    36f4:	000040f0 	.word	0x000040f0
    36f8:	000040f0 	.word	0x000040f0
    36fc:	0000420c 	.word	0x0000420c
    3700:	0000421c 	.word	0x0000421c
    3704:	00004190 	.word	0x00004190
    3708:	00004190 	.word	0x00004190
    370c:	00004190 	.word	0x00004190
    3710:	00004224 	.word	0x00004224
    3714:	00004234 	.word	0x00004234
    3718:	000040f0 	.word	0x000040f0
    371c:	000040f0 	.word	0x000040f0
    3720:	00004250 	.word	0x00004250
    3724:	000040f0 	.word	0x000040f0
    3728:	00004270 	.word	0x00004270
    372c:	000042a0 	.word	0x000042a0
    3730:	000042a8 	.word	0x000042a8
    3734:	000040f0 	.word	0x000040f0
    3738:	000040f0 	.word	0x000040f0
    373c:	000042b4 	.word	0x000042b4
    3740:	000040f0 	.word	0x000040f0
    3744:	000037d0 	.word	0x000037d0
    3748:	000040f0 	.word	0x000040f0
    374c:	000040f0 	.word	0x000040f0
    3750:	000041cc 	.word	0x000041cc
    3754:	e1a0000b 	mov	r0, r11
    3758:	e1a01004 	mov	r1, r4
    375c:	eb00190e 	bl	9b9c <__srefill_r>
    3760:	e3500000 	cmp	r0, #0
    3764:	0affff6e 	beq	3524 <__svfscanf_r+0xec>
    3768:	eb000d1f 	bl	6bec <__sfp_lock_release>
    376c:	e59dc020 	ldr	r12, [sp, #32]
    3770:	e35c0000 	cmp	r12, #0
    3774:	0a000002 	beq	3784 <__svfscanf_r+0x34c>
    3778:	e1d430bc 	ldrh	r3, [r4, #12]
    377c:	e3130040 	tst	r3, #64	; 0x40
    3780:	0a00000e 	beq	37c0 <__svfscanf_r+0x388>
    3784:	e3e0c000 	mvn	r12, #0
    3788:	e58dc020 	str	r12, [sp, #32]
    378c:	ea00000b 	b	37c0 <__svfscanf_r+0x388>
    3790:	e59dc02c 	ldr	r12, [sp, #44]	; 0x2c
    3794:	e15a000c 	cmp	r10, r12
    3798:	9a000007 	bls	37bc <__svfscanf_r+0x384>
    379c:	e1a0500a 	mov	r5, r10
    37a0:	e5751001 	ldrb	r1, [r5, #-1]!
    37a4:	e1a0000b 	mov	r0, r11
    37a8:	e1a02004 	mov	r2, r4
    37ac:	eb002ad7 	bl	e310 <_ungetc_r>
    37b0:	e59dc02c 	ldr	r12, [sp, #44]	; 0x2c
    37b4:	e155000c 	cmp	r5, r12
    37b8:	1afffff8 	bne	37a0 <__svfscanf_r+0x368>
    37bc:	eb000d0a 	bl	6bec <__sfp_lock_release>
    37c0:	e59d0020 	ldr	r0, [sp, #32]
    37c4:	e28ddfaf 	add	sp, sp, #700	; 0x2bc
    37c8:	e8bd4ff0 	pop	{r4, r5, r6, r7, r8, r9, r10, r11, lr}
    37cc:	e12fff1e 	bx	lr
    37d0:	e59fcc88 	ldr	r12, [pc, #3208]	; 4460 <__svfscanf_r+0x1028>
    37d4:	e58dc01c 	str	r12, [sp, #28]
    37d8:	e3a0c00a 	mov	r12, #10
    37dc:	e58d2018 	str	r2, [sp, #24]
    37e0:	e58dc024 	str	r12, [sp, #36]	; 0x24
    37e4:	e3a08003 	mov	r8, #3
    37e8:	e5943004 	ldr	r3, [r4, #4]
    37ec:	e3530000 	cmp	r3, #0
    37f0:	da00024c 	ble	4128 <__svfscanf_r+0xcf0>
    37f4:	e3170040 	tst	r7, #64	; 0x40
    37f8:	0a00000c 	beq	3830 <__svfscanf_r+0x3f8>
    37fc:	e2488001 	sub	r8, r8, #1
    3800:	e3580003 	cmp	r8, #3
    3804:	979ff108 	ldrls	pc, [pc, r8, lsl #2]
    3808:	ea0000a8 	b	3ab0 <__svfscanf_r+0x678>
    380c:	00003cb0 	.word	0x00003cb0
    3810:	00003a04 	.word	0x00003a04
    3814:	00003874 	.word	0x00003874
    3818:	00003b14 	.word	0x00003b14
    381c:	e1a0000b 	mov	r0, r11
    3820:	e1a01004 	mov	r1, r4
    3824:	eb0018dc 	bl	9b9c <__srefill_r>
    3828:	e3500000 	cmp	r0, #0
    382c:	1affffcd 	bne	3768 <__svfscanf_r+0x330>
    3830:	e5951000 	ldr	r1, [r5]
    3834:	e5943000 	ldr	r3, [r4]
    3838:	ea000001 	b	3844 <__svfscanf_r+0x40c>
    383c:	e2833001 	add	r3, r3, #1
    3840:	e5843000 	str	r3, [r4]
    3844:	e5d32000 	ldrb	r2, [r3]
    3848:	e0812002 	add	r2, r1, r2
    384c:	e5d22001 	ldrb	r2, [r2, #1]
    3850:	e3120008 	tst	r2, #8
    3854:	0affffe8 	beq	37fc <__svfscanf_r+0x3c4>
    3858:	e5942004 	ldr	r2, [r4, #4]
    385c:	e2422001 	sub	r2, r2, #1
    3860:	e3520000 	cmp	r2, #0
    3864:	e5842004 	str	r2, [r4, #4]
    3868:	e2899001 	add	r9, r9, #1
    386c:	cafffff2 	bgt	383c <__svfscanf_r+0x404>
    3870:	eaffffe9 	b	381c <__svfscanf_r+0x3e4>
    3874:	e2463001 	sub	r3, r6, #1
    3878:	e3530f57 	cmp	r3, #348	; 0x15c
    387c:	82463f57 	subhi	r3, r6, #348	; 0x15c
    3880:	e28dcf56 	add	r12, sp, #344	; 0x158
    3884:	82433001 	subhi	r3, r3, #1
    3888:	93a03000 	movls	r3, #0
    388c:	e3a0a000 	mov	r10, #0
    3890:	e58dc02c 	str	r12, [sp, #44]	; 0x2c
    3894:	e1a0800c 	mov	r8, r12
    3898:	859f6bb0 	ldrhi	r6, [pc, #2992]	; 4450 <__svfscanf_r+0x1018>
    389c:	e1a0c009 	mov	r12, r9
    38a0:	e1a09003 	mov	r9, r3
    38a4:	e1a0300b 	mov	r3, r11
    38a8:	e1a0b00a 	mov	r11, r10
    38ac:	e59da024 	ldr	r10, [sp, #36]	; 0x24
    38b0:	e3877d36 	orr	r7, r7, #3456	; 0xd80
    38b4:	e5940000 	ldr	r0, [r4]
    38b8:	e5d01000 	ldrb	r1, [r0]
    38bc:	e241202b 	sub	r2, r1, #43	; 0x2b
    38c0:	e352004d 	cmp	r2, #77	; 0x4d
    38c4:	979ff102 	ldrls	pc, [pc, r2, lsl #2]
    38c8:	ea000125 	b	3d64 <__svfscanf_r+0x92c>
    38cc:	00003df4 	.word	0x00003df4
    38d0:	00003d64 	.word	0x00003d64
    38d4:	00003df4 	.word	0x00003df4
    38d8:	00003d64 	.word	0x00003d64
    38dc:	00003d64 	.word	0x00003d64
    38e0:	00003e18 	.word	0x00003e18
    38e4:	00003e04 	.word	0x00003e04
    38e8:	00003e04 	.word	0x00003e04
    38ec:	00003e04 	.word	0x00003e04
    38f0:	00003e04 	.word	0x00003e04
    38f4:	00003e04 	.word	0x00003e04
    38f8:	00003e04 	.word	0x00003e04
    38fc:	00003e04 	.word	0x00003e04
    3900:	00003ddc 	.word	0x00003ddc
    3904:	00003ddc 	.word	0x00003ddc
    3908:	00003d64 	.word	0x00003d64
    390c:	00003d64 	.word	0x00003d64
    3910:	00003d64 	.word	0x00003d64
    3914:	00003d64 	.word	0x00003d64
    3918:	00003d64 	.word	0x00003d64
    391c:	00003d64 	.word	0x00003d64
    3920:	00003d64 	.word	0x00003d64
    3924:	00003dcc 	.word	0x00003dcc
    3928:	00003dcc 	.word	0x00003dcc
    392c:	00003dcc 	.word	0x00003dcc
    3930:	00003dcc 	.word	0x00003dcc
    3934:	00003dcc 	.word	0x00003dcc
    3938:	00003dcc 	.word	0x00003dcc
    393c:	00003d64 	.word	0x00003d64
    3940:	00003d64 	.word	0x00003d64
    3944:	00003d64 	.word	0x00003d64
    3948:	00003d64 	.word	0x00003d64
    394c:	00003d64 	.word	0x00003d64
    3950:	00003d64 	.word	0x00003d64
    3954:	00003d64 	.word	0x00003d64
    3958:	00003d64 	.word	0x00003d64
    395c:	00003d64 	.word	0x00003d64
    3960:	00003d64 	.word	0x00003d64
    3964:	00003d64 	.word	0x00003d64
    3968:	00003d64 	.word	0x00003d64
    396c:	00003d64 	.word	0x00003d64
    3970:	00003d64 	.word	0x00003d64
    3974:	00003d64 	.word	0x00003d64
    3978:	00003d64 	.word	0x00003d64
    397c:	00003d64 	.word	0x00003d64
    3980:	00003d24 	.word	0x00003d24
    3984:	00003d64 	.word	0x00003d64
    3988:	00003d64 	.word	0x00003d64
    398c:	00003d64 	.word	0x00003d64
    3990:	00003d64 	.word	0x00003d64
    3994:	00003d64 	.word	0x00003d64
    3998:	00003d64 	.word	0x00003d64
    399c:	00003d64 	.word	0x00003d64
    39a0:	00003d64 	.word	0x00003d64
    39a4:	00003dcc 	.word	0x00003dcc
    39a8:	00003dcc 	.word	0x00003dcc
    39ac:	00003dcc 	.word	0x00003dcc
    39b0:	00003dcc 	.word	0x00003dcc
    39b4:	00003dcc 	.word	0x00003dcc
    39b8:	00003dcc 	.word	0x00003dcc
    39bc:	00003d64 	.word	0x00003d64
    39c0:	00003d64 	.word	0x00003d64
    39c4:	00003d64 	.word	0x00003d64
    39c8:	00003d64 	.word	0x00003d64
    39cc:	00003d64 	.word	0x00003d64
    39d0:	00003d64 	.word	0x00003d64
    39d4:	00003d64 	.word	0x00003d64
    39d8:	00003d64 	.word	0x00003d64
    39dc:	00003d64 	.word	0x00003d64
    39e0:	00003d64 	.word	0x00003d64
    39e4:	00003d64 	.word	0x00003d64
    39e8:	00003d64 	.word	0x00003d64
    39ec:	00003d64 	.word	0x00003d64
    39f0:	00003d64 	.word	0x00003d64
    39f4:	00003d64 	.word	0x00003d64
    39f8:	00003d64 	.word	0x00003d64
    39fc:	00003d64 	.word	0x00003d64
    3a00:	00003d24 	.word	0x00003d24
    3a04:	e3560000 	cmp	r6, #0
    3a08:	03e06000 	mvneq	r6, #0
    3a0c:	e2172001 	ands	r2, r7, #1
    3a10:	1a00022a 	bne	42c0 <__svfscanf_r+0xe88>
    3a14:	e3170010 	tst	r7, #16
    3a18:	1a000291 	bne	4464 <__svfscanf_r+0x102c>
    3a1c:	e59dc014 	ldr	r12, [sp, #20]
    3a20:	e59ca000 	ldr	r10, [r12]
    3a24:	e28c3004 	add	r3, r12, #4
    3a28:	e5942000 	ldr	r2, [r4]
    3a2c:	e28a7001 	add	r7, r10, #1
    3a30:	e08a6006 	add	r6, r10, r6
    3a34:	e1a08003 	mov	r8, r3
    3a38:	ea000000 	b	3a40 <__svfscanf_r+0x608>
    3a3c:	e2877001 	add	r7, r7, #1
    3a40:	e5d23000 	ldrb	r3, [r2]
    3a44:	e5951000 	ldr	r1, [r5]
    3a48:	e0811003 	add	r1, r1, r3
    3a4c:	e5d11001 	ldrb	r1, [r1, #1]
    3a50:	e3110008 	tst	r1, #8
    3a54:	e2473001 	sub	r3, r7, #1
    3a58:	1a00029b 	bne	44cc <__svfscanf_r+0x1094>
    3a5c:	e5943004 	ldr	r3, [r4, #4]
    3a60:	e2433001 	sub	r3, r3, #1
    3a64:	e5843004 	str	r3, [r4, #4]
    3a68:	e4d23001 	ldrb	r3, [r2], #1
    3a6c:	e1570006 	cmp	r7, r6
    3a70:	e5473001 	strb	r3, [r7, #-1]
    3a74:	e1a03007 	mov	r3, r7
    3a78:	e5842000 	str	r2, [r4]
    3a7c:	0a000292 	beq	44cc <__svfscanf_r+0x1094>
    3a80:	e5941004 	ldr	r1, [r4, #4]
    3a84:	e3510000 	cmp	r1, #0
    3a88:	caffffeb 	bgt	3a3c <__svfscanf_r+0x604>
    3a8c:	e1a0000b 	mov	r0, r11
    3a90:	e1a01004 	mov	r1, r4
    3a94:	e58d7008 	str	r7, [sp, #8]
    3a98:	eb00183f 	bl	9b9c <__srefill_r>
    3a9c:	e3500000 	cmp	r0, #0
    3aa0:	e59d3008 	ldr	r3, [sp, #8]
    3aa4:	1a000288 	bne	44cc <__svfscanf_r+0x1094>
    3aa8:	e5942000 	ldr	r2, [r4]
    3aac:	eaffffe2 	b	3a3c <__svfscanf_r+0x604>
    3ab0:	e3560000 	cmp	r6, #0
    3ab4:	03a06001 	moveq	r6, #1
    3ab8:	e2173001 	ands	r3, r7, #1
    3abc:	1a000294 	bne	4514 <__svfscanf_r+0x10dc>
    3ac0:	e3170010 	tst	r7, #16
    3ac4:	0a0002f0 	beq	468c <__svfscanf_r+0x1254>
    3ac8:	e1a07003 	mov	r7, r3
    3acc:	e894000c 	ldm	r4, {r2, r3}
    3ad0:	e1530006 	cmp	r3, r6
    3ad4:	e1a0000b 	mov	r0, r11
    3ad8:	e1a01004 	mov	r1, r4
    3adc:	aa000312 	bge	472c <__svfscanf_r+0x12f4>
    3ae0:	e0822003 	add	r2, r2, r3
    3ae4:	e5842000 	str	r2, [r4]
    3ae8:	e0877003 	add	r7, r7, r3
    3aec:	e0636006 	rsb	r6, r3, r6
    3af0:	eb001829 	bl	9b9c <__srefill_r>
    3af4:	e3500000 	cmp	r0, #0
    3af8:	0afffff3 	beq	3acc <__svfscanf_r+0x694>
    3afc:	e3570000 	cmp	r7, #0
    3b00:	0affff18 	beq	3768 <__svfscanf_r+0x330>
    3b04:	e59d8018 	ldr	r8, [sp, #24]
    3b08:	e0899007 	add	r9, r9, r7
    3b0c:	e1a02008 	mov	r2, r8
    3b10:	eafffe5d 	b	348c <__svfscanf_r+0x54>
    3b14:	e2463001 	sub	r3, r6, #1
    3b18:	e28dcf56 	add	r12, sp, #344	; 0x158
    3b1c:	e3a08000 	mov	r8, #0
    3b20:	e3530f57 	cmp	r3, #348	; 0x15c
    3b24:	e58dc02c 	str	r12, [sp, #44]	; 0x2c
    3b28:	82463f57 	subhi	r3, r6, #348	; 0x15c
    3b2c:	e58d8030 	str	r8, [sp, #48]	; 0x30
    3b30:	859f6918 	ldrhi	r6, [pc, #2328]	; 4450 <__svfscanf_r+0x1018>
    3b34:	e58d8038 	str	r8, [sp, #56]	; 0x38
    3b38:	e58d8028 	str	r8, [sp, #40]	; 0x28
    3b3c:	e58d8034 	str	r8, [sp, #52]	; 0x34
    3b40:	e59da02c 	ldr	r10, [sp, #44]	; 0x2c
    3b44:	e1a0200b 	mov	r2, r11
    3b48:	82433001 	subhi	r3, r3, #1
    3b4c:	93a03000 	movls	r3, #0
    3b50:	e3877d1e 	orr	r7, r7, #1920	; 0x780
    3b54:	e1a0c008 	mov	r12, r8
    3b58:	e1a0b008 	mov	r11, r8
    3b5c:	e594e000 	ldr	lr, [r4]
    3b60:	e5de0000 	ldrb	r0, [lr]
    3b64:	e240102b 	sub	r1, r0, #43	; 0x2b
    3b68:	e351004e 	cmp	r1, #78	; 0x4e
    3b6c:	979ff101 	ldrls	pc, [pc, r1, lsl #2]
    3b70:	ea0000c6 	b	3e90 <__svfscanf_r+0xa58>
    3b74:	00004070 	.word	0x00004070
    3b78:	00003e90 	.word	0x00003e90
    3b7c:	00004070 	.word	0x00004070
    3b80:	0000405c 	.word	0x0000405c
    3b84:	00003e90 	.word	0x00003e90
    3b88:	0000403c 	.word	0x0000403c
    3b8c:	00003e50 	.word	0x00003e50
    3b90:	00003e50 	.word	0x00003e50
    3b94:	00003e50 	.word	0x00003e50
    3b98:	00003e50 	.word	0x00003e50
    3b9c:	00003e50 	.word	0x00003e50
    3ba0:	00003e50 	.word	0x00003e50
    3ba4:	00003e50 	.word	0x00003e50
    3ba8:	00003e50 	.word	0x00003e50
    3bac:	00003e50 	.word	0x00003e50
    3bb0:	00003e90 	.word	0x00003e90
    3bb4:	00003e90 	.word	0x00003e90
    3bb8:	00003e90 	.word	0x00003e90
    3bbc:	00003e90 	.word	0x00003e90
    3bc0:	00003e90 	.word	0x00003e90
    3bc4:	00003e90 	.word	0x00003e90
    3bc8:	00003e90 	.word	0x00003e90
    3bcc:	00003fdc 	.word	0x00003fdc
    3bd0:	00003e90 	.word	0x00003e90
    3bd4:	00003e90 	.word	0x00003e90
    3bd8:	00003e90 	.word	0x00003e90
    3bdc:	00003ffc 	.word	0x00003ffc
    3be0:	00003fec 	.word	0x00003fec
    3be4:	00003e90 	.word	0x00003e90
    3be8:	00003e90 	.word	0x00003e90
    3bec:	000040bc 	.word	0x000040bc
    3bf0:	00003e90 	.word	0x00003e90
    3bf4:	00003e90 	.word	0x00003e90
    3bf8:	00003e90 	.word	0x00003e90
    3bfc:	00003e90 	.word	0x00003e90
    3c00:	00004080 	.word	0x00004080
    3c04:	00003e90 	.word	0x00003e90
    3c08:	00003e90 	.word	0x00003e90
    3c0c:	00003e90 	.word	0x00003e90
    3c10:	00003e90 	.word	0x00003e90
    3c14:	00003e90 	.word	0x00003e90
    3c18:	00003fcc 	.word	0x00003fcc
    3c1c:	00003e90 	.word	0x00003e90
    3c20:	00003e90 	.word	0x00003e90
    3c24:	00003e90 	.word	0x00003e90
    3c28:	00003e90 	.word	0x00003e90
    3c2c:	00003fbc 	.word	0x00003fbc
    3c30:	00003e90 	.word	0x00003e90
    3c34:	00003e90 	.word	0x00003e90
    3c38:	00003e90 	.word	0x00003e90
    3c3c:	00003e90 	.word	0x00003e90
    3c40:	00003e90 	.word	0x00003e90
    3c44:	00003e90 	.word	0x00003e90
    3c48:	00003e90 	.word	0x00003e90
    3c4c:	00003fdc 	.word	0x00003fdc
    3c50:	00003e90 	.word	0x00003e90
    3c54:	00003e90 	.word	0x00003e90
    3c58:	00003e90 	.word	0x00003e90
    3c5c:	00003ffc 	.word	0x00003ffc
    3c60:	00003fec 	.word	0x00003fec
    3c64:	00003e90 	.word	0x00003e90
    3c68:	00003e90 	.word	0x00003e90
    3c6c:	000040bc 	.word	0x000040bc
    3c70:	00003e90 	.word	0x00003e90
    3c74:	00003e90 	.word	0x00003e90
    3c78:	00003e90 	.word	0x00003e90
    3c7c:	00003e90 	.word	0x00003e90
    3c80:	00004080 	.word	0x00004080
    3c84:	00003e90 	.word	0x00003e90
    3c88:	00003e90 	.word	0x00003e90
    3c8c:	00003e90 	.word	0x00003e90
    3c90:	00003e90 	.word	0x00003e90
    3c94:	00003e90 	.word	0x00003e90
    3c98:	00003fcc 	.word	0x00003fcc
    3c9c:	00003e90 	.word	0x00003e90
    3ca0:	00003e90 	.word	0x00003e90
    3ca4:	00003e90 	.word	0x00003e90
    3ca8:	00003e90 	.word	0x00003e90
    3cac:	00003fbc 	.word	0x00003fbc
    3cb0:	e3560000 	cmp	r6, #0
    3cb4:	03e06000 	mvneq	r6, #0
    3cb8:	e3170010 	tst	r7, #16
    3cbc:	0a0001b2 	beq	438c <__svfscanf_r+0xf54>
    3cc0:	e5943000 	ldr	r3, [r4]
    3cc4:	e3a07000 	mov	r7, #0
    3cc8:	e5d32000 	ldrb	r2, [r3]
    3ccc:	e28d0fae 	add	r0, sp, #696	; 0x2b8
    3cd0:	e0802002 	add	r2, r0, r2
    3cd4:	e5522260 	ldrb	r2, [r2, #-608]	; 0xfffffda0
    3cd8:	e3520000 	cmp	r2, #0
    3cdc:	e2833001 	add	r3, r3, #1
    3ce0:	0a000266 	beq	4680 <__svfscanf_r+0x1248>
    3ce4:	e5942004 	ldr	r2, [r4, #4]
    3ce8:	e2877001 	add	r7, r7, #1
    3cec:	e2422001 	sub	r2, r2, #1
    3cf0:	e1560007 	cmp	r6, r7
    3cf4:	e5843000 	str	r3, [r4]
    3cf8:	e5842004 	str	r2, [r4, #4]
    3cfc:	0affff80 	beq	3b04 <__svfscanf_r+0x6cc>
    3d00:	e3520000 	cmp	r2, #0
    3d04:	caffffef 	bgt	3cc8 <__svfscanf_r+0x890>
    3d08:	e1a0000b 	mov	r0, r11
    3d0c:	e1a01004 	mov	r1, r4
    3d10:	eb0017a1 	bl	9b9c <__srefill_r>
    3d14:	e3500000 	cmp	r0, #0
    3d18:	1affff79 	bne	3b04 <__svfscanf_r+0x6cc>
    3d1c:	e5943000 	ldr	r3, [r4]
    3d20:	eaffffe8 	b	3cc8 <__svfscanf_r+0x890>
    3d24:	e2072c06 	and	r2, r7, #1536	; 0x600
    3d28:	e3520c02 	cmp	r2, #512	; 0x200
    3d2c:	1a00000c 	bne	3d64 <__svfscanf_r+0x92c>
    3d30:	e3c77c02 	bic	r7, r7, #512	; 0x200
    3d34:	e3877c05 	orr	r7, r7, #1280	; 0x500
    3d38:	e3a0a010 	mov	r10, #16
    3d3c:	e4c81001 	strb	r1, [r8], #1
    3d40:	e5942004 	ldr	r2, [r4, #4]
    3d44:	e2422001 	sub	r2, r2, #1
    3d48:	e3520000 	cmp	r2, #0
    3d4c:	e5842004 	str	r2, [r4, #4]
    3d50:	da000183 	ble	4364 <__svfscanf_r+0xf2c>
    3d54:	e2800001 	add	r0, r0, #1
    3d58:	e5840000 	str	r0, [r4]
    3d5c:	e2566001 	subs	r6, r6, #1
    3d60:	1afffed3 	bne	38b4 <__svfscanf_r+0x47c>
    3d64:	e3170c01 	tst	r7, #256	; 0x100
    3d68:	e58da024 	str	r10, [sp, #36]	; 0x24
    3d6c:	e1a0900c 	mov	r9, r12
    3d70:	e1a0a00b 	mov	r10, r11
    3d74:	e1a0b003 	mov	r11, r3
    3d78:	0a00000a 	beq	3da8 <__svfscanf_r+0x970>
    3d7c:	e59dc02c 	ldr	r12, [sp, #44]	; 0x2c
    3d80:	e158000c 	cmp	r8, r12
    3d84:	9a000004 	bls	3d9c <__svfscanf_r+0x964>
    3d88:	e5581001 	ldrb	r1, [r8, #-1]
    3d8c:	e1a00003 	mov	r0, r3
    3d90:	e1a02004 	mov	r2, r4
    3d94:	eb00295d 	bl	e310 <_ungetc_r>
    3d98:	e2488001 	sub	r8, r8, #1
    3d9c:	e59dc02c 	ldr	r12, [sp, #44]	; 0x2c
    3da0:	e158000c 	cmp	r8, r12
    3da4:	0afffe84 	beq	37bc <__svfscanf_r+0x384>
    3da8:	e217c010 	ands	r12, r7, #16
    3dac:	0a000218 	beq	4614 <__svfscanf_r+0x11dc>
    3db0:	e59dc02c 	ldr	r12, [sp, #44]	; 0x2c
    3db4:	e06c8008 	rsb	r8, r12, r8
    3db8:	e088a00a 	add	r10, r8, r10
    3dbc:	e59d8018 	ldr	r8, [sp, #24]
    3dc0:	e089900a 	add	r9, r9, r10
    3dc4:	e1a02008 	mov	r2, r8
    3dc8:	eafffdaf 	b	348c <__svfscanf_r+0x54>
    3dcc:	e35a000a 	cmp	r10, #10
    3dd0:	daffffe3 	ble	3d64 <__svfscanf_r+0x92c>
    3dd4:	e3c77d2e 	bic	r7, r7, #2944	; 0xb80
    3dd8:	eaffffd7 	b	3d3c <__svfscanf_r+0x904>
    3ddc:	e59f2670 	ldr	r2, [pc, #1648]	; 4454 <__svfscanf_r+0x101c>
    3de0:	e1a0a08a 	lsl	r10, r10, #1
    3de4:	e192a0fa 	ldrsh	r10, [r2, r10]
    3de8:	e35a0008 	cmp	r10, #8
    3dec:	cafffff8 	bgt	3dd4 <__svfscanf_r+0x99c>
    3df0:	eaffffdb 	b	3d64 <__svfscanf_r+0x92c>
    3df4:	e3170080 	tst	r7, #128	; 0x80
    3df8:	0affffd9 	beq	3d64 <__svfscanf_r+0x92c>
    3dfc:	e3c77080 	bic	r7, r7, #128	; 0x80
    3e00:	eaffffcd 	b	3d3c <__svfscanf_r+0x904>
    3e04:	e59f2648 	ldr	r2, [pc, #1608]	; 4454 <__svfscanf_r+0x101c>
    3e08:	e1a0a08a 	lsl	r10, r10, #1
    3e0c:	e192a0fa 	ldrsh	r10, [r2, r10]
    3e10:	e3c77d2e 	bic	r7, r7, #2944	; 0xb80
    3e14:	eaffffc8 	b	3d3c <__svfscanf_r+0x904>
    3e18:	e3170b02 	tst	r7, #2048	; 0x800
    3e1c:	0affffc6 	beq	3d3c <__svfscanf_r+0x904>
    3e20:	e35a0000 	cmp	r10, #0
    3e24:	03877c02 	orreq	r7, r7, #512	; 0x200
    3e28:	03a0a008 	moveq	r10, #8
    3e2c:	e3170b01 	tst	r7, #1024	; 0x400
    3e30:	13c77d16 	bicne	r7, r7, #1408	; 0x580
    3e34:	1affffc0 	bne	3d3c <__svfscanf_r+0x904>
    3e38:	e3590000 	cmp	r9, #0
    3e3c:	e3c77d0e 	bic	r7, r7, #896	; 0x380
    3e40:	12499001 	subne	r9, r9, #1
    3e44:	12866001 	addne	r6, r6, #1
    3e48:	e28bb001 	add	r11, r11, #1
    3e4c:	eaffffbb 	b	3d40 <__svfscanf_r+0x908>
    3e50:	e08c1008 	add	r1, r12, r8
    3e54:	e3510000 	cmp	r1, #0
    3e58:	1a00000c 	bne	3e90 <__svfscanf_r+0xa58>
    3e5c:	e3c77d06 	bic	r7, r7, #384	; 0x180
    3e60:	e4ca0001 	strb	r0, [r10], #1
    3e64:	e5941004 	ldr	r1, [r4, #4]
    3e68:	e2411001 	sub	r1, r1, #1
    3e6c:	e3510000 	cmp	r1, #0
    3e70:	e2466001 	sub	r6, r6, #1
    3e74:	e2899001 	add	r9, r9, #1
    3e78:	e5841004 	str	r1, [r4, #4]
    3e7c:	da00012c 	ble	4334 <__svfscanf_r+0xefc>
    3e80:	e28ee001 	add	lr, lr, #1
    3e84:	e584e000 	str	lr, [r4]
    3e88:	e3560000 	cmp	r6, #0
    3e8c:	1affff32 	bne	3b5c <__svfscanf_r+0x724>
    3e90:	e58db028 	str	r11, [sp, #40]	; 0x28
    3e94:	e59d3028 	ldr	r3, [sp, #40]	; 0x28
    3e98:	e3530000 	cmp	r3, #0
    3e9c:	e1a0b002 	mov	r11, r2
    3ea0:	13c77c01 	bicne	r7, r7, #256	; 0x100
    3ea4:	e24c3001 	sub	r3, r12, #1
    3ea8:	e3530001 	cmp	r3, #1
    3eac:	9afffe37 	bls	3790 <__svfscanf_r+0x358>
    3eb0:	e2483001 	sub	r3, r8, #1
    3eb4:	e3530006 	cmp	r3, #6
    3eb8:	8a000014 	bhi	3f10 <__svfscanf_r+0xad8>
    3ebc:	e3580002 	cmp	r8, #2
    3ec0:	9a0002aa 	bls	4970 <__svfscanf_r+0x1538>
    3ec4:	e3580003 	cmp	r8, #3
    3ec8:	0a000010 	beq	3f10 <__svfscanf_r+0xad8>
    3ecc:	e2483004 	sub	r3, r8, #4
    3ed0:	e20330ff 	and	r3, r3, #255	; 0xff
    3ed4:	e24a6001 	sub	r6, r10, #1
    3ed8:	e58d303c 	str	r3, [sp, #60]	; 0x3c
    3edc:	e1a0800a 	mov	r8, r10
    3ee0:	e0636006 	rsb	r6, r3, r6
    3ee4:	e5781001 	ldrb	r1, [r8, #-1]!
    3ee8:	e1a0000b 	mov	r0, r11
    3eec:	e1a02004 	mov	r2, r4
    3ef0:	eb002906 	bl	e310 <_ungetc_r>
    3ef4:	e1580006 	cmp	r8, r6
    3ef8:	1afffff9 	bne	3ee4 <__svfscanf_r+0xaac>
    3efc:	e59dc03c 	ldr	r12, [sp, #60]	; 0x3c
    3f00:	e2499001 	sub	r9, r9, #1
    3f04:	e1e0300c 	mvn	r3, r12
    3f08:	e08aa003 	add	r10, r10, r3
    3f0c:	e06c9009 	rsb	r9, r12, r9
    3f10:	e3170c01 	tst	r7, #256	; 0x100
    3f14:	0a00000a 	beq	3f44 <__svfscanf_r+0xb0c>
    3f18:	e3170b01 	tst	r7, #1024	; 0x400
    3f1c:	1a000284 	bne	4934 <__svfscanf_r+0x14fc>
    3f20:	e55a1001 	ldrb	r1, [r10, #-1]
    3f24:	e20130df 	and	r3, r1, #223	; 0xdf
    3f28:	e3530045 	cmp	r3, #69	; 0x45
    3f2c:	e2499001 	sub	r9, r9, #1
    3f30:	024aa001 	subeq	r10, r10, #1
    3f34:	1a0001f5 	bne	4710 <__svfscanf_r+0x12d8>
    3f38:	e1a0000b 	mov	r0, r11
    3f3c:	e1a02004 	mov	r2, r4
    3f40:	eb0028f2 	bl	e310 <_ungetc_r>
    3f44:	e2172010 	ands	r2, r7, #16
    3f48:	1a0000f6 	bne	4328 <__svfscanf_r+0xef0>
    3f4c:	e2073c06 	and	r3, r7, #1536	; 0x600
    3f50:	e3530b01 	cmp	r3, #1024	; 0x400
    3f54:	e5ca2000 	strb	r2, [r10]
    3f58:	0a00020a 	beq	4788 <__svfscanf_r+0x1350>
    3f5c:	e59dc038 	ldr	r12, [sp, #56]	; 0x38
    3f60:	e35c0000 	cmp	r12, #0
    3f64:	1a0001f5 	bne	4740 <__svfscanf_r+0x1308>
    3f68:	e3a02000 	mov	r2, #0
    3f6c:	e1a0000b 	mov	r0, r11
    3f70:	e59d102c 	ldr	r1, [sp, #44]	; 0x2c
    3f74:	eb0018cd 	bl	a2b0 <_strtod_r>
    3f78:	e3170001 	tst	r7, #1
    3f7c:	e1a02000 	mov	r2, r0
    3f80:	e1a03001 	mov	r3, r1
    3f84:	e59dc014 	ldr	r12, [sp, #20]
    3f88:	1a000001 	bne	3f94 <__svfscanf_r+0xb5c>
    3f8c:	e3170002 	tst	r7, #2
    3f90:	0a000242 	beq	48a0 <__svfscanf_r+0x1468>
    3f94:	e59c1000 	ldr	r1, [r12]
    3f98:	e28cc004 	add	r12, r12, #4
    3f9c:	e58dc014 	str	r12, [sp, #20]
    3fa0:	e881000c 	stm	r1, {r2, r3}
    3fa4:	e59dc020 	ldr	r12, [sp, #32]
    3fa8:	e59d8018 	ldr	r8, [sp, #24]
    3fac:	e28cc001 	add	r12, r12, #1
    3fb0:	e58dc020 	str	r12, [sp, #32]
    3fb4:	e1a02008 	mov	r2, r8
    3fb8:	eafffd33 	b	348c <__svfscanf_r+0x54>
    3fbc:	e3580007 	cmp	r8, #7
    3fc0:	1affffb2 	bne	3e90 <__svfscanf_r+0xa58>
    3fc4:	e3a08008 	mov	r8, #8
    3fc8:	eaffffa4 	b	3e60 <__svfscanf_r+0xa28>
    3fcc:	e3580006 	cmp	r8, #6
    3fd0:	1affffae 	bne	3e90 <__svfscanf_r+0xa58>
    3fd4:	e3a08007 	mov	r8, #7
    3fd8:	eaffffa0 	b	3e60 <__svfscanf_r+0xa28>
    3fdc:	e35c0001 	cmp	r12, #1
    3fe0:	1affffaa 	bne	3e90 <__svfscanf_r+0xa58>
    3fe4:	e3a0c002 	mov	r12, #2
    3fe8:	eaffff9c 	b	3e60 <__svfscanf_r+0xa28>
    3fec:	e3580002 	cmp	r8, #2
    3ff0:	1affffa6 	bne	3e90 <__svfscanf_r+0xa58>
    3ff4:	e3a08003 	mov	r8, #3
    3ff8:	eaffff98 	b	3e60 <__svfscanf_r+0xa28>
    3ffc:	e2071c05 	and	r1, r7, #1280	; 0x500
    4000:	e3510b01 	cmp	r1, #1024	; 0x400
    4004:	0a000003 	beq	4018 <__svfscanf_r+0xbe0>
    4008:	e3170b01 	tst	r7, #1024	; 0x400
    400c:	0affff9f 	beq	3e90 <__svfscanf_r+0xa58>
    4010:	e35b0000 	cmp	r11, #0
    4014:	0a000252 	beq	4964 <__svfscanf_r+0x152c>
    4018:	e3170c02 	tst	r7, #512	; 0x200
    401c:	059d1034 	ldreq	r1, [sp, #52]	; 0x34
    4020:	e3c77d1e 	bic	r7, r7, #1920	; 0x780
    4024:	0061b00b 	rsbeq	r11, r1, r11
    4028:	058db038 	streq	r11, [sp, #56]	; 0x38
    402c:	058da030 	streq	r10, [sp, #48]	; 0x30
    4030:	e3877d06 	orr	r7, r7, #384	; 0x180
    4034:	e3a0b000 	mov	r11, #0
    4038:	eaffff88 	b	3e60 <__svfscanf_r+0xa28>
    403c:	e3170c01 	tst	r7, #256	; 0x100
    4040:	0affff82 	beq	3e50 <__svfscanf_r+0xa18>
    4044:	e3530000 	cmp	r3, #0
    4048:	e3c77080 	bic	r7, r7, #128	; 0x80
    404c:	e28bb001 	add	r11, r11, #1
    4050:	12433001 	subne	r3, r3, #1
    4054:	12866001 	addne	r6, r6, #1
    4058:	eaffff81 	b	3e64 <__svfscanf_r+0xa2c>
    405c:	e3170c02 	tst	r7, #512	; 0x200
    4060:	0affff8a 	beq	3e90 <__svfscanf_r+0xa58>
    4064:	e3c77d0a 	bic	r7, r7, #640	; 0x280
    4068:	e58db034 	str	r11, [sp, #52]	; 0x34
    406c:	eaffff7b 	b	3e60 <__svfscanf_r+0xa28>
    4070:	e3170080 	tst	r7, #128	; 0x80
    4074:	0affff85 	beq	3e90 <__svfscanf_r+0xa58>
    4078:	e3c77080 	bic	r7, r7, #128	; 0x80
    407c:	eaffff77 	b	3e60 <__svfscanf_r+0xa28>
    4080:	e35b0000 	cmp	r11, #0
    4084:	035c0000 	cmpeq	r12, #0
    4088:	1a00011d 	bne	4504 <__svfscanf_r+0x10cc>
    408c:	e2071c07 	and	r1, r7, #1792	; 0x700
    4090:	e3510c07 	cmp	r1, #1792	; 0x700
    4094:	03c77d1e 	biceq	r7, r7, #1920	; 0x780
    4098:	03a0c001 	moveq	r12, #1
    409c:	03a0b000 	moveq	r11, #0
    40a0:	0affff6e 	beq	3e60 <__svfscanf_r+0xa28>
    40a4:	e3580001 	cmp	r8, #1
    40a8:	13580004 	cmpne	r8, #4
    40ac:	1affff77 	bne	3e90 <__svfscanf_r+0xa58>
    40b0:	e2888001 	add	r8, r8, #1
    40b4:	e20880ff 	and	r8, r8, #255	; 0xff
    40b8:	eaffff68 	b	3e60 <__svfscanf_r+0xa28>
    40bc:	e35b0000 	cmp	r11, #0
    40c0:	03580000 	cmpeq	r8, #0
    40c4:	1a000005 	bne	40e0 <__svfscanf_r+0xca8>
    40c8:	e2071c07 	and	r1, r7, #1792	; 0x700
    40cc:	e3510c07 	cmp	r1, #1792	; 0x700
    40d0:	03c77d1e 	biceq	r7, r7, #1920	; 0x780
    40d4:	03a08001 	moveq	r8, #1
    40d8:	03a0b000 	moveq	r11, #0
    40dc:	0affff5f 	beq	3e60 <__svfscanf_r+0xa28>
    40e0:	e3580003 	cmp	r8, #3
    40e4:	13580005 	cmpne	r8, #5
    40e8:	0afffff0 	beq	40b0 <__svfscanf_r+0xc78>
    40ec:	eaffff67 	b	3e90 <__svfscanf_r+0xa58>
    40f0:	e0813003 	add	r3, r1, r3
    40f4:	e5d33001 	ldrb	r3, [r3, #1]
    40f8:	e2033003 	and	r3, r3, #3
    40fc:	e3530001 	cmp	r3, #1
    4100:	e58d2018 	str	r2, [sp, #24]
    4104:	03877001 	orreq	r7, r7, #1
    4108:	e59fc348 	ldr	r12, [pc, #840]	; 4458 <__svfscanf_r+0x1020>
    410c:	e5943004 	ldr	r3, [r4, #4]
    4110:	e58dc01c 	str	r12, [sp, #28]
    4114:	e3530000 	cmp	r3, #0
    4118:	e3a0c00a 	mov	r12, #10
    411c:	e58dc024 	str	r12, [sp, #36]	; 0x24
    4120:	e3a08003 	mov	r8, #3
    4124:	cafffdb2 	bgt	37f4 <__svfscanf_r+0x3bc>
    4128:	e1a0000b 	mov	r0, r11
    412c:	e1a01004 	mov	r1, r4
    4130:	eb001699 	bl	9b9c <__srefill_r>
    4134:	e3500000 	cmp	r0, #0
    4138:	0afffdad 	beq	37f4 <__svfscanf_r+0x3bc>
    413c:	eafffd89 	b	3768 <__svfscanf_r+0x330>
    4140:	eb000aa9 	bl	6bec <__sfp_lock_release>
    4144:	e3e0c000 	mvn	r12, #0
    4148:	e58dc020 	str	r12, [sp, #32]
    414c:	eafffd9b 	b	37c0 <__svfscanf_r+0x388>
    4150:	e58d2018 	str	r2, [sp, #24]
    4154:	e1a08002 	mov	r8, r2
    4158:	eafffcee 	b	3518 <__svfscanf_r+0xe0>
    415c:	e5d83001 	ldrb	r3, [r8, #1]
    4160:	e3877010 	orr	r7, r7, #16
    4164:	e1a08002 	mov	r8, r2
    4168:	eafffcfc 	b	3560 <__svfscanf_r+0x128>
    416c:	e0866106 	add	r6, r6, r6, lsl #2
    4170:	e0833086 	add	r3, r3, r6, lsl #1
    4174:	e2436030 	sub	r6, r3, #48	; 0x30
    4178:	e5d83001 	ldrb	r3, [r8, #1]
    417c:	e1a08002 	mov	r8, r2
    4180:	eafffcf6 	b	3560 <__svfscanf_r+0x128>
    4184:	e58d2018 	str	r2, [sp, #24]
    4188:	e3877001 	orr	r7, r7, #1
    418c:	eaffffdd 	b	4108 <__svfscanf_r+0xcd0>
    4190:	e58d2018 	str	r2, [sp, #24]
    4194:	e3a08004 	mov	r8, #4
    4198:	eafffd92 	b	37e8 <__svfscanf_r+0x3b0>
    419c:	e5d83001 	ldrb	r3, [r8, #1]
    41a0:	e3877002 	orr	r7, r7, #2
    41a4:	e1a08002 	mov	r8, r2
    41a8:	eafffcec 	b	3560 <__svfscanf_r+0x128>
    41ac:	e58d2018 	str	r2, [sp, #24]
    41b0:	e3877001 	orr	r7, r7, #1
    41b4:	e59fc2a4 	ldr	r12, [pc, #676]	; 4460 <__svfscanf_r+0x1028>
    41b8:	e58dc01c 	str	r12, [sp, #28]
    41bc:	e3a0c008 	mov	r12, #8
    41c0:	e58dc024 	str	r12, [sp, #36]	; 0x24
    41c4:	e3a08003 	mov	r8, #3
    41c8:	eafffd86 	b	37e8 <__svfscanf_r+0x3b0>
    41cc:	e58d2018 	str	r2, [sp, #24]
    41d0:	e3877c02 	orr	r7, r7, #512	; 0x200
    41d4:	e59fc284 	ldr	r12, [pc, #644]	; 4460 <__svfscanf_r+0x1028>
    41d8:	e58dc01c 	str	r12, [sp, #28]
    41dc:	e3a0c010 	mov	r12, #16
    41e0:	e58dc024 	str	r12, [sp, #36]	; 0x24
    41e4:	e3a08003 	mov	r8, #3
    41e8:	eafffd7e 	b	37e8 <__svfscanf_r+0x3b0>
    41ec:	e28d0058 	add	r0, sp, #88	; 0x58
    41f0:	e1a01002 	mov	r1, r2
    41f4:	e58d2018 	str	r2, [sp, #24]
    41f8:	eb0016fb 	bl	9dec <__sccl>
    41fc:	e3877040 	orr	r7, r7, #64	; 0x40
    4200:	e58d0018 	str	r0, [sp, #24]
    4204:	e3a08001 	mov	r8, #1
    4208:	eafffd76 	b	37e8 <__svfscanf_r+0x3b0>
    420c:	e58d2018 	str	r2, [sp, #24]
    4210:	e3877040 	orr	r7, r7, #64	; 0x40
    4214:	e3a08000 	mov	r8, #0
    4218:	eafffd72 	b	37e8 <__svfscanf_r+0x3b0>
    421c:	e58d2018 	str	r2, [sp, #24]
    4220:	eaffffb8 	b	4108 <__svfscanf_r+0xcd0>
    4224:	e5d83001 	ldrb	r3, [r8, #1]
    4228:	e3877004 	orr	r7, r7, #4
    422c:	e1a08002 	mov	r8, r2
    4230:	eafffcca 	b	3560 <__svfscanf_r+0x128>
    4234:	e59fc21c 	ldr	r12, [pc, #540]	; 4458 <__svfscanf_r+0x1020>
    4238:	e58dc01c 	str	r12, [sp, #28]
    423c:	e3a0c000 	mov	r12, #0
    4240:	e58d2018 	str	r2, [sp, #24]
    4244:	e58dc024 	str	r12, [sp, #36]	; 0x24
    4248:	e3a08003 	mov	r8, #3
    424c:	eafffd65 	b	37e8 <__svfscanf_r+0x3b0>
    4250:	e5d83001 	ldrb	r3, [r8, #1]
    4254:	e353006c 	cmp	r3, #108	; 0x6c
    4258:	05d83002 	ldrbeq	r3, [r8, #2]
    425c:	03877002 	orreq	r7, r7, #2
    4260:	02888002 	addeq	r8, r8, #2
    4264:	13877001 	orrne	r7, r7, #1
    4268:	11a08002 	movne	r8, r2
    426c:	eafffcbb 	b	3560 <__svfscanf_r+0x128>
    4270:	e3170010 	tst	r7, #16
    4274:	e58d2018 	str	r2, [sp, #24]
    4278:	1a00002a 	bne	4328 <__svfscanf_r+0xef0>
    427c:	e3170004 	tst	r7, #4
    4280:	0a00010e 	beq	46c0 <__svfscanf_r+0x1288>
    4284:	e59dc014 	ldr	r12, [sp, #20]
    4288:	e59c3000 	ldr	r3, [r12]
    428c:	e28cc004 	add	r12, r12, #4
    4290:	e1a08002 	mov	r8, r2
    4294:	e1c390b0 	strh	r9, [r3]
    4298:	e58dc014 	str	r12, [sp, #20]
    429c:	eafffc99 	b	3508 <__svfscanf_r+0xd0>
    42a0:	e58d2018 	str	r2, [sp, #24]
    42a4:	eaffffc2 	b	41b4 <__svfscanf_r+0xd7c>
    42a8:	e58d2018 	str	r2, [sp, #24]
    42ac:	e3877e22 	orr	r7, r7, #544	; 0x220
    42b0:	eaffffc7 	b	41d4 <__svfscanf_r+0xd9c>
    42b4:	e58d2018 	str	r2, [sp, #24]
    42b8:	e3a08002 	mov	r8, #2
    42bc:	eafffd49 	b	37e8 <__svfscanf_r+0x3b0>
    42c0:	e28d0050 	add	r0, sp, #80	; 0x50
    42c4:	e3a01000 	mov	r1, #0
    42c8:	e3a02008 	mov	r2, #8
    42cc:	eb001134 	bl	87a4 <memset>
    42d0:	e217a010 	ands	r10, r7, #16
    42d4:	059dc014 	ldreq	r12, [sp, #20]
    42d8:	059c8000 	ldreq	r8, [r12]
    42dc:	028cc004 	addeq	r12, r12, #4
    42e0:	058dc014 	streq	r12, [sp, #20]
    42e4:	128d8044 	addne	r8, sp, #68	; 0x44
    42e8:	e3a07000 	mov	r7, #0
    42ec:	e5943000 	ldr	r3, [r4]
    42f0:	e5952000 	ldr	r2, [r5]
    42f4:	e5d33000 	ldrb	r3, [r3]
    42f8:	e0823003 	add	r3, r2, r3
    42fc:	e5d33001 	ldrb	r3, [r3, #1]
    4300:	e3130008 	tst	r3, #8
    4304:	1a000001 	bne	4310 <__svfscanf_r+0xed8>
    4308:	e3560000 	cmp	r6, #0
    430c:	1a000125 	bne	47a8 <__svfscanf_r+0x1370>
    4310:	e35a0000 	cmp	r10, #0
    4314:	1a000003 	bne	4328 <__svfscanf_r+0xef0>
    4318:	e588a000 	str	r10, [r8]
    431c:	e59dc020 	ldr	r12, [sp, #32]
    4320:	e28cc001 	add	r12, r12, #1
    4324:	e58dc020 	str	r12, [sp, #32]
    4328:	e59d8018 	ldr	r8, [sp, #24]
    432c:	e1a02008 	mov	r2, r8
    4330:	eafffc55 	b	348c <__svfscanf_r+0x54>
    4334:	e1a00002 	mov	r0, r2
    4338:	e1a01004 	mov	r1, r4
    433c:	e58d2010 	str	r2, [sp, #16]
    4340:	e58d3008 	str	r3, [sp, #8]
    4344:	e58dc00c 	str	r12, [sp, #12]
    4348:	eb001613 	bl	9b9c <__srefill_r>
    434c:	e28d3008 	add	r3, sp, #8
    4350:	e3500000 	cmp	r0, #0
    4354:	e59d2010 	ldr	r2, [sp, #16]
    4358:	e8931008 	ldm	r3, {r3, r12}
    435c:	0afffec9 	beq	3e88 <__svfscanf_r+0xa50>
    4360:	eafffeca 	b	3e90 <__svfscanf_r+0xa58>
    4364:	e1a00003 	mov	r0, r3
    4368:	e1a01004 	mov	r1, r4
    436c:	e58d3008 	str	r3, [sp, #8]
    4370:	e58dc00c 	str	r12, [sp, #12]
    4374:	eb001608 	bl	9b9c <__srefill_r>
    4378:	e28d3008 	add	r3, sp, #8
    437c:	e3500000 	cmp	r0, #0
    4380:	e8931008 	ldm	r3, {r3, r12}
    4384:	0afffe74 	beq	3d5c <__svfscanf_r+0x924>
    4388:	eafffe75 	b	3d64 <__svfscanf_r+0x92c>
    438c:	e59dc014 	ldr	r12, [sp, #20]
    4390:	e59c8000 	ldr	r8, [r12]
    4394:	e0883006 	add	r3, r8, r6
    4398:	e28ca004 	add	r10, r12, #4
    439c:	e2887001 	add	r7, r8, #1
    43a0:	e1a0c008 	mov	r12, r8
    43a4:	e5942000 	ldr	r2, [r4]
    43a8:	e1a08003 	mov	r8, r3
    43ac:	ea000000 	b	43b4 <__svfscanf_r+0xf7c>
    43b0:	e2877001 	add	r7, r7, #1
    43b4:	e5d21000 	ldrb	r1, [r2]
    43b8:	e28d0fae 	add	r0, sp, #696	; 0x2b8
    43bc:	e0801001 	add	r1, r0, r1
    43c0:	e5511260 	ldrb	r1, [r1, #-608]	; 0xfffffda0
    43c4:	e3510000 	cmp	r1, #0
    43c8:	e2476001 	sub	r6, r7, #1
    43cc:	0a000014 	beq	4424 <__svfscanf_r+0xfec>
    43d0:	e5941004 	ldr	r1, [r4, #4]
    43d4:	e2411001 	sub	r1, r1, #1
    43d8:	e5841004 	str	r1, [r4, #4]
    43dc:	e4d21001 	ldrb	r1, [r2], #1
    43e0:	e1570008 	cmp	r7, r8
    43e4:	e5471001 	strb	r1, [r7, #-1]
    43e8:	e1a06007 	mov	r6, r7
    43ec:	e5842000 	str	r2, [r4]
    43f0:	0a00000b 	beq	4424 <__svfscanf_r+0xfec>
    43f4:	e5941004 	ldr	r1, [r4, #4]
    43f8:	e3510000 	cmp	r1, #0
    43fc:	caffffeb 	bgt	43b0 <__svfscanf_r+0xf78>
    4400:	e1a0000b 	mov	r0, r11
    4404:	e1a01004 	mov	r1, r4
    4408:	e58dc00c 	str	r12, [sp, #12]
    440c:	eb0015e2 	bl	9b9c <__srefill_r>
    4410:	e3500000 	cmp	r0, #0
    4414:	e59dc00c 	ldr	r12, [sp, #12]
    4418:	1a00010a 	bne	4848 <__svfscanf_r+0x1410>
    441c:	e5942000 	ldr	r2, [r4]
    4420:	eaffffe2 	b	43b0 <__svfscanf_r+0xf78>
    4424:	e1a0800c 	mov	r8, r12
    4428:	e0567008 	subs	r7, r6, r8
    442c:	0afffce2 	beq	37bc <__svfscanf_r+0x384>
    4430:	e59dc020 	ldr	r12, [sp, #32]
    4434:	e3a03000 	mov	r3, #0
    4438:	e28cc001 	add	r12, r12, #1
    443c:	e5c63000 	strb	r3, [r6]
    4440:	e58dc020 	str	r12, [sp, #32]
    4444:	e58da014 	str	r10, [sp, #20]
    4448:	eafffdad 	b	3b04 <__svfscanf_r+0x6cc>
    444c:	00014030 	.word	0x00014030
    4450:	0000015d 	.word	0x0000015d
    4454:	00013870 	.word	0x00013870
    4458:	0000b9c0 	.word	0x0000b9c0
    445c:	00013894 	.word	0x00013894
    4460:	0000be34 	.word	0x0000be34
    4464:	e5951000 	ldr	r1, [r5]
    4468:	e5943000 	ldr	r3, [r4]
    446c:	e1a07002 	mov	r7, r2
    4470:	e5d32000 	ldrb	r2, [r3]
    4474:	e0812002 	add	r2, r1, r2
    4478:	e5d22001 	ldrb	r2, [r2, #1]
    447c:	e3120008 	tst	r2, #8
    4480:	e2833001 	add	r3, r3, #1
    4484:	1afffd9e 	bne	3b04 <__svfscanf_r+0x6cc>
    4488:	e5942004 	ldr	r2, [r4, #4]
    448c:	e2877001 	add	r7, r7, #1
    4490:	e2422001 	sub	r2, r2, #1
    4494:	e1560007 	cmp	r6, r7
    4498:	e5843000 	str	r3, [r4]
    449c:	e5842004 	str	r2, [r4, #4]
    44a0:	0afffd97 	beq	3b04 <__svfscanf_r+0x6cc>
    44a4:	e3520000 	cmp	r2, #0
    44a8:	cafffff0 	bgt	4470 <__svfscanf_r+0x1038>
    44ac:	e1a0000b 	mov	r0, r11
    44b0:	e1a01004 	mov	r1, r4
    44b4:	eb0015b8 	bl	9b9c <__srefill_r>
    44b8:	e3500000 	cmp	r0, #0
    44bc:	1afffd90 	bne	3b04 <__svfscanf_r+0x6cc>
    44c0:	e5951000 	ldr	r1, [r5]
    44c4:	e5943000 	ldr	r3, [r4]
    44c8:	eaffffe8 	b	4470 <__svfscanf_r+0x1038>
    44cc:	e1a02008 	mov	r2, r8
    44d0:	e1a08003 	mov	r8, r3
    44d4:	e1a03002 	mov	r3, r2
    44d8:	e3a02000 	mov	r2, #0
    44dc:	e06aa008 	rsb	r10, r10, r8
    44e0:	e5c82000 	strb	r2, [r8]
    44e4:	e089900a 	add	r9, r9, r10
    44e8:	e59dc020 	ldr	r12, [sp, #32]
    44ec:	e59d8018 	ldr	r8, [sp, #24]
    44f0:	e28cc001 	add	r12, r12, #1
    44f4:	e58dc020 	str	r12, [sp, #32]
    44f8:	e58d3014 	str	r3, [sp, #20]
    44fc:	e1a02008 	mov	r2, r8
    4500:	eafffbe1 	b	348c <__svfscanf_r+0x54>
    4504:	e35c0002 	cmp	r12, #2
    4508:	1afffee5 	bne	40a4 <__svfscanf_r+0xc6c>
    450c:	e3a0c003 	mov	r12, #3
    4510:	eafffe52 	b	3e60 <__svfscanf_r+0xa28>
    4514:	e28d0048 	add	r0, sp, #72	; 0x48
    4518:	e3a01000 	mov	r1, #0
    451c:	e3a02008 	mov	r2, #8
    4520:	eb00109f 	bl	87a4 <memset>
    4524:	e217a010 	ands	r10, r7, #16
    4528:	059dc014 	ldreq	r12, [sp, #20]
    452c:	059c8000 	ldreq	r8, [r12]
    4530:	028cc004 	addeq	r12, r12, #4
    4534:	058dc014 	streq	r12, [sp, #20]
    4538:	13a08000 	movne	r8, #0
    453c:	e3a07000 	mov	r7, #0
    4540:	ea00000c 	b	4578 <__svfscanf_r+0x1140>
    4544:	e35a0000 	cmp	r10, #0
    4548:	0588a000 	streq	r10, [r8]
    454c:	e5943004 	ldr	r3, [r4, #4]
    4550:	e35a0000 	cmp	r10, #0
    4554:	e0899007 	add	r9, r9, r7
    4558:	02888004 	addeq	r8, r8, #4
    455c:	01a0700a 	moveq	r7, r10
    4560:	13a07000 	movne	r7, #0
    4564:	e3530000 	cmp	r3, #0
    4568:	e2466001 	sub	r6, r6, #1
    456c:	da00001e 	ble	45ec <__svfscanf_r+0x11b4>
    4570:	e3560000 	cmp	r6, #0
    4574:	0a000023 	beq	4608 <__svfscanf_r+0x11d0>
    4578:	eb000cc7 	bl	789c <__locale_mb_cur_max>
    457c:	e1500007 	cmp	r0, r7
    4580:	0afffc78 	beq	3768 <__svfscanf_r+0x330>
    4584:	e5943000 	ldr	r3, [r4]
    4588:	e5942004 	ldr	r2, [r4, #4]
    458c:	e4d3e001 	ldrb	lr, [r3], #1
    4590:	e28d0fae 	add	r0, sp, #696	; 0x2b8
    4594:	e080c007 	add	r12, r0, r7
    4598:	e2422001 	sub	r2, r2, #1
    459c:	e28d1048 	add	r1, sp, #72	; 0x48
    45a0:	e2877001 	add	r7, r7, #1
    45a4:	e5842004 	str	r2, [r4, #4]
    45a8:	e5843000 	str	r3, [r4]
    45ac:	e1a0000b 	mov	r0, r11
    45b0:	e58d1000 	str	r1, [sp]
    45b4:	e28d2f56 	add	r2, sp, #344	; 0x158
    45b8:	e1a01008 	mov	r1, r8
    45bc:	e1a03007 	mov	r3, r7
    45c0:	e54ce160 	strb	lr, [r12, #-352]	; 0xfffffea0
    45c4:	eb000ee8 	bl	816c <_mbrtowc_r>
    45c8:	e3700001 	cmn	r0, #1
    45cc:	0afffc65 	beq	3768 <__svfscanf_r+0x330>
    45d0:	e3500000 	cmp	r0, #0
    45d4:	0affffda 	beq	4544 <__svfscanf_r+0x110c>
    45d8:	e3700002 	cmn	r0, #2
    45dc:	1affffda 	bne	454c <__svfscanf_r+0x1114>
    45e0:	e5943004 	ldr	r3, [r4, #4]
    45e4:	e3530000 	cmp	r3, #0
    45e8:	caffffe0 	bgt	4570 <__svfscanf_r+0x1138>
    45ec:	e1a0000b 	mov	r0, r11
    45f0:	e1a01004 	mov	r1, r4
    45f4:	eb001568 	bl	9b9c <__srefill_r>
    45f8:	e3500000 	cmp	r0, #0
    45fc:	0affffdb 	beq	4570 <__svfscanf_r+0x1138>
    4600:	e3570000 	cmp	r7, #0
    4604:	1afffc57 	bne	3768 <__svfscanf_r+0x330>
    4608:	e35a0000 	cmp	r10, #0
    460c:	0affff42 	beq	431c <__svfscanf_r+0xee4>
    4610:	eaffff44 	b	4328 <__svfscanf_r+0xef0>
    4614:	e1a0200c 	mov	r2, r12
    4618:	e5c8c000 	strb	r12, [r8]
    461c:	e1a0000b 	mov	r0, r11
    4620:	e59d102c 	ldr	r1, [sp, #44]	; 0x2c
    4624:	e59d3024 	ldr	r3, [sp, #36]	; 0x24
    4628:	e59dc01c 	ldr	r12, [sp, #28]
    462c:	e1a0e00f 	mov	lr, pc
    4630:	e12fff1c 	bx	r12
    4634:	e3170020 	tst	r7, #32
    4638:	1a00000a 	bne	4668 <__svfscanf_r+0x1230>
    463c:	e3170004 	tst	r7, #4
    4640:	0a000084 	beq	4858 <__svfscanf_r+0x1420>
    4644:	e59dc014 	ldr	r12, [sp, #20]
    4648:	e59c3000 	ldr	r3, [r12]
    464c:	e28cc004 	add	r12, r12, #4
    4650:	e58dc014 	str	r12, [sp, #20]
    4654:	e1c300b0 	strh	r0, [r3]
    4658:	e59dc020 	ldr	r12, [sp, #32]
    465c:	e28cc001 	add	r12, r12, #1
    4660:	e58dc020 	str	r12, [sp, #32]
    4664:	eafffdd1 	b	3db0 <__svfscanf_r+0x978>
    4668:	e59dc014 	ldr	r12, [sp, #20]
    466c:	e59c3000 	ldr	r3, [r12]
    4670:	e28cc004 	add	r12, r12, #4
    4674:	e58dc014 	str	r12, [sp, #20]
    4678:	e5830000 	str	r0, [r3]
    467c:	eafffff5 	b	4658 <__svfscanf_r+0x1220>
    4680:	e3570000 	cmp	r7, #0
    4684:	1afffd1e 	bne	3b04 <__svfscanf_r+0x6cc>
    4688:	eafffc4b 	b	37bc <__svfscanf_r+0x384>
    468c:	e59dc014 	ldr	r12, [sp, #20]
    4690:	e1a03006 	mov	r3, r6
    4694:	e59c1000 	ldr	r1, [r12]
    4698:	e1a0000b 	mov	r0, r11
    469c:	e58d4000 	str	r4, [sp]
    46a0:	e3a02001 	mov	r2, #1
    46a4:	eb000976 	bl	6c84 <_fread_r>
    46a8:	e59dc014 	ldr	r12, [sp, #20]
    46ac:	e3500000 	cmp	r0, #0
    46b0:	e28c3004 	add	r3, r12, #4
    46b4:	0afffc2b 	beq	3768 <__svfscanf_r+0x330>
    46b8:	e0809009 	add	r9, r0, r9
    46bc:	eaffff89 	b	44e8 <__svfscanf_r+0x10b0>
    46c0:	e3170001 	tst	r7, #1
    46c4:	1a00000a 	bne	46f4 <__svfscanf_r+0x12bc>
    46c8:	e3170002 	tst	r7, #2
    46cc:	0a000008 	beq	46f4 <__svfscanf_r+0x12bc>
    46d0:	e59dc014 	ldr	r12, [sp, #20]
    46d4:	e59c3000 	ldr	r3, [r12]
    46d8:	e1a01fc9 	asr	r1, r9, #31
    46dc:	e28cc004 	add	r12, r12, #4
    46e0:	e5839000 	str	r9, [r3]
    46e4:	e5831004 	str	r1, [r3, #4]
    46e8:	e58dc014 	str	r12, [sp, #20]
    46ec:	e59d8018 	ldr	r8, [sp, #24]
    46f0:	eafffb84 	b	3508 <__svfscanf_r+0xd0>
    46f4:	e59dc014 	ldr	r12, [sp, #20]
    46f8:	e59c3000 	ldr	r3, [r12]
    46fc:	e28cc004 	add	r12, r12, #4
    4700:	e59d8018 	ldr	r8, [sp, #24]
    4704:	e5839000 	str	r9, [r3]
    4708:	e58dc014 	str	r12, [sp, #20]
    470c:	eafffb7d 	b	3508 <__svfscanf_r+0xd0>
    4710:	e1a0000b 	mov	r0, r11
    4714:	e1a02004 	mov	r2, r4
    4718:	eb0026fc 	bl	e310 <_ungetc_r>
    471c:	e2499001 	sub	r9, r9, #1
    4720:	e55a1002 	ldrb	r1, [r10, #-2]
    4724:	e24aa002 	sub	r10, r10, #2
    4728:	eafffe02 	b	3f38 <__svfscanf_r+0xb00>
    472c:	e0663003 	rsb	r3, r6, r3
    4730:	e0822006 	add	r2, r2, r6
    4734:	e884000c 	stm	r4, {r2, r3}
    4738:	e0877006 	add	r7, r7, r6
    473c:	eafffcf0 	b	3b04 <__svfscanf_r+0x6cc>
    4740:	e59dc030 	ldr	r12, [sp, #48]	; 0x30
    4744:	e1a0000b 	mov	r0, r11
    4748:	e28c1001 	add	r1, r12, #1
    474c:	e3a0300a 	mov	r3, #10
    4750:	eb001c9a 	bl	b9c0 <_strtol_r>
    4754:	e59dc038 	ldr	r12, [sp, #56]	; 0x38
    4758:	e06c2000 	rsb	r2, r12, r0
    475c:	e59dc030 	ldr	r12, [sp, #48]	; 0x30
    4760:	e28d3faa 	add	r3, sp, #680	; 0x2a8
    4764:	e2833003 	add	r3, r3, #3
    4768:	e15c0003 	cmp	r12, r3
    476c:	228dcfaa 	addcs	r12, sp, #680	; 0x2a8
    4770:	228cc002 	addcs	r12, r12, #2
    4774:	258dc030 	strcs	r12, [sp, #48]	; 0x30
    4778:	e51f1324 	ldr	r1, [pc, #-804]	; 445c <__svfscanf_r+0x1024>
    477c:	e59d0030 	ldr	r0, [sp, #48]	; 0x30
    4780:	eb0015e9 	bl	9f2c <sprintf>
    4784:	eafffdf7 	b	3f68 <__svfscanf_r+0xb30>
    4788:	e59d3028 	ldr	r3, [sp, #40]	; 0x28
    478c:	e59dc034 	ldr	r12, [sp, #52]	; 0x34
    4790:	e06c2003 	rsb	r2, r12, r3
    4794:	e3520000 	cmp	r2, #0
    4798:	158da030 	strne	r10, [sp, #48]	; 0x30
    479c:	e2622000 	rsb	r2, r2, #0
    47a0:	1affffed 	bne	475c <__svfscanf_r+0x1324>
    47a4:	eafffdef 	b	3f68 <__svfscanf_r+0xb30>
    47a8:	eb000c3b 	bl	789c <__locale_mb_cur_max>
    47ac:	e1500007 	cmp	r0, r7
    47b0:	0afffbec 	beq	3768 <__svfscanf_r+0x330>
    47b4:	e5943000 	ldr	r3, [r4]
    47b8:	e5942004 	ldr	r2, [r4, #4]
    47bc:	e4d3e001 	ldrb	lr, [r3], #1
    47c0:	e28d0fae 	add	r0, sp, #696	; 0x2b8
    47c4:	e080c007 	add	r12, r0, r7
    47c8:	e2422001 	sub	r2, r2, #1
    47cc:	e28d1050 	add	r1, sp, #80	; 0x50
    47d0:	e2877001 	add	r7, r7, #1
    47d4:	e5842004 	str	r2, [r4, #4]
    47d8:	e5843000 	str	r3, [r4]
    47dc:	e1a0000b 	mov	r0, r11
    47e0:	e58d1000 	str	r1, [sp]
    47e4:	e28d2f56 	add	r2, sp, #344	; 0x158
    47e8:	e1a01008 	mov	r1, r8
    47ec:	e1a03007 	mov	r3, r7
    47f0:	e54ce160 	strb	lr, [r12, #-352]	; 0xfffffea0
    47f4:	eb000e5c 	bl	816c <_mbrtowc_r>
    47f8:	e3700001 	cmn	r0, #1
    47fc:	0afffbd9 	beq	3768 <__svfscanf_r+0x330>
    4800:	e3500000 	cmp	r0, #0
    4804:	05880000 	streq	r0, [r8]
    4808:	1a000034 	bne	48e0 <__svfscanf_r+0x14a8>
    480c:	eb000bfb 	bl	7800 <iswspace>
    4810:	e3500000 	cmp	r0, #0
    4814:	0a000035 	beq	48f0 <__svfscanf_r+0x14b8>
    4818:	e3570000 	cmp	r7, #0
    481c:	0afffebb 	beq	4310 <__svfscanf_r+0xed8>
    4820:	e28d2f56 	add	r2, sp, #344	; 0x158
    4824:	e0826007 	add	r6, r2, r7
    4828:	e2477001 	sub	r7, r7, #1
    482c:	e1a0000b 	mov	r0, r11
    4830:	e5761001 	ldrb	r1, [r6, #-1]!
    4834:	e1a02004 	mov	r2, r4
    4838:	eb0026b4 	bl	e310 <_ungetc_r>
    483c:	e3570000 	cmp	r7, #0
    4840:	1afffff8 	bne	4828 <__svfscanf_r+0x13f0>
    4844:	eafffeb1 	b	4310 <__svfscanf_r+0xed8>
    4848:	e15c0007 	cmp	r12, r7
    484c:	e1a0800c 	mov	r8, r12
    4850:	1afffef4 	bne	4428 <__svfscanf_r+0xff0>
    4854:	eafffbc3 	b	3768 <__svfscanf_r+0x330>
    4858:	e2172001 	ands	r2, r7, #1
    485c:	1affff81 	bne	4668 <__svfscanf_r+0x1230>
    4860:	e3170002 	tst	r7, #2
    4864:	0a00004f 	beq	49a8 <__svfscanf_r+0x1570>
    4868:	e51f0410 	ldr	r0, [pc, #-1040]	; 4460 <__svfscanf_r+0x1028>
    486c:	e59dc01c 	ldr	r12, [sp, #28]
    4870:	e15c0000 	cmp	r12, r0
    4874:	e59d102c 	ldr	r1, [sp, #44]	; 0x2c
    4878:	e1a0000b 	mov	r0, r11
    487c:	e59d3024 	ldr	r3, [sp, #36]	; 0x24
    4880:	0a000046 	beq	49a0 <__svfscanf_r+0x1568>
    4884:	eb001ccb 	bl	bbb8 <_strtoll_r>
    4888:	e59dc014 	ldr	r12, [sp, #20]
    488c:	e59c3000 	ldr	r3, [r12]
    4890:	e28cc004 	add	r12, r12, #4
    4894:	e58dc014 	str	r12, [sp, #20]
    4898:	e8830003 	stm	r3, {r0, r1}
    489c:	eaffff6d 	b	4658 <__svfscanf_r+0x1220>
    48a0:	e59c6000 	ldr	r6, [r12]
    48a4:	e58d0010 	str	r0, [sp, #16]
    48a8:	e58d1008 	str	r1, [sp, #8]
    48ac:	eb001523 	bl	9d40 <__fpclassifyd>
    48b0:	e59dc014 	ldr	r12, [sp, #20]
    48b4:	e3500000 	cmp	r0, #0
    48b8:	e28c7004 	add	r7, r12, #4
    48bc:	e59d2010 	ldr	r2, [sp, #16]
    48c0:	e59d3008 	ldr	r3, [sp, #8]
    48c4:	0a00003d 	beq	49c0 <__svfscanf_r+0x1588>
    48c8:	e1a00002 	mov	r0, r2
    48cc:	e1a01003 	mov	r1, r3
    48d0:	eb0036b4 	bl	123a8 <__aeabi_d2f>
    48d4:	e58d7014 	str	r7, [sp, #20]
    48d8:	e5860000 	str	r0, [r6]
    48dc:	eafffdb0 	b	3fa4 <__svfscanf_r+0xb6c>
    48e0:	e3700002 	cmn	r0, #2
    48e4:	0a000007 	beq	4908 <__svfscanf_r+0x14d0>
    48e8:	e5980000 	ldr	r0, [r8]
    48ec:	eaffffc6 	b	480c <__svfscanf_r+0x13d4>
    48f0:	e35a0000 	cmp	r10, #0
    48f4:	e0899007 	add	r9, r9, r7
    48f8:	e2466001 	sub	r6, r6, #1
    48fc:	02888004 	addeq	r8, r8, #4
    4900:	01a0700a 	moveq	r7, r10
    4904:	11a07000 	movne	r7, r0
    4908:	e5943004 	ldr	r3, [r4, #4]
    490c:	e3530000 	cmp	r3, #0
    4910:	cafffe75 	bgt	42ec <__svfscanf_r+0xeb4>
    4914:	e1a0000b 	mov	r0, r11
    4918:	e1a01004 	mov	r1, r4
    491c:	eb00149e 	bl	9b9c <__srefill_r>
    4920:	e3500000 	cmp	r0, #0
    4924:	0afffe70 	beq	42ec <__svfscanf_r+0xeb4>
    4928:	e3570000 	cmp	r7, #0
    492c:	1afffb8d 	bne	3768 <__svfscanf_r+0x330>
    4930:	eafffe76 	b	4310 <__svfscanf_r+0xed8>
    4934:	e59dc02c 	ldr	r12, [sp, #44]	; 0x2c
    4938:	e15a000c 	cmp	r10, r12
    493c:	9afffb9e 	bls	37bc <__svfscanf_r+0x384>
    4940:	e1a0500a 	mov	r5, r10
    4944:	e5751001 	ldrb	r1, [r5, #-1]!
    4948:	e1a0000b 	mov	r0, r11
    494c:	e1a02004 	mov	r2, r4
    4950:	eb00266e 	bl	e310 <_ungetc_r>
    4954:	e59dc02c 	ldr	r12, [sp, #44]	; 0x2c
    4958:	e155000c 	cmp	r5, r12
    495c:	1afffff8 	bne	4944 <__svfscanf_r+0x150c>
    4960:	eafffb95 	b	37bc <__svfscanf_r+0x384>
    4964:	e58db028 	str	r11, [sp, #40]	; 0x28
    4968:	e1a0b002 	mov	r11, r2
    496c:	eafffd4c 	b	3ea4 <__svfscanf_r+0xa6c>
    4970:	e59dc02c 	ldr	r12, [sp, #44]	; 0x2c
    4974:	e15a000c 	cmp	r10, r12
    4978:	81a0500a 	movhi	r5, r10
    497c:	9afffb8e 	bls	37bc <__svfscanf_r+0x384>
    4980:	e5751001 	ldrb	r1, [r5, #-1]!
    4984:	e1a0000b 	mov	r0, r11
    4988:	e1a02004 	mov	r2, r4
    498c:	eb00265f 	bl	e310 <_ungetc_r>
    4990:	e59dc02c 	ldr	r12, [sp, #44]	; 0x2c
    4994:	e155000c 	cmp	r5, r12
    4998:	1afffff8 	bne	4980 <__svfscanf_r+0x1548>
    499c:	eafffb86 	b	37bc <__svfscanf_r+0x384>
    49a0:	eb001da6 	bl	c040 <_strtoull_r>
    49a4:	eaffffb7 	b	4888 <__svfscanf_r+0x1450>
    49a8:	e59dc014 	ldr	r12, [sp, #20]
    49ac:	e59c3000 	ldr	r3, [r12]
    49b0:	e28cc004 	add	r12, r12, #4
    49b4:	e5830000 	str	r0, [r3]
    49b8:	e58dc014 	str	r12, [sp, #20]
    49bc:	eaffff25 	b	4658 <__svfscanf_r+0x1220>
    49c0:	eb00153c 	bl	9eb8 <nanf>
    49c4:	e58d7014 	str	r7, [sp, #20]
    49c8:	e5860000 	str	r0, [r6]
    49cc:	eafffd74 	b	3fa4 <__svfscanf_r+0xb6c>

000049d0 <_vfscanf_r>:
    49d0:	e92d4010 	push	{r4, lr}
    49d4:	e2504000 	subs	r4, r0, #0
    49d8:	e24dd010 	sub	sp, sp, #16
    49dc:	0a000009 	beq	4a08 <_vfscanf_r+0x38>
    49e0:	e594c038 	ldr	r12, [r4, #56]	; 0x38
    49e4:	e35c0000 	cmp	r12, #0
    49e8:	1a000006 	bne	4a08 <_vfscanf_r+0x38>
    49ec:	e58d100c 	str	r1, [sp, #12]
    49f0:	e58d2008 	str	r2, [sp, #8]
    49f4:	e58d3004 	str	r3, [sp, #4]
    49f8:	eb00081e 	bl	6a78 <__sinit>
    49fc:	e59d3004 	ldr	r3, [sp, #4]
    4a00:	e59d2008 	ldr	r2, [sp, #8]
    4a04:	e59d100c 	ldr	r1, [sp, #12]
    4a08:	e1a00004 	mov	r0, r4
    4a0c:	e28dd010 	add	sp, sp, #16
    4a10:	e8bd4010 	pop	{r4, lr}
    4a14:	eafffa87 	b	3438 <__svfscanf_r>

00004a18 <__svfscanf>:
    4a18:	e52d4004 	push	{r4}		; (str r4, [sp, #-4]!)
    4a1c:	e1a03002 	mov	r3, r2
    4a20:	e59f2018 	ldr	r2, [pc, #24]	; 4a40 <__svfscanf+0x28>
    4a24:	e1a04000 	mov	r4, r0
    4a28:	e1a0c001 	mov	r12, r1
    4a2c:	e5920000 	ldr	r0, [r2]
    4a30:	e1a01004 	mov	r1, r4
    4a34:	e1a0200c 	mov	r2, r12
    4a38:	e8bd0010 	ldmfd	sp!, {r4}
    4a3c:	eafffa7d 	b	3438 <__svfscanf_r>
    4a40:	00013c00 	.word	0x00013c00

00004a44 <vfscanf>:
    4a44:	e92d41f0 	push	{r4, r5, r6, r7, r8, lr}
    4a48:	e59f4044 	ldr	r4, [pc, #68]	; 4a94 <vfscanf+0x50>
    4a4c:	e594c000 	ldr	r12, [r4]
    4a50:	e35c0000 	cmp	r12, #0
    4a54:	e1a07000 	mov	r7, r0
    4a58:	e1a06001 	mov	r6, r1
    4a5c:	e1a05002 	mov	r5, r2
    4a60:	0a000005 	beq	4a7c <vfscanf+0x38>
    4a64:	e59c3038 	ldr	r3, [r12, #56]	; 0x38
    4a68:	e3530000 	cmp	r3, #0
    4a6c:	1a000002 	bne	4a7c <vfscanf+0x38>
    4a70:	e1a0000c 	mov	r0, r12
    4a74:	eb0007ff 	bl	6a78 <__sinit>
    4a78:	e594c000 	ldr	r12, [r4]
    4a7c:	e1a0000c 	mov	r0, r12
    4a80:	e1a01007 	mov	r1, r7
    4a84:	e1a02006 	mov	r2, r6
    4a88:	e1a03005 	mov	r3, r5
    4a8c:	e8bd41f0 	pop	{r4, r5, r6, r7, r8, lr}
    4a90:	eafffa68 	b	3438 <__svfscanf_r>
    4a94:	00013c00 	.word	0x00013c00

00004a98 <__swsetup_r>:
    4a98:	e92d4038 	push	{r3, r4, r5, lr}
    4a9c:	e59f3128 	ldr	r3, [pc, #296]	; 4bcc <__swsetup_r+0x134>
    4aa0:	e5933000 	ldr	r3, [r3]
    4aa4:	e3530000 	cmp	r3, #0
    4aa8:	e1a05000 	mov	r5, r0
    4aac:	e1a04001 	mov	r4, r1
    4ab0:	0a000002 	beq	4ac0 <__swsetup_r+0x28>
    4ab4:	e5932038 	ldr	r2, [r3, #56]	; 0x38
    4ab8:	e3520000 	cmp	r2, #0
    4abc:	0a00002e 	beq	4b7c <__swsetup_r+0xe4>
    4ac0:	e1d430bc 	ldrh	r3, [r4, #12]
    4ac4:	e3130008 	tst	r3, #8
    4ac8:	e1a02003 	mov	r2, r3
    4acc:	0a00000c 	beq	4b04 <__swsetup_r+0x6c>
    4ad0:	e5942010 	ldr	r2, [r4, #16]
    4ad4:	e3520000 	cmp	r2, #0
    4ad8:	0a000012 	beq	4b28 <__swsetup_r+0x90>
    4adc:	e2131001 	ands	r1, r3, #1
    4ae0:	1a000019 	bne	4b4c <__swsetup_r+0xb4>
    4ae4:	e3130002 	tst	r3, #2
    4ae8:	05941014 	ldreq	r1, [r4, #20]
    4aec:	e3520000 	cmp	r2, #0
    4af0:	e5841008 	str	r1, [r4, #8]
    4af4:	0a00001b 	beq	4b68 <__swsetup_r+0xd0>
    4af8:	e3a00000 	mov	r0, #0
    4afc:	e8bd4038 	pop	{r3, r4, r5, lr}
    4b00:	e12fff1e 	bx	lr
    4b04:	e3130010 	tst	r3, #16
    4b08:	0a000019 	beq	4b74 <__swsetup_r+0xdc>
    4b0c:	e3120004 	tst	r2, #4
    4b10:	1a00001c 	bne	4b88 <__swsetup_r+0xf0>
    4b14:	e5942010 	ldr	r2, [r4, #16]
    4b18:	e3833008 	orr	r3, r3, #8
    4b1c:	e3520000 	cmp	r2, #0
    4b20:	e1c430bc 	strh	r3, [r4, #12]
    4b24:	1affffec 	bne	4adc <__swsetup_r+0x44>
    4b28:	e2031d0a 	and	r1, r3, #640	; 0x280
    4b2c:	e3510c02 	cmp	r1, #512	; 0x200
    4b30:	0affffe9 	beq	4adc <__swsetup_r+0x44>
    4b34:	e1a00005 	mov	r0, r5
    4b38:	e1a01004 	mov	r1, r4
    4b3c:	eb000b6c 	bl	78f4 <__smakebuf_r>
    4b40:	e1d430bc 	ldrh	r3, [r4, #12]
    4b44:	e5942010 	ldr	r2, [r4, #16]
    4b48:	eaffffe3 	b	4adc <__swsetup_r+0x44>
    4b4c:	e5943014 	ldr	r3, [r4, #20]
    4b50:	e3a01000 	mov	r1, #0
    4b54:	e2633000 	rsb	r3, r3, #0
    4b58:	e3520000 	cmp	r2, #0
    4b5c:	e5841008 	str	r1, [r4, #8]
    4b60:	e5843018 	str	r3, [r4, #24]
    4b64:	1affffe3 	bne	4af8 <__swsetup_r+0x60>
    4b68:	e1d430bc 	ldrh	r3, [r4, #12]
    4b6c:	e3130080 	tst	r3, #128	; 0x80
    4b70:	0affffe0 	beq	4af8 <__swsetup_r+0x60>
    4b74:	e3e00000 	mvn	r0, #0
    4b78:	eaffffdf 	b	4afc <__swsetup_r+0x64>
    4b7c:	e1a00003 	mov	r0, r3
    4b80:	eb0007bc 	bl	6a78 <__sinit>
    4b84:	eaffffcd 	b	4ac0 <__swsetup_r+0x28>
    4b88:	e5941030 	ldr	r1, [r4, #48]	; 0x30
    4b8c:	e3510000 	cmp	r1, #0
    4b90:	0a000007 	beq	4bb4 <__swsetup_r+0x11c>
    4b94:	e2842040 	add	r2, r4, #64	; 0x40
    4b98:	e1510002 	cmp	r1, r2
    4b9c:	0a000002 	beq	4bac <__swsetup_r+0x114>
    4ba0:	e1a00005 	mov	r0, r5
    4ba4:	eb000904 	bl	6fbc <_free_r>
    4ba8:	e1d430bc 	ldrh	r3, [r4, #12]
    4bac:	e3a02000 	mov	r2, #0
    4bb0:	e5842030 	str	r2, [r4, #48]	; 0x30
    4bb4:	e5942010 	ldr	r2, [r4, #16]
    4bb8:	e3a01000 	mov	r1, #0
    4bbc:	e3c33024 	bic	r3, r3, #36	; 0x24
    4bc0:	e5841004 	str	r1, [r4, #4]
    4bc4:	e5842000 	str	r2, [r4]
    4bc8:	eaffffd2 	b	4b18 <__swsetup_r+0x80>
    4bcc:	00013c00 	.word	0x00013c00

00004bd0 <__register_exitproc>:
    4bd0:	e59fc0e4 	ldr	r12, [pc, #228]	; 4cbc <__register_exitproc+0xec>
    4bd4:	e92d41f0 	push	{r4, r5, r6, r7, r8, lr}
    4bd8:	e59c4000 	ldr	r4, [r12]
    4bdc:	e594c148 	ldr	r12, [r4, #328]	; 0x148
    4be0:	e35c0000 	cmp	r12, #0
    4be4:	0284cf53 	addeq	r12, r4, #332	; 0x14c
    4be8:	e59c5004 	ldr	r5, [r12, #4]
    4bec:	0584c148 	streq	r12, [r4, #328]	; 0x148
    4bf0:	e355001f 	cmp	r5, #31
    4bf4:	e24dd010 	sub	sp, sp, #16
    4bf8:	e1a06000 	mov	r6, r0
    4bfc:	da000015 	ble	4c58 <__register_exitproc+0x88>
    4c00:	e59f00b8 	ldr	r0, [pc, #184]	; 4cc0 <__register_exitproc+0xf0>
    4c04:	e3500000 	cmp	r0, #0
    4c08:	1a000001 	bne	4c14 <__register_exitproc+0x44>
    4c0c:	e3e00000 	mvn	r0, #0
    4c10:	ea000018 	b	4c78 <__register_exitproc+0xa8>
    4c14:	e3a00e19 	mov	r0, #400	; 0x190
    4c18:	e58d100c 	str	r1, [sp, #12]
    4c1c:	e58d2008 	str	r2, [sp, #8]
    4c20:	e58d3004 	str	r3, [sp, #4]
    4c24:	e320f000 	nop	{0}
    4c28:	e250c000 	subs	r12, r0, #0
    4c2c:	e59d100c 	ldr	r1, [sp, #12]
    4c30:	e59d2008 	ldr	r2, [sp, #8]
    4c34:	e59d3004 	ldr	r3, [sp, #4]
    4c38:	0afffff3 	beq	4c0c <__register_exitproc+0x3c>
    4c3c:	e5945148 	ldr	r5, [r4, #328]	; 0x148
    4c40:	e3a00000 	mov	r0, #0
    4c44:	e58c0004 	str	r0, [r12, #4]
    4c48:	e58c5000 	str	r5, [r12]
    4c4c:	e584c148 	str	r12, [r4, #328]	; 0x148
    4c50:	e58c0188 	str	r0, [r12, #392]	; 0x188
    4c54:	e58c018c 	str	r0, [r12, #396]	; 0x18c
    4c58:	e3560000 	cmp	r6, #0
    4c5c:	e59c4004 	ldr	r4, [r12, #4]
    4c60:	1a000007 	bne	4c84 <__register_exitproc+0xb4>
    4c64:	e2843002 	add	r3, r4, #2
    4c68:	e2844001 	add	r4, r4, #1
    4c6c:	e78c1103 	str	r1, [r12, r3, lsl #2]
    4c70:	e58c4004 	str	r4, [r12, #4]
    4c74:	e3a00000 	mov	r0, #0
    4c78:	e28dd010 	add	sp, sp, #16
    4c7c:	e8bd41f0 	pop	{r4, r5, r6, r7, r8, lr}
    4c80:	e12fff1e 	bx	lr
    4c84:	e3a00001 	mov	r0, #1
    4c88:	e1a00410 	lsl	r0, r0, r4
    4c8c:	e08c8104 	add	r8, r12, r4, lsl #2
    4c90:	e3560002 	cmp	r6, #2
    4c94:	e59c7188 	ldr	r7, [r12, #392]	; 0x188
    4c98:	e5883108 	str	r3, [r8, #264]	; 0x108
    4c9c:	059c318c 	ldreq	r3, [r12, #396]	; 0x18c
    4ca0:	e1877000 	orr	r7, r7, r0
    4ca4:	01830000 	orreq	r0, r3, r0
    4ca8:	e1a05008 	mov	r5, r8
    4cac:	e5882088 	str	r2, [r8, #136]	; 0x88
    4cb0:	e58c7188 	str	r7, [r12, #392]	; 0x188
    4cb4:	058c018c 	streq	r0, [r12, #396]	; 0x18c
    4cb8:	eaffffe9 	b	4c64 <__register_exitproc+0x94>
    4cbc:	00013804 	.word	0x00013804
    4cc0:	00000000 	.word	0x00000000

00004cc4 <__call_exitprocs>:
    4cc4:	e92d4ff0 	push	{r4, r5, r6, r7, r8, r9, r10, r11, lr}
    4cc8:	e59f3168 	ldr	r3, [pc, #360]	; 4e38 <__call_exitprocs+0x174>
    4ccc:	e5933000 	ldr	r3, [r3]
    4cd0:	e24dd014 	sub	sp, sp, #20
    4cd4:	e58d3004 	str	r3, [sp, #4]
    4cd8:	e2833f52 	add	r3, r3, #328	; 0x148
    4cdc:	e58d0008 	str	r0, [sp, #8]
    4ce0:	e58d300c 	str	r3, [sp, #12]
    4ce4:	e1a07001 	mov	r7, r1
    4ce8:	e3a08001 	mov	r8, #1
    4cec:	e59d3004 	ldr	r3, [sp, #4]
    4cf0:	e5936148 	ldr	r6, [r3, #328]	; 0x148
    4cf4:	e3560000 	cmp	r6, #0
    4cf8:	e59db00c 	ldr	r11, [sp, #12]
    4cfc:	0a000033 	beq	4dd0 <__call_exitprocs+0x10c>
    4d00:	e5965004 	ldr	r5, [r6, #4]
    4d04:	e2554001 	subs	r4, r5, #1
    4d08:	5286a088 	addpl	r10, r6, #136	; 0x88
    4d0c:	5285501f 	addpl	r5, r5, #31
    4d10:	508a5105 	addpl	r5, r10, r5, lsl #2
    4d14:	5a000007 	bpl	4d38 <__call_exitprocs+0x74>
    4d18:	ea000029 	b	4dc4 <__call_exitprocs+0x100>
    4d1c:	e5953000 	ldr	r3, [r5]
    4d20:	e1530007 	cmp	r3, r7
    4d24:	0a000005 	beq	4d40 <__call_exitprocs+0x7c>
    4d28:	e2444001 	sub	r4, r4, #1
    4d2c:	e3740001 	cmn	r4, #1
    4d30:	e2455004 	sub	r5, r5, #4
    4d34:	0a000022 	beq	4dc4 <__call_exitprocs+0x100>
    4d38:	e3570000 	cmp	r7, #0
    4d3c:	1afffff6 	bne	4d1c <__call_exitprocs+0x58>
    4d40:	e5963004 	ldr	r3, [r6, #4]
    4d44:	e06a2005 	rsb	r2, r10, r5
    4d48:	e2433001 	sub	r3, r3, #1
    4d4c:	e0862002 	add	r2, r6, r2
    4d50:	e1530004 	cmp	r3, r4
    4d54:	e5123078 	ldr	r3, [r2, #-120]	; 0xffffff88
    4d58:	13a01000 	movne	r1, #0
    4d5c:	05864004 	streq	r4, [r6, #4]
    4d60:	15021078 	strne	r1, [r2, #-120]	; 0xffffff88
    4d64:	e3530000 	cmp	r3, #0
    4d68:	0affffee 	beq	4d28 <__call_exitprocs+0x64>
    4d6c:	e1a02418 	lsl	r2, r8, r4
    4d70:	e5961188 	ldr	r1, [r6, #392]	; 0x188
    4d74:	e1120001 	tst	r2, r1
    4d78:	e5969004 	ldr	r9, [r6, #4]
    4d7c:	0a000016 	beq	4ddc <__call_exitprocs+0x118>
    4d80:	e596118c 	ldr	r1, [r6, #396]	; 0x18c
    4d84:	e1120001 	tst	r2, r1
    4d88:	1a000016 	bne	4de8 <__call_exitprocs+0x124>
    4d8c:	e59d0008 	ldr	r0, [sp, #8]
    4d90:	e5151080 	ldr	r1, [r5, #-128]	; 0xffffff80
    4d94:	e1a0e00f 	mov	lr, pc
    4d98:	e12fff13 	bx	r3
    4d9c:	e5963004 	ldr	r3, [r6, #4]
    4da0:	e1530009 	cmp	r3, r9
    4da4:	1affffd0 	bne	4cec <__call_exitprocs+0x28>
    4da8:	e59b3000 	ldr	r3, [r11]
    4dac:	e1530006 	cmp	r3, r6
    4db0:	1affffcd 	bne	4cec <__call_exitprocs+0x28>
    4db4:	e2444001 	sub	r4, r4, #1
    4db8:	e3740001 	cmn	r4, #1
    4dbc:	e2455004 	sub	r5, r5, #4
    4dc0:	1affffdc 	bne	4d38 <__call_exitprocs+0x74>
    4dc4:	e59f1070 	ldr	r1, [pc, #112]	; 4e3c <__call_exitprocs+0x178>
    4dc8:	e3510000 	cmp	r1, #0
    4dcc:	1a000009 	bne	4df8 <__call_exitprocs+0x134>
    4dd0:	e28dd014 	add	sp, sp, #20
    4dd4:	e8bd4ff0 	pop	{r4, r5, r6, r7, r8, r9, r10, r11, lr}
    4dd8:	e12fff1e 	bx	lr
    4ddc:	e1a0e00f 	mov	lr, pc
    4de0:	e12fff13 	bx	r3
    4de4:	eaffffec 	b	4d9c <__call_exitprocs+0xd8>
    4de8:	e5150080 	ldr	r0, [r5, #-128]	; 0xffffff80
    4dec:	e1a0e00f 	mov	lr, pc
    4df0:	e12fff13 	bx	r3
    4df4:	eaffffe8 	b	4d9c <__call_exitprocs+0xd8>
    4df8:	e5963004 	ldr	r3, [r6, #4]
    4dfc:	e3530000 	cmp	r3, #0
    4e00:	e5963000 	ldr	r3, [r6]
    4e04:	1a000008 	bne	4e2c <__call_exitprocs+0x168>
    4e08:	e3530000 	cmp	r3, #0
    4e0c:	0a000006 	beq	4e2c <__call_exitprocs+0x168>
    4e10:	e1a00006 	mov	r0, r6
    4e14:	e58b3000 	str	r3, [r11]
    4e18:	e320f000 	nop	{0}
    4e1c:	e59b6000 	ldr	r6, [r11]
    4e20:	e3560000 	cmp	r6, #0
    4e24:	1affffb5 	bne	4d00 <__call_exitprocs+0x3c>
    4e28:	eaffffe8 	b	4dd0 <__call_exitprocs+0x10c>
    4e2c:	e1a0b006 	mov	r11, r6
    4e30:	e1a06003 	mov	r6, r3
    4e34:	eafffff9 	b	4e20 <__call_exitprocs+0x15c>
    4e38:	00013804 	.word	0x00013804
    4e3c:	00000000 	.word	0x00000000

00004e40 <register_fini>:
    4e40:	e92d4008 	push	{r3, lr}
    4e44:	e59f3010 	ldr	r3, [pc, #16]	; 4e5c <register_fini+0x1c>
    4e48:	e3530000 	cmp	r3, #0
    4e4c:	159f000c 	ldrne	r0, [pc, #12]	; 4e60 <register_fini+0x20>
    4e50:	1bfff083 	blne	1064 <atexit>
    4e54:	e8bd4008 	pop	{r3, lr}
    4e58:	e12fff1e 	bx	lr
    4e5c:	00013bc4 	.word	0x00013bc4
    4e60:	00006c40 	.word	0x00006c40
    4e64:	00000000 	.word	0x00000000

00004e68 <quorem>:
    4e68:	e92d4ff8 	push	{r3, r4, r5, r6, r7, r8, r9, r10, r11, lr}
    4e6c:	e5903010 	ldr	r3, [r0, #16]
    4e70:	e5916010 	ldr	r6, [r1, #16]
    4e74:	e1560003 	cmp	r6, r3
    4e78:	e1a0a000 	mov	r10, r0
    4e7c:	e1a05001 	mov	r5, r1
    4e80:	c3a00000 	movgt	r0, #0
    4e84:	ca00006d 	bgt	5040 <quorem+0x1d8>
    4e88:	e2863003 	add	r3, r6, #3
    4e8c:	e1a03103 	lsl	r3, r3, #2
    4e90:	e0819003 	add	r9, r1, r3
    4e94:	e5991004 	ldr	r1, [r9, #4]
    4e98:	e08a3003 	add	r3, r10, r3
    4e9c:	e5930004 	ldr	r0, [r3, #4]
    4ea0:	e2811001 	add	r1, r1, #1
    4ea4:	eb00347c 	bl	1209c <__aeabi_uidiv>
    4ea8:	e2507000 	subs	r7, r0, #0
    4eac:	e2466001 	sub	r6, r6, #1
    4eb0:	e2899004 	add	r9, r9, #4
    4eb4:	e2854014 	add	r4, r5, #20
    4eb8:	e28a8014 	add	r8, r10, #20
    4ebc:	0a000030 	beq	4f84 <quorem+0x11c>
    4ec0:	e3a0c000 	mov	r12, #0
    4ec4:	e1a02008 	mov	r2, r8
    4ec8:	e1a03004 	mov	r3, r4
    4ecc:	e1a0000c 	mov	r0, r12
    4ed0:	e493e004 	ldr	lr, [r3], #4
    4ed4:	e1a0b80e 	lsl	r11, lr, #16
    4ed8:	e1a0b82b 	lsr	r11, r11, #16
    4edc:	e1a0e82e 	lsr	lr, lr, #16
    4ee0:	e02bcb97 	mla	r11, r7, r11, r12
    4ee4:	e00c0e97 	mul	r12, r7, lr
    4ee8:	e592e000 	ldr	lr, [r2]
    4eec:	e08cc82b 	add	r12, r12, r11, lsr #16
    4ef0:	e1a0180e 	lsl	r1, lr, #16
    4ef4:	e0801821 	add	r1, r0, r1, lsr #16
    4ef8:	e1a0b80b 	lsl	r11, r11, #16
    4efc:	e1a0080c 	lsl	r0, r12, #16
    4f00:	e041182b 	sub	r1, r1, r11, lsr #16
    4f04:	e1a00820 	lsr	r0, r0, #16
    4f08:	e060082e 	rsb	r0, r0, lr, lsr #16
    4f0c:	e1a0b801 	lsl	r11, r1, #16
    4f10:	e0800841 	add	r0, r0, r1, asr #16
    4f14:	e1a0182b 	lsr	r1, r11, #16
    4f18:	e1811800 	orr	r1, r1, r0, lsl #16
    4f1c:	e1590003 	cmp	r9, r3
    4f20:	e1a0c82c 	lsr	r12, r12, #16
    4f24:	e1a00840 	asr	r0, r0, #16
    4f28:	e4821004 	str	r1, [r2], #4
    4f2c:	2affffe7 	bcs	4ed0 <quorem+0x68>
    4f30:	e2863004 	add	r3, r6, #4
    4f34:	e08a3103 	add	r3, r10, r3, lsl #2
    4f38:	e5932004 	ldr	r2, [r3, #4]
    4f3c:	e3520000 	cmp	r2, #0
    4f40:	1a00000f 	bne	4f84 <quorem+0x11c>
    4f44:	e1580003 	cmp	r8, r3
    4f48:	e2832004 	add	r2, r3, #4
    4f4c:	2a00000b 	bcs	4f80 <quorem+0x118>
    4f50:	e5122004 	ldr	r2, [r2, #-4]
    4f54:	e3520000 	cmp	r2, #0
    4f58:	1a000008 	bne	4f80 <quorem+0x118>
    4f5c:	e2433004 	sub	r3, r3, #4
    4f60:	ea000003 	b	4f74 <quorem+0x10c>
    4f64:	e5932000 	ldr	r2, [r3]
    4f68:	e3520000 	cmp	r2, #0
    4f6c:	e2433004 	sub	r3, r3, #4
    4f70:	1a000002 	bne	4f80 <quorem+0x118>
    4f74:	e1580003 	cmp	r8, r3
    4f78:	e2466001 	sub	r6, r6, #1
    4f7c:	3afffff8 	bcc	4f64 <quorem+0xfc>
    4f80:	e58a6010 	str	r6, [r10, #16]
    4f84:	e1a0000a 	mov	r0, r10
    4f88:	e1a01005 	mov	r1, r5
    4f8c:	eb001029 	bl	9038 <__mcmp>
    4f90:	e3500000 	cmp	r0, #0
    4f94:	ba000028 	blt	503c <quorem+0x1d4>
    4f98:	e2877001 	add	r7, r7, #1
    4f9c:	e1a03008 	mov	r3, r8
    4fa0:	e3a02000 	mov	r2, #0
    4fa4:	e4945004 	ldr	r5, [r4], #4
    4fa8:	e593c000 	ldr	r12, [r3]
    4fac:	e1a01805 	lsl	r1, r5, #16
    4fb0:	e1a0080c 	lsl	r0, r12, #16
    4fb4:	e1a01821 	lsr	r1, r1, #16
    4fb8:	e0611820 	rsb	r1, r1, r0, lsr #16
    4fbc:	e0811002 	add	r1, r1, r2
    4fc0:	e1a02825 	lsr	r2, r5, #16
    4fc4:	e062282c 	rsb	r2, r2, r12, lsr #16
    4fc8:	e1a00801 	lsl	r0, r1, #16
    4fcc:	e0822841 	add	r2, r2, r1, asr #16
    4fd0:	e1a01820 	lsr	r1, r0, #16
    4fd4:	e1811802 	orr	r1, r1, r2, lsl #16
    4fd8:	e1590004 	cmp	r9, r4
    4fdc:	e1a02842 	asr	r2, r2, #16
    4fe0:	e4831004 	str	r1, [r3], #4
    4fe4:	2affffee 	bcs	4fa4 <quorem+0x13c>
    4fe8:	e2863004 	add	r3, r6, #4
    4fec:	e08a3103 	add	r3, r10, r3, lsl #2
    4ff0:	e5932004 	ldr	r2, [r3, #4]
    4ff4:	e3520000 	cmp	r2, #0
    4ff8:	1a00000f 	bne	503c <quorem+0x1d4>
    4ffc:	e1580003 	cmp	r8, r3
    5000:	e2832004 	add	r2, r3, #4
    5004:	2a00000b 	bcs	5038 <quorem+0x1d0>
    5008:	e5122004 	ldr	r2, [r2, #-4]
    500c:	e3520000 	cmp	r2, #0
    5010:	1a000008 	bne	5038 <quorem+0x1d0>
    5014:	e2433004 	sub	r3, r3, #4
    5018:	ea000003 	b	502c <quorem+0x1c4>
    501c:	e5932000 	ldr	r2, [r3]
    5020:	e3520000 	cmp	r2, #0
    5024:	e2433004 	sub	r3, r3, #4
    5028:	1a000002 	bne	5038 <quorem+0x1d0>
    502c:	e1580003 	cmp	r8, r3
    5030:	e2466001 	sub	r6, r6, #1
    5034:	3afffff8 	bcc	501c <quorem+0x1b4>
    5038:	e58a6010 	str	r6, [r10, #16]
    503c:	e1a00007 	mov	r0, r7
    5040:	e8bd4ff8 	pop	{r3, r4, r5, r6, r7, r8, r9, r10, r11, lr}
    5044:	e12fff1e 	bx	lr

00005048 <_dtoa_r>:
    5048:	e92d4ff0 	push	{r4, r5, r6, r7, r8, r9, r10, r11, lr}
    504c:	e5901040 	ldr	r1, [r0, #64]	; 0x40
    5050:	e24dd07c 	sub	sp, sp, #124	; 0x7c
    5054:	e3510000 	cmp	r1, #0
    5058:	e1a06000 	mov	r6, r0
    505c:	e59d40ac 	ldr	r4, [sp, #172]	; 0xac
    5060:	e58d2010 	str	r2, [sp, #16]
    5064:	e58d3014 	str	r3, [sp, #20]
    5068:	0a000007 	beq	508c <_dtoa_r+0x44>
    506c:	e5903044 	ldr	r3, [r0, #68]	; 0x44
    5070:	e3a02001 	mov	r2, #1
    5074:	e1a02312 	lsl	r2, r2, r3
    5078:	e5813004 	str	r3, [r1, #4]
    507c:	e5812008 	str	r2, [r1, #8]
    5080:	eb000e39 	bl	896c <_Bfree>
    5084:	e3a03000 	mov	r3, #0
    5088:	e5863040 	str	r3, [r6, #64]	; 0x40
    508c:	e59da014 	ldr	r10, [sp, #20]
    5090:	e35a0000 	cmp	r10, #0
    5094:	b3a03001 	movlt	r3, #1
    5098:	a3a03000 	movge	r3, #0
    509c:	b5843000 	strlt	r3, [r4]
    50a0:	a5843000 	strge	r3, [r4]
    50a4:	e59f3570 	ldr	r3, [pc, #1392]	; 561c <_dtoa_r+0x5d4>
    50a8:	b3caa102 	biclt	r10, r10, #-2147483648	; 0x80000000
    50ac:	e59f2568 	ldr	r2, [pc, #1384]	; 561c <_dtoa_r+0x5d4>
    50b0:	b1a0100a 	movlt	r1, r10
    50b4:	e00a3003 	and	r3, r10, r3
    50b8:	b58d1014 	strlt	r1, [sp, #20]
    50bc:	e1530002 	cmp	r3, r2
    50c0:	0a000016 	beq	5120 <_dtoa_r+0xd8>
    50c4:	e28d5010 	add	r5, sp, #16
    50c8:	e8950030 	ldm	r5, {r4, r5}
    50cc:	e3a02000 	mov	r2, #0
    50d0:	e1a00004 	mov	r0, r4
    50d4:	e1a01005 	mov	r1, r5
    50d8:	e3a03000 	mov	r3, #0
    50dc:	eb003467 	bl	12280 <__aeabi_dcmpeq>
    50e0:	e3500000 	cmp	r0, #0
    50e4:	0a00001e 	beq	5164 <_dtoa_r+0x11c>
    50e8:	e59d40b0 	ldr	r4, [sp, #176]	; 0xb0
    50ec:	e59dc0a8 	ldr	r12, [sp, #168]	; 0xa8
    50f0:	e3a03001 	mov	r3, #1
    50f4:	e3540000 	cmp	r4, #0
    50f8:	e58c3000 	str	r3, [r12]
    50fc:	0a00009a 	beq	536c <_dtoa_r+0x324>
    5100:	e59f44e8 	ldr	r4, [pc, #1256]	; 55f0 <_dtoa_r+0x5a8>
    5104:	e59dc0b0 	ldr	r12, [sp, #176]	; 0xb0
    5108:	e58c4000 	str	r4, [r12]
    510c:	e2444001 	sub	r4, r4, #1
    5110:	e1a00004 	mov	r0, r4
    5114:	e28dd07c 	add	sp, sp, #124	; 0x7c
    5118:	e8bd4ff0 	pop	{r4, r5, r6, r7, r8, r9, r10, r11, lr}
    511c:	e12fff1e 	bx	lr
    5120:	e59d2010 	ldr	r2, [sp, #16]
    5124:	e59f34c8 	ldr	r3, [pc, #1224]	; 55f4 <_dtoa_r+0x5ac>
    5128:	e59d40a8 	ldr	r4, [sp, #168]	; 0xa8
    512c:	e3520000 	cmp	r2, #0
    5130:	e5843000 	str	r3, [r4]
    5134:	0a000079 	beq	5320 <_dtoa_r+0x2d8>
    5138:	e59f44b8 	ldr	r4, [pc, #1208]	; 55f8 <_dtoa_r+0x5b0>
    513c:	e59dc0b0 	ldr	r12, [sp, #176]	; 0xb0
    5140:	e35c0000 	cmp	r12, #0
    5144:	0afffff1 	beq	5110 <_dtoa_r+0xc8>
    5148:	e5d43003 	ldrb	r3, [r4, #3]
    514c:	e59dc0b0 	ldr	r12, [sp, #176]	; 0xb0
    5150:	e3530000 	cmp	r3, #0
    5154:	12843008 	addne	r3, r4, #8
    5158:	02843003 	addeq	r3, r4, #3
    515c:	e58c3000 	str	r3, [r12]
    5160:	eaffffea 	b	5110 <_dtoa_r+0xc8>
    5164:	e28d3074 	add	r3, sp, #116	; 0x74
    5168:	e58d3000 	str	r3, [sp]
    516c:	e28d3070 	add	r3, sp, #112	; 0x70
    5170:	e58d3004 	str	r3, [sp, #4]
    5174:	e1a00006 	mov	r0, r6
    5178:	e1a02004 	mov	r2, r4
    517c:	e1a03005 	mov	r3, r5
    5180:	eb001064 	bl	9318 <__d2b>
    5184:	e1a0708a 	lsl	r7, r10, #1
    5188:	e1b07aa7 	lsrs	r7, r7, #21
    518c:	e1a0b000 	mov	r11, r0
    5190:	1a00006a 	bne	5340 <_dtoa_r+0x2f8>
    5194:	e59d8070 	ldr	r8, [sp, #112]	; 0x70
    5198:	e59d7074 	ldr	r7, [sp, #116]	; 0x74
    519c:	e3e03e41 	mvn	r3, #1040	; 0x410
    51a0:	e0887007 	add	r7, r8, r7
    51a4:	e1570003 	cmp	r7, r3
    51a8:	ba0001da 	blt	5918 <_dtoa_r+0x8d0>
    51ac:	e2870e41 	add	r0, r7, #1040	; 0x410
    51b0:	e59dc010 	ldr	r12, [sp, #16]
    51b4:	e2800002 	add	r0, r0, #2
    51b8:	e1a0003c 	lsr	r0, r12, r0
    51bc:	e283301f 	add	r3, r3, #31
    51c0:	e0673003 	rsb	r3, r7, r3
    51c4:	e180031a 	orr	r0, r0, r10, lsl r3
    51c8:	ebffed93 	bl	81c <__aeabi_ui2d>
    51cc:	e3a04001 	mov	r4, #1
    51d0:	e58d4060 	str	r4, [sp, #96]	; 0x60
    51d4:	e241161f 	sub	r1, r1, #32505856	; 0x1f00000
    51d8:	e2477001 	sub	r7, r7, #1
    51dc:	e3a02000 	mov	r2, #0
    51e0:	e59f3414 	ldr	r3, [pc, #1044]	; 55fc <_dtoa_r+0x5b4>
    51e4:	ebffecc7 	bl	508 <__aeabi_dsub>
    51e8:	e28f3ffa 	add	r3, pc, #1000	; 0x3e8
    51ec:	e893000c 	ldm	r3, {r2, r3}
    51f0:	ebffedc9 	bl	91c <__aeabi_dmul>
    51f4:	e28f3ff9 	add	r3, pc, #996	; 0x3e4
    51f8:	e893000c 	ldm	r3, {r2, r3}
    51fc:	ebffecc2 	bl	50c <__adddf3>
    5200:	e1a04000 	mov	r4, r0
    5204:	e1a00007 	mov	r0, r7
    5208:	e1a05001 	mov	r5, r1
    520c:	ebffed8b 	bl	840 <__aeabi_i2d>
    5210:	e28f3e3d 	add	r3, pc, #976	; 0x3d0
    5214:	e893000c 	ldm	r3, {r2, r3}
    5218:	ebffedbf 	bl	91c <__aeabi_dmul>
    521c:	e1a02000 	mov	r2, r0
    5220:	e1a03001 	mov	r3, r1
    5224:	e1a00004 	mov	r0, r4
    5228:	e1a01005 	mov	r1, r5
    522c:	ebffecb6 	bl	50c <__adddf3>
    5230:	e1a04000 	mov	r4, r0
    5234:	e1a05001 	mov	r5, r1
    5238:	eb00342e 	bl	122f8 <__aeabi_d2iz>
    523c:	e1a01005 	mov	r1, r5
    5240:	e1a09000 	mov	r9, r0
    5244:	e3a02000 	mov	r2, #0
    5248:	e1a00004 	mov	r0, r4
    524c:	e3a03000 	mov	r3, #0
    5250:	eb003410 	bl	12298 <__aeabi_dcmplt>
    5254:	e3500000 	cmp	r0, #0
    5258:	1a0001a6 	bne	58f8 <_dtoa_r+0x8b0>
    525c:	e3590016 	cmp	r9, #22
    5260:	83a04001 	movhi	r4, #1
    5264:	858d404c 	strhi	r4, [sp, #76]	; 0x4c
    5268:	8a00000a 	bhi	5298 <_dtoa_r+0x250>
    526c:	e59f33a0 	ldr	r3, [pc, #928]	; 5614 <_dtoa_r+0x5cc>
    5270:	e0833189 	add	r3, r3, r9, lsl #3
    5274:	e8930003 	ldm	r3, {r0, r1}
    5278:	e28d3010 	add	r3, sp, #16
    527c:	e893000c 	ldm	r3, {r2, r3}
    5280:	eb003416 	bl	122e0 <__aeabi_dcmpgt>
    5284:	e3500000 	cmp	r0, #0
    5288:	13a0c000 	movne	r12, #0
    528c:	158dc04c 	strne	r12, [sp, #76]	; 0x4c
    5290:	058d004c 	streq	r0, [sp, #76]	; 0x4c
    5294:	12499001 	subne	r9, r9, #1
    5298:	e0677008 	rsb	r7, r7, r8
    529c:	e2577001 	subs	r7, r7, #1
    52a0:	42677000 	rsbmi	r7, r7, #0
    52a4:	43a0c000 	movmi	r12, #0
    52a8:	53a04000 	movpl	r4, #0
    52ac:	458d702c 	strmi	r7, [sp, #44]	; 0x2c
    52b0:	458dc028 	strmi	r12, [sp, #40]	; 0x28
    52b4:	558d7028 	strpl	r7, [sp, #40]	; 0x28
    52b8:	558d402c 	strpl	r4, [sp, #44]	; 0x2c
    52bc:	e3590000 	cmp	r9, #0
    52c0:	ba000184 	blt	58d8 <_dtoa_r+0x890>
    52c4:	e59dc028 	ldr	r12, [sp, #40]	; 0x28
    52c8:	e3a04000 	mov	r4, #0
    52cc:	e08cc009 	add	r12, r12, r9
    52d0:	e58dc028 	str	r12, [sp, #40]	; 0x28
    52d4:	e58d9048 	str	r9, [sp, #72]	; 0x48
    52d8:	e58d403c 	str	r4, [sp, #60]	; 0x3c
    52dc:	e59d40a0 	ldr	r4, [sp, #160]	; 0xa0
    52e0:	e3540009 	cmp	r4, #9
    52e4:	8a000022 	bhi	5374 <_dtoa_r+0x32c>
    52e8:	e3540005 	cmp	r4, #5
    52ec:	c2444004 	subgt	r4, r4, #4
    52f0:	c58d40a0 	strgt	r4, [sp, #160]	; 0xa0
    52f4:	e59dc0a0 	ldr	r12, [sp, #160]	; 0xa0
    52f8:	e24c3002 	sub	r3, r12, #2
    52fc:	c3a04000 	movgt	r4, #0
    5300:	d3a04001 	movle	r4, #1
    5304:	e3530003 	cmp	r3, #3
    5308:	979ff103 	ldrls	pc, [pc, r3, lsl #2]
    530c:	ea00001a 	b	537c <_dtoa_r+0x334>
    5310:	000059b0 	.word	0x000059b0
    5314:	00005d48 	.word	0x00005d48
    5318:	00005d3c 	.word	0x00005d3c
    531c:	00005d08 	.word	0x00005d08
    5320:	e3ca44ff 	bic	r4, r10, #-16777216	; 0xff000000
    5324:	e3c4460f 	bic	r4, r4, #15728640	; 0xf00000
    5328:	e59f32c8 	ldr	r3, [pc, #712]	; 55f8 <_dtoa_r+0x5b0>
    532c:	e59f22cc 	ldr	r2, [pc, #716]	; 5600 <_dtoa_r+0x5b8>
    5330:	e3540000 	cmp	r4, #0
    5334:	01a04002 	moveq	r4, r2
    5338:	11a04003 	movne	r4, r3
    533c:	eaffff7e 	b	513c <_dtoa_r+0xf4>
    5340:	e3c534ff 	bic	r3, r5, #-16777216	; 0xff000000
    5344:	e3c3360f 	bic	r3, r3, #15728640	; 0xf00000
    5348:	e1a00004 	mov	r0, r4
    534c:	e38335ff 	orr	r3, r3, #1069547520	; 0x3fc00000
    5350:	e2477fff 	sub	r7, r7, #1020	; 0x3fc
    5354:	e3a04000 	mov	r4, #0
    5358:	e3831603 	orr	r1, r3, #3145728	; 0x300000
    535c:	e2477003 	sub	r7, r7, #3
    5360:	e59d8070 	ldr	r8, [sp, #112]	; 0x70
    5364:	e58d4060 	str	r4, [sp, #96]	; 0x60
    5368:	eaffff9b 	b	51dc <_dtoa_r+0x194>
    536c:	e59f4290 	ldr	r4, [pc, #656]	; 5604 <_dtoa_r+0x5bc>
    5370:	eaffff66 	b	5110 <_dtoa_r+0xc8>
    5374:	e3a04000 	mov	r4, #0
    5378:	e58d40a0 	str	r4, [sp, #160]	; 0xa0
    537c:	e3a04000 	mov	r4, #0
    5380:	e5864044 	str	r4, [r6, #68]	; 0x44
    5384:	e1a00006 	mov	r0, r6
    5388:	e1a01004 	mov	r1, r4
    538c:	eb000d53 	bl	88e0 <_Balloc>
    5390:	e3e0c000 	mvn	r12, #0
    5394:	e58dc044 	str	r12, [sp, #68]	; 0x44
    5398:	e58dc038 	str	r12, [sp, #56]	; 0x38
    539c:	e3a0c001 	mov	r12, #1
    53a0:	e58d0024 	str	r0, [sp, #36]	; 0x24
    53a4:	e5860040 	str	r0, [r6, #64]	; 0x40
    53a8:	e58dc040 	str	r12, [sp, #64]	; 0x40
    53ac:	e58d40a4 	str	r4, [sp, #164]	; 0xa4
    53b0:	e59d3074 	ldr	r3, [sp, #116]	; 0x74
    53b4:	e3530000 	cmp	r3, #0
    53b8:	ba0000ab 	blt	566c <_dtoa_r+0x624>
    53bc:	e359000e 	cmp	r9, #14
    53c0:	ca0000a9 	bgt	566c <_dtoa_r+0x624>
    53c4:	e59d40a4 	ldr	r4, [sp, #164]	; 0xa4
    53c8:	e59dc038 	ldr	r12, [sp, #56]	; 0x38
    53cc:	e59f3240 	ldr	r3, [pc, #576]	; 5614 <_dtoa_r+0x5cc>
    53d0:	e1a02fa4 	lsr	r2, r4, #31
    53d4:	e35c0000 	cmp	r12, #0
    53d8:	c3a02000 	movgt	r2, #0
    53dc:	d2022001 	andle	r2, r2, #1
    53e0:	e0833189 	add	r3, r3, r9, lsl #3
    53e4:	e3520000 	cmp	r2, #0
    53e8:	e8930006 	ldm	r3, {r1, r2}
    53ec:	e58d1018 	str	r1, [sp, #24]
    53f0:	e58d201c 	str	r2, [sp, #28]
    53f4:	1a000347 	bne	6118 <_dtoa_r+0x10d0>
    53f8:	e28d5010 	add	r5, sp, #16
    53fc:	e8950030 	ldm	r5, {r4, r5}
    5400:	e1a03002 	mov	r3, r2
    5404:	e1a00004 	mov	r0, r4
    5408:	e1a02001 	mov	r2, r1
    540c:	e1a01005 	mov	r1, r5
    5410:	ebffede5 	bl	bac <__aeabi_ddiv>
    5414:	eb0033b7 	bl	122f8 <__aeabi_d2iz>
    5418:	e1a07000 	mov	r7, r0
    541c:	ebffed07 	bl	840 <__aeabi_i2d>
    5420:	e28d3018 	add	r3, sp, #24
    5424:	e893000c 	ldm	r3, {r2, r3}
    5428:	ebffed3b 	bl	91c <__aeabi_dmul>
    542c:	e1a03001 	mov	r3, r1
    5430:	e1a02000 	mov	r2, r0
    5434:	e1a01005 	mov	r1, r5
    5438:	e1a00004 	mov	r0, r4
    543c:	ebffec31 	bl	508 <__aeabi_dsub>
    5440:	e59dc024 	ldr	r12, [sp, #36]	; 0x24
    5444:	e2873030 	add	r3, r7, #48	; 0x30
    5448:	e4cc3001 	strb	r3, [r12], #1
    544c:	e58dc030 	str	r12, [sp, #48]	; 0x30
    5450:	e59dc038 	ldr	r12, [sp, #56]	; 0x38
    5454:	e35c0001 	cmp	r12, #1
    5458:	e1a04000 	mov	r4, r0
    545c:	e1a05001 	mov	r5, r1
    5460:	e59dc030 	ldr	r12, [sp, #48]	; 0x30
    5464:	0a000039 	beq	5550 <_dtoa_r+0x508>
    5468:	e3a02000 	mov	r2, #0
    546c:	e59f31ac 	ldr	r3, [pc, #428]	; 5620 <_dtoa_r+0x5d8>
    5470:	ebffed29 	bl	91c <__aeabi_dmul>
    5474:	e3a02000 	mov	r2, #0
    5478:	e3a03000 	mov	r3, #0
    547c:	e1a04000 	mov	r4, r0
    5480:	e1a05001 	mov	r5, r1
    5484:	eb00337d 	bl	12280 <__aeabi_dcmpeq>
    5488:	e3500000 	cmp	r0, #0
    548c:	1a00047f 	bne	6690 <_dtoa_r+0x1648>
    5490:	e59dc024 	ldr	r12, [sp, #36]	; 0x24
    5494:	e59d1038 	ldr	r1, [sp, #56]	; 0x38
    5498:	e08c8001 	add	r8, r12, r1
    549c:	e58d9020 	str	r9, [sp, #32]
    54a0:	e58d8010 	str	r8, [sp, #16]
    54a4:	e28ca002 	add	r10, r12, #2
    54a8:	e28d9018 	add	r9, sp, #24
    54ac:	e8990300 	ldm	r9, {r8, r9}
    54b0:	e58d6028 	str	r6, [sp, #40]	; 0x28
    54b4:	ea000008 	b	54dc <_dtoa_r+0x494>
    54b8:	ebffed17 	bl	91c <__aeabi_dmul>
    54bc:	e3a02000 	mov	r2, #0
    54c0:	e3a03000 	mov	r3, #0
    54c4:	e1a04000 	mov	r4, r0
    54c8:	e1a05001 	mov	r5, r1
    54cc:	eb00336b 	bl	12280 <__aeabi_dcmpeq>
    54d0:	e3500000 	cmp	r0, #0
    54d4:	e28aa001 	add	r10, r10, #1
    54d8:	1a0003af 	bne	639c <_dtoa_r+0x1354>
    54dc:	e1a02008 	mov	r2, r8
    54e0:	e1a03009 	mov	r3, r9
    54e4:	e1a00004 	mov	r0, r4
    54e8:	e1a01005 	mov	r1, r5
    54ec:	ebffedae 	bl	bac <__aeabi_ddiv>
    54f0:	eb003380 	bl	122f8 <__aeabi_d2iz>
    54f4:	e1a07000 	mov	r7, r0
    54f8:	ebffecd0 	bl	840 <__aeabi_i2d>
    54fc:	e1a02008 	mov	r2, r8
    5500:	e1a03009 	mov	r3, r9
    5504:	ebffed04 	bl	91c <__aeabi_dmul>
    5508:	e1a02000 	mov	r2, r0
    550c:	e1a03001 	mov	r3, r1
    5510:	e1a00004 	mov	r0, r4
    5514:	e1a01005 	mov	r1, r5
    5518:	ebffebfa 	bl	508 <__aeabi_dsub>
    551c:	e59dc010 	ldr	r12, [sp, #16]
    5520:	e15a000c 	cmp	r10, r12
    5524:	e287c030 	add	r12, r7, #48	; 0x30
    5528:	e1a04000 	mov	r4, r0
    552c:	e1a05001 	mov	r5, r1
    5530:	e3a02000 	mov	r2, #0
    5534:	e59f30e4 	ldr	r3, [pc, #228]	; 5620 <_dtoa_r+0x5d8>
    5538:	e54ac001 	strb	r12, [r10, #-1]
    553c:	e1a0600a 	mov	r6, r10
    5540:	1affffdc 	bne	54b8 <_dtoa_r+0x470>
    5544:	e59d9020 	ldr	r9, [sp, #32]
    5548:	e59d6028 	ldr	r6, [sp, #40]	; 0x28
    554c:	e1a0c00a 	mov	r12, r10
    5550:	e1a02004 	mov	r2, r4
    5554:	e1a03005 	mov	r3, r5
    5558:	e1a00004 	mov	r0, r4
    555c:	e1a01005 	mov	r1, r5
    5560:	e58dc008 	str	r12, [sp, #8]
    5564:	ebffebe8 	bl	50c <__adddf3>
    5568:	e1a04000 	mov	r4, r0
    556c:	e1a05001 	mov	r5, r1
    5570:	e1a02004 	mov	r2, r4
    5574:	e28d1018 	add	r1, sp, #24
    5578:	e8910003 	ldm	r1, {r0, r1}
    557c:	e1a03005 	mov	r3, r5
    5580:	eb003344 	bl	12298 <__aeabi_dcmplt>
    5584:	e3500000 	cmp	r0, #0
    5588:	e59dc008 	ldr	r12, [sp, #8]
    558c:	1a00000a 	bne	55bc <_dtoa_r+0x574>
    5590:	e28d1018 	add	r1, sp, #24
    5594:	e8910003 	ldm	r1, {r0, r1}
    5598:	e1a02004 	mov	r2, r4
    559c:	e1a03005 	mov	r3, r5
    55a0:	e58dc008 	str	r12, [sp, #8]
    55a4:	eb003335 	bl	12280 <__aeabi_dcmpeq>
    55a8:	e3500000 	cmp	r0, #0
    55ac:	e59dc008 	ldr	r12, [sp, #8]
    55b0:	0a00037c 	beq	63a8 <_dtoa_r+0x1360>
    55b4:	e3170001 	tst	r7, #1
    55b8:	0a00037a 	beq	63a8 <_dtoa_r+0x1360>
    55bc:	e55c8001 	ldrb	r8, [r12, #-1]
    55c0:	e59d4024 	ldr	r4, [sp, #36]	; 0x24
    55c4:	e58d9064 	str	r9, [sp, #100]	; 0x64
    55c8:	e1a0900c 	mov	r9, r12
    55cc:	e59d1030 	ldr	r1, [sp, #48]	; 0x30
    55d0:	ea000017 	b	5634 <_dtoa_r+0x5ec>
    55d4:	e1a00000 	nop			; (mov r0, r0)
    55d8:	636f4361 	.word	0x636f4361
    55dc:	3fd287a7 	.word	0x3fd287a7
    55e0:	8b60c8b3 	.word	0x8b60c8b3
    55e4:	3fc68a28 	.word	0x3fc68a28
    55e8:	509f79fb 	.word	0x509f79fb
    55ec:	3fd34413 	.word	0x3fd34413
    55f0:	0001386d 	.word	0x0001386d
    55f4:	0000270f 	.word	0x0000270f
    55f8:	000139ac 	.word	0x000139ac
    55fc:	3ff80000 	.word	0x3ff80000
    5600:	000139a0 	.word	0x000139a0
    5604:	0001386c 	.word	0x0001386c
    5608:	fffffbee 	.word	0xfffffbee
    560c:	3ff00000 	.word	0x3ff00000
    5610:	00013ac0 	.word	0x00013ac0
    5614:	000139d0 	.word	0x000139d0
    5618:	40140000 	.word	0x40140000
    561c:	7ff00000 	.word	0x7ff00000
    5620:	40240000 	.word	0x40240000
    5624:	401c0000 	.word	0x401c0000
    5628:	3fe00000 	.word	0x3fe00000
    562c:	e5598002 	ldrb	r8, [r9, #-2]
    5630:	e1a09003 	mov	r9, r3
    5634:	e3580039 	cmp	r8, #57	; 0x39
    5638:	e1a02009 	mov	r2, r9
    563c:	e2493001 	sub	r3, r9, #1
    5640:	1a0003c2 	bne	6550 <_dtoa_r+0x1508>
    5644:	e1590001 	cmp	r9, r1
    5648:	1afffff7 	bne	562c <_dtoa_r+0x5e4>
    564c:	e58d2024 	str	r2, [sp, #36]	; 0x24
    5650:	e59dc064 	ldr	r12, [sp, #100]	; 0x64
    5654:	e3a02030 	mov	r2, #48	; 0x30
    5658:	e5c32000 	strb	r2, [r3]
    565c:	e28c9001 	add	r9, r12, #1
    5660:	e3a08031 	mov	r8, #49	; 0x31
    5664:	e5c38000 	strb	r8, [r3]
    5668:	ea00008b 	b	589c <_dtoa_r+0x854>
    566c:	e59d4040 	ldr	r4, [sp, #64]	; 0x40
    5670:	e3540000 	cmp	r4, #0
    5674:	1a0000ac 	bne	592c <_dtoa_r+0x8e4>
    5678:	e59d503c 	ldr	r5, [sp, #60]	; 0x3c
    567c:	e59d402c 	ldr	r4, [sp, #44]	; 0x2c
    5680:	e59da040 	ldr	r10, [sp, #64]	; 0x40
    5684:	e59dc028 	ldr	r12, [sp, #40]	; 0x28
    5688:	e35c0000 	cmp	r12, #0
    568c:	c3540000 	cmpgt	r4, #0
    5690:	da000009 	ble	56bc <_dtoa_r+0x674>
    5694:	e1a0300c 	mov	r3, r12
    5698:	e59dc02c 	ldr	r12, [sp, #44]	; 0x2c
    569c:	e1530004 	cmp	r3, r4
    56a0:	a1a03004 	movge	r3, r4
    56a4:	e063c00c 	rsb	r12, r3, r12
    56a8:	e58dc02c 	str	r12, [sp, #44]	; 0x2c
    56ac:	e59dc028 	ldr	r12, [sp, #40]	; 0x28
    56b0:	e063c00c 	rsb	r12, r3, r12
    56b4:	e58dc028 	str	r12, [sp, #40]	; 0x28
    56b8:	e0634004 	rsb	r4, r3, r4
    56bc:	e59dc03c 	ldr	r12, [sp, #60]	; 0x3c
    56c0:	e35c0000 	cmp	r12, #0
    56c4:	da000015 	ble	5720 <_dtoa_r+0x6d8>
    56c8:	e59dc040 	ldr	r12, [sp, #64]	; 0x40
    56cc:	e35c0000 	cmp	r12, #0
    56d0:	0a00032b 	beq	6384 <_dtoa_r+0x133c>
    56d4:	e3550000 	cmp	r5, #0
    56d8:	da00000d 	ble	5714 <_dtoa_r+0x6cc>
    56dc:	e1a0100a 	mov	r1, r10
    56e0:	e1a02005 	mov	r2, r5
    56e4:	e1a00006 	mov	r0, r6
    56e8:	eb000dd4 	bl	8e40 <__pow5mult>
    56ec:	e1a0a000 	mov	r10, r0
    56f0:	e1a0200b 	mov	r2, r11
    56f4:	e1a0100a 	mov	r1, r10
    56f8:	e1a00006 	mov	r0, r6
    56fc:	eb000d56 	bl	8c5c <__multiply>
    5700:	e1a0100b 	mov	r1, r11
    5704:	e1a07000 	mov	r7, r0
    5708:	e1a00006 	mov	r0, r6
    570c:	eb000c96 	bl	896c <_Bfree>
    5710:	e1a0b007 	mov	r11, r7
    5714:	e59dc03c 	ldr	r12, [sp, #60]	; 0x3c
    5718:	e05c2005 	subs	r2, r12, r5
    571c:	1a00035d 	bne	6498 <_dtoa_r+0x1450>
    5720:	e1a00006 	mov	r0, r6
    5724:	e3a01001 	mov	r1, #1
    5728:	eb000d42 	bl	8c38 <__i2b>
    572c:	e59dc048 	ldr	r12, [sp, #72]	; 0x48
    5730:	e35c0000 	cmp	r12, #0
    5734:	e1a07000 	mov	r7, r0
    5738:	da000004 	ble	5750 <_dtoa_r+0x708>
    573c:	e1a01007 	mov	r1, r7
    5740:	e1a00006 	mov	r0, r6
    5744:	e1a0200c 	mov	r2, r12
    5748:	eb000dbc 	bl	8e40 <__pow5mult>
    574c:	e1a07000 	mov	r7, r0
    5750:	e59dc0a0 	ldr	r12, [sp, #160]	; 0xa0
    5754:	e35c0001 	cmp	r12, #1
    5758:	da00027e 	ble	6158 <_dtoa_r+0x1110>
    575c:	e3a05000 	mov	r5, #0
    5760:	e59dc048 	ldr	r12, [sp, #72]	; 0x48
    5764:	e35c0000 	cmp	r12, #0
    5768:	03a00001 	moveq	r0, #1
    576c:	1a000247 	bne	6090 <_dtoa_r+0x1048>
    5770:	e59dc028 	ldr	r12, [sp, #40]	; 0x28
    5774:	e080300c 	add	r3, r0, r12
    5778:	e213301f 	ands	r3, r3, #31
    577c:	0a0001d4 	beq	5ed4 <_dtoa_r+0xe8c>
    5780:	e2632020 	rsb	r2, r3, #32
    5784:	e3520004 	cmp	r2, #4
    5788:	da0003dc 	ble	6700 <_dtoa_r+0x16b8>
    578c:	e263301c 	rsb	r3, r3, #28
    5790:	e59dc02c 	ldr	r12, [sp, #44]	; 0x2c
    5794:	e08cc003 	add	r12, r12, r3
    5798:	e58dc02c 	str	r12, [sp, #44]	; 0x2c
    579c:	e59dc028 	ldr	r12, [sp, #40]	; 0x28
    57a0:	e08cc003 	add	r12, r12, r3
    57a4:	e58dc028 	str	r12, [sp, #40]	; 0x28
    57a8:	e0844003 	add	r4, r4, r3
    57ac:	e59dc02c 	ldr	r12, [sp, #44]	; 0x2c
    57b0:	e35c0000 	cmp	r12, #0
    57b4:	da000004 	ble	57cc <_dtoa_r+0x784>
    57b8:	e1a0100b 	mov	r1, r11
    57bc:	e1a00006 	mov	r0, r6
    57c0:	e1a0200c 	mov	r2, r12
    57c4:	eb000dda 	bl	8f34 <__lshift>
    57c8:	e1a0b000 	mov	r11, r0
    57cc:	e59dc028 	ldr	r12, [sp, #40]	; 0x28
    57d0:	e35c0000 	cmp	r12, #0
    57d4:	da000004 	ble	57ec <_dtoa_r+0x7a4>
    57d8:	e1a01007 	mov	r1, r7
    57dc:	e1a00006 	mov	r0, r6
    57e0:	e1a0200c 	mov	r2, r12
    57e4:	eb000dd2 	bl	8f34 <__lshift>
    57e8:	e1a07000 	mov	r7, r0
    57ec:	e59dc04c 	ldr	r12, [sp, #76]	; 0x4c
    57f0:	e35c0000 	cmp	r12, #0
    57f4:	1a00022b 	bne	60a8 <_dtoa_r+0x1060>
    57f8:	e59dc0a0 	ldr	r12, [sp, #160]	; 0xa0
    57fc:	e59d1038 	ldr	r1, [sp, #56]	; 0x38
    5800:	e35c0002 	cmp	r12, #2
    5804:	d3a03000 	movle	r3, #0
    5808:	c3a03001 	movgt	r3, #1
    580c:	e3510000 	cmp	r1, #0
    5810:	c3a03000 	movgt	r3, #0
    5814:	e3530000 	cmp	r3, #0
    5818:	0a000170 	beq	5de0 <_dtoa_r+0xd98>
    581c:	e59d4038 	ldr	r4, [sp, #56]	; 0x38
    5820:	e3540000 	cmp	r4, #0
    5824:	1a000168 	bne	5dcc <_dtoa_r+0xd84>
    5828:	e1a01007 	mov	r1, r7
    582c:	e3a02005 	mov	r2, #5
    5830:	e1a03004 	mov	r3, r4
    5834:	e1a00006 	mov	r0, r6
    5838:	eb000c52 	bl	8988 <__multadd>
    583c:	e1a07000 	mov	r7, r0
    5840:	e1a01007 	mov	r1, r7
    5844:	e1a0000b 	mov	r0, r11
    5848:	eb000dfa 	bl	9038 <__mcmp>
    584c:	e3500000 	cmp	r0, #0
    5850:	da00015d 	ble	5dcc <_dtoa_r+0xd84>
    5854:	e59d3024 	ldr	r3, [sp, #36]	; 0x24
    5858:	e3a02031 	mov	r2, #49	; 0x31
    585c:	e4c32001 	strb	r2, [r3], #1
    5860:	e59d4024 	ldr	r4, [sp, #36]	; 0x24
    5864:	e58d3024 	str	r3, [sp, #36]	; 0x24
    5868:	e2899001 	add	r9, r9, #1
    586c:	e3a05000 	mov	r5, #0
    5870:	e1a00006 	mov	r0, r6
    5874:	e1a01007 	mov	r1, r7
    5878:	eb000c3b 	bl	896c <_Bfree>
    587c:	e35a0000 	cmp	r10, #0
    5880:	0a000005 	beq	589c <_dtoa_r+0x854>
    5884:	e155000a 	cmp	r5, r10
    5888:	13550000 	cmpne	r5, #0
    588c:	1a000198 	bne	5ef4 <_dtoa_r+0xeac>
    5890:	e1a00006 	mov	r0, r6
    5894:	e1a0100a 	mov	r1, r10
    5898:	eb000c33 	bl	896c <_Bfree>
    589c:	e1a00006 	mov	r0, r6
    58a0:	e1a0100b 	mov	r1, r11
    58a4:	eb000c30 	bl	896c <_Bfree>
    58a8:	e59dc0b0 	ldr	r12, [sp, #176]	; 0xb0
    58ac:	e35c0000 	cmp	r12, #0
    58b0:	e59dc024 	ldr	r12, [sp, #36]	; 0x24
    58b4:	e3a02000 	mov	r2, #0
    58b8:	e5cc2000 	strb	r2, [r12]
    58bc:	e59dc0a8 	ldr	r12, [sp, #168]	; 0xa8
    58c0:	e2893001 	add	r3, r9, #1
    58c4:	e58c3000 	str	r3, [r12]
    58c8:	159dc024 	ldrne	r12, [sp, #36]	; 0x24
    58cc:	159d10b0 	ldrne	r1, [sp, #176]	; 0xb0
    58d0:	1581c000 	strne	r12, [r1]
    58d4:	eafffe0d 	b	5110 <_dtoa_r+0xc8>
    58d8:	e59dc02c 	ldr	r12, [sp, #44]	; 0x2c
    58dc:	e069c00c 	rsb	r12, r9, r12
    58e0:	e58dc02c 	str	r12, [sp, #44]	; 0x2c
    58e4:	e2694000 	rsb	r4, r9, #0
    58e8:	e3a0c000 	mov	r12, #0
    58ec:	e58d403c 	str	r4, [sp, #60]	; 0x3c
    58f0:	e58dc048 	str	r12, [sp, #72]	; 0x48
    58f4:	eafffe78 	b	52dc <_dtoa_r+0x294>
    58f8:	e1a00009 	mov	r0, r9
    58fc:	ebffebcf 	bl	840 <__aeabi_i2d>
    5900:	e1a02004 	mov	r2, r4
    5904:	e1a03005 	mov	r3, r5
    5908:	eb00325c 	bl	12280 <__aeabi_dcmpeq>
    590c:	e3500000 	cmp	r0, #0
    5910:	02499001 	subeq	r9, r9, #1
    5914:	eafffe50 	b	525c <_dtoa_r+0x214>
    5918:	e51f0318 	ldr	r0, [pc, #-792]	; 5608 <_dtoa_r+0x5c0>
    591c:	e59d1010 	ldr	r1, [sp, #16]
    5920:	e0670000 	rsb	r0, r7, r0
    5924:	e1a00011 	lsl	r0, r1, r0
    5928:	eafffe26 	b	51c8 <_dtoa_r+0x180>
    592c:	e59dc0a0 	ldr	r12, [sp, #160]	; 0xa0
    5930:	e35c0001 	cmp	r12, #1
    5934:	da0002dc 	ble	64ac <_dtoa_r+0x1464>
    5938:	e59dc038 	ldr	r12, [sp, #56]	; 0x38
    593c:	e59d403c 	ldr	r4, [sp, #60]	; 0x3c
    5940:	e24c5001 	sub	r5, r12, #1
    5944:	e1540005 	cmp	r4, r5
    5948:	b59dc03c 	ldrlt	r12, [sp, #60]	; 0x3c
    594c:	b59d4048 	ldrlt	r4, [sp, #72]	; 0x48
    5950:	b06c3005 	rsblt	r3, r12, r5
    5954:	e59dc038 	ldr	r12, [sp, #56]	; 0x38
    5958:	b0844003 	addlt	r4, r4, r3
    595c:	a0655004 	rsbge	r5, r5, r4
    5960:	b58d4048 	strlt	r4, [sp, #72]	; 0x48
    5964:	b58d503c 	strlt	r5, [sp, #60]	; 0x3c
    5968:	b3a05000 	movlt	r5, #0
    596c:	e35c0000 	cmp	r12, #0
    5970:	b59d102c 	ldrlt	r1, [sp, #44]	; 0x2c
    5974:	a59d402c 	ldrge	r4, [sp, #44]	; 0x2c
    5978:	a59d3038 	ldrge	r3, [sp, #56]	; 0x38
    597c:	b06c4001 	rsblt	r4, r12, r1
    5980:	b3a03000 	movlt	r3, #0
    5984:	e59dc02c 	ldr	r12, [sp, #44]	; 0x2c
    5988:	e08cc003 	add	r12, r12, r3
    598c:	e58dc02c 	str	r12, [sp, #44]	; 0x2c
    5990:	e59dc028 	ldr	r12, [sp, #40]	; 0x28
    5994:	e1a00006 	mov	r0, r6
    5998:	e08cc003 	add	r12, r12, r3
    599c:	e3a01001 	mov	r1, #1
    59a0:	e58dc028 	str	r12, [sp, #40]	; 0x28
    59a4:	eb000ca3 	bl	8c38 <__i2b>
    59a8:	e1a0a000 	mov	r10, r0
    59ac:	eaffff34 	b	5684 <_dtoa_r+0x63c>
    59b0:	e3a0c000 	mov	r12, #0
    59b4:	e58dc040 	str	r12, [sp, #64]	; 0x40
    59b8:	e59d10a4 	ldr	r1, [sp, #164]	; 0xa4
    59bc:	e3510000 	cmp	r1, #0
    59c0:	da000262 	ble	6350 <_dtoa_r+0x1308>
    59c4:	e58d1044 	str	r1, [sp, #68]	; 0x44
    59c8:	e58d1038 	str	r1, [sp, #56]	; 0x38
    59cc:	e1a08001 	mov	r8, r1
    59d0:	e351000e 	cmp	r1, #14
    59d4:	83a04000 	movhi	r4, #0
    59d8:	92044001 	andls	r4, r4, #1
    59dc:	e3a01000 	mov	r1, #0
    59e0:	e3580017 	cmp	r8, #23
    59e4:	e5861044 	str	r1, [r6, #68]	; 0x44
    59e8:	9a000008 	bls	5a10 <_dtoa_r+0x9c8>
    59ec:	e3a02001 	mov	r2, #1
    59f0:	e3a03004 	mov	r3, #4
    59f4:	e1a03083 	lsl	r3, r3, #1
    59f8:	e2830014 	add	r0, r3, #20
    59fc:	e1500008 	cmp	r0, r8
    5a00:	e1a01002 	mov	r1, r2
    5a04:	e2822001 	add	r2, r2, #1
    5a08:	9afffff9 	bls	59f4 <_dtoa_r+0x9ac>
    5a0c:	e5861044 	str	r1, [r6, #68]	; 0x44
    5a10:	e1a00006 	mov	r0, r6
    5a14:	eb000bb1 	bl	88e0 <_Balloc>
    5a18:	e3540000 	cmp	r4, #0
    5a1c:	e58d0024 	str	r0, [sp, #36]	; 0x24
    5a20:	e5860040 	str	r0, [r6, #64]	; 0x40
    5a24:	0afffe61 	beq	53b0 <_dtoa_r+0x368>
    5a28:	e3590000 	cmp	r9, #0
    5a2c:	da000134 	ble	5f04 <_dtoa_r+0xebc>
    5a30:	e51f2424 	ldr	r2, [pc, #-1060]	; 5614 <_dtoa_r+0x5cc>
    5a34:	e209300f 	and	r3, r9, #15
    5a38:	e1a07249 	asr	r7, r9, #4
    5a3c:	e0823183 	add	r3, r2, r3, lsl #3
    5a40:	e3170010 	tst	r7, #16
    5a44:	e8930030 	ldm	r3, {r4, r5}
    5a48:	0a000123 	beq	5edc <_dtoa_r+0xe94>
    5a4c:	e51f3444 	ldr	r3, [pc, #-1092]	; 5610 <_dtoa_r+0x5c8>
    5a50:	e28d1010 	add	r1, sp, #16
    5a54:	e8910003 	ldm	r1, {r0, r1}
    5a58:	e2833020 	add	r3, r3, #32
    5a5c:	e893000c 	ldm	r3, {r2, r3}
    5a60:	ebffec51 	bl	bac <__aeabi_ddiv>
    5a64:	e58d0030 	str	r0, [sp, #48]	; 0x30
    5a68:	e58d1034 	str	r1, [sp, #52]	; 0x34
    5a6c:	e207700f 	and	r7, r7, #15
    5a70:	e3a08003 	mov	r8, #3
    5a74:	e3570000 	cmp	r7, #0
    5a78:	0a00000c 	beq	5ab0 <_dtoa_r+0xa68>
    5a7c:	e51fa474 	ldr	r10, [pc, #-1140]	; 5610 <_dtoa_r+0x5c8>
    5a80:	e1a00004 	mov	r0, r4
    5a84:	e1a01005 	mov	r1, r5
    5a88:	e3170001 	tst	r7, #1
    5a8c:	0a000002 	beq	5a9c <_dtoa_r+0xa54>
    5a90:	e89a000c 	ldm	r10, {r2, r3}
    5a94:	ebffeba0 	bl	91c <__aeabi_dmul>
    5a98:	e2888001 	add	r8, r8, #1
    5a9c:	e1b070c7 	asrs	r7, r7, #1
    5aa0:	e28aa008 	add	r10, r10, #8
    5aa4:	1afffff7 	bne	5a88 <_dtoa_r+0xa40>
    5aa8:	e1a04000 	mov	r4, r0
    5aac:	e1a05001 	mov	r5, r1
    5ab0:	e28d1030 	add	r1, sp, #48	; 0x30
    5ab4:	e8910003 	ldm	r1, {r0, r1}
    5ab8:	e1a02004 	mov	r2, r4
    5abc:	e1a03005 	mov	r3, r5
    5ac0:	ebffec39 	bl	bac <__aeabi_ddiv>
    5ac4:	e58d0030 	str	r0, [sp, #48]	; 0x30
    5ac8:	e58d1034 	str	r1, [sp, #52]	; 0x34
    5acc:	e59d404c 	ldr	r4, [sp, #76]	; 0x4c
    5ad0:	e3540000 	cmp	r4, #0
    5ad4:	0a000006 	beq	5af4 <_dtoa_r+0xaac>
    5ad8:	e28d1030 	add	r1, sp, #48	; 0x30
    5adc:	e8910003 	ldm	r1, {r0, r1}
    5ae0:	e3a02000 	mov	r2, #0
    5ae4:	e51f34e0 	ldr	r3, [pc, #-1248]	; 560c <_dtoa_r+0x5c4>
    5ae8:	eb0031ea 	bl	12298 <__aeabi_dcmplt>
    5aec:	e3500000 	cmp	r0, #0
    5af0:	1a000235 	bne	63cc <_dtoa_r+0x1384>
    5af4:	e1a00008 	mov	r0, r8
    5af8:	ebffeb50 	bl	840 <__aeabi_i2d>
    5afc:	e28d3030 	add	r3, sp, #48	; 0x30
    5b00:	e893000c 	ldm	r3, {r2, r3}
    5b04:	ebffeb84 	bl	91c <__aeabi_dmul>
    5b08:	e3a02000 	mov	r2, #0
    5b0c:	e51f34f0 	ldr	r3, [pc, #-1264]	; 5624 <_dtoa_r+0x5dc>
    5b10:	ebffea7d 	bl	50c <__adddf3>
    5b14:	e59dc038 	ldr	r12, [sp, #56]	; 0x38
    5b18:	e35c0000 	cmp	r12, #0
    5b1c:	e1a04000 	mov	r4, r0
    5b20:	e241550d 	sub	r5, r1, #54525952	; 0x3400000
    5b24:	0a000094 	beq	5d7c <_dtoa_r+0xd34>
    5b28:	e58d9064 	str	r9, [sp, #100]	; 0x64
    5b2c:	e59da038 	ldr	r10, [sp, #56]	; 0x38
    5b30:	e59dc040 	ldr	r12, [sp, #64]	; 0x40
    5b34:	e35c0000 	cmp	r12, #0
    5b38:	0a00010f 	beq	5f7c <_dtoa_r+0xf34>
    5b3c:	e51f3530 	ldr	r3, [pc, #-1328]	; 5614 <_dtoa_r+0x5cc>
    5b40:	e083318a 	add	r3, r3, r10, lsl #3
    5b44:	e913000c 	ldmdb	r3, {r2, r3}
    5b48:	e3a00000 	mov	r0, #0
    5b4c:	e51f152c 	ldr	r1, [pc, #-1324]	; 5628 <_dtoa_r+0x5e0>
    5b50:	ebffec15 	bl	bac <__aeabi_ddiv>
    5b54:	e1a02004 	mov	r2, r4
    5b58:	e1a03005 	mov	r3, r5
    5b5c:	ebffea69 	bl	508 <__aeabi_dsub>
    5b60:	e58d0050 	str	r0, [sp, #80]	; 0x50
    5b64:	e58d1054 	str	r1, [sp, #84]	; 0x54
    5b68:	e28d1030 	add	r1, sp, #48	; 0x30
    5b6c:	e8910003 	ldm	r1, {r0, r1}
    5b70:	eb0031e0 	bl	122f8 <__aeabi_d2iz>
    5b74:	e1a07000 	mov	r7, r0
    5b78:	ebffeb30 	bl	840 <__aeabi_i2d>
    5b7c:	e1a02000 	mov	r2, r0
    5b80:	e1a03001 	mov	r3, r1
    5b84:	e28d1030 	add	r1, sp, #48	; 0x30
    5b88:	e8910003 	ldm	r1, {r0, r1}
    5b8c:	ebffea5d 	bl	508 <__aeabi_dsub>
    5b90:	e2877030 	add	r7, r7, #48	; 0x30
    5b94:	e59dc024 	ldr	r12, [sp, #36]	; 0x24
    5b98:	e20780ff 	and	r8, r7, #255	; 0xff
    5b9c:	e4cc8001 	strb	r8, [r12], #1
    5ba0:	e1a04000 	mov	r4, r0
    5ba4:	e1a05001 	mov	r5, r1
    5ba8:	e1a02004 	mov	r2, r4
    5bac:	e28d1050 	add	r1, sp, #80	; 0x50
    5bb0:	e8910003 	ldm	r1, {r0, r1}
    5bb4:	e1a03005 	mov	r3, r5
    5bb8:	e58dc030 	str	r12, [sp, #48]	; 0x30
    5bbc:	eb0031c7 	bl	122e0 <__aeabi_dcmpgt>
    5bc0:	e3500000 	cmp	r0, #0
    5bc4:	e59dc030 	ldr	r12, [sp, #48]	; 0x30
    5bc8:	1a0002c7 	bne	66ec <_dtoa_r+0x16a4>
    5bcc:	e1a02004 	mov	r2, r4
    5bd0:	e1a03005 	mov	r3, r5
    5bd4:	e3a00000 	mov	r0, #0
    5bd8:	e51f15d4 	ldr	r1, [pc, #-1492]	; 560c <_dtoa_r+0x5c4>
    5bdc:	e58dc008 	str	r12, [sp, #8]
    5be0:	ebffea48 	bl	508 <__aeabi_dsub>
    5be4:	e1a02000 	mov	r2, r0
    5be8:	e1a03001 	mov	r3, r1
    5bec:	e28d1050 	add	r1, sp, #80	; 0x50
    5bf0:	e8910003 	ldm	r1, {r0, r1}
    5bf4:	eb0031b9 	bl	122e0 <__aeabi_dcmpgt>
    5bf8:	e3500000 	cmp	r0, #0
    5bfc:	e59dc008 	ldr	r12, [sp, #8]
    5c00:	1a000250 	bne	6548 <_dtoa_r+0x1500>
    5c04:	e35a0001 	cmp	r10, #1
    5c08:	dafffde8 	ble	53b0 <_dtoa_r+0x368>
    5c0c:	e59dc024 	ldr	r12, [sp, #36]	; 0x24
    5c10:	e59d7030 	ldr	r7, [sp, #48]	; 0x30
    5c14:	e08ca00a 	add	r10, r12, r10
    5c18:	e58d906c 	str	r9, [sp, #108]	; 0x6c
    5c1c:	e58d6068 	str	r6, [sp, #104]	; 0x68
    5c20:	e1a0900a 	mov	r9, r10
    5c24:	e58db058 	str	r11, [sp, #88]	; 0x58
    5c28:	e1a0a007 	mov	r10, r7
    5c2c:	e28d7050 	add	r7, sp, #80	; 0x50
    5c30:	e89700c0 	ldm	r7, {r6, r7}
    5c34:	ea000007 	b	5c58 <_dtoa_r+0xc10>
    5c38:	ebffea32 	bl	508 <__aeabi_dsub>
    5c3c:	e1a02006 	mov	r2, r6
    5c40:	e1a03007 	mov	r3, r7
    5c44:	eb003193 	bl	12298 <__aeabi_dcmplt>
    5c48:	e3500000 	cmp	r0, #0
    5c4c:	1a00023a 	bne	653c <_dtoa_r+0x14f4>
    5c50:	e15a0009 	cmp	r10, r9
    5c54:	0a000241 	beq	6560 <_dtoa_r+0x1518>
    5c58:	e3a02000 	mov	r2, #0
    5c5c:	e51f3644 	ldr	r3, [pc, #-1604]	; 5620 <_dtoa_r+0x5d8>
    5c60:	e1a00006 	mov	r0, r6
    5c64:	e1a01007 	mov	r1, r7
    5c68:	ebffeb2b 	bl	91c <__aeabi_dmul>
    5c6c:	e3a02000 	mov	r2, #0
    5c70:	e51f3658 	ldr	r3, [pc, #-1624]	; 5620 <_dtoa_r+0x5d8>
    5c74:	e1a06000 	mov	r6, r0
    5c78:	e1a07001 	mov	r7, r1
    5c7c:	e1a00004 	mov	r0, r4
    5c80:	e1a01005 	mov	r1, r5
    5c84:	ebffeb24 	bl	91c <__aeabi_dmul>
    5c88:	e1a05001 	mov	r5, r1
    5c8c:	e1a04000 	mov	r4, r0
    5c90:	eb003198 	bl	122f8 <__aeabi_d2iz>
    5c94:	e1a08000 	mov	r8, r0
    5c98:	ebffeae8 	bl	840 <__aeabi_i2d>
    5c9c:	e1a02000 	mov	r2, r0
    5ca0:	e1a03001 	mov	r3, r1
    5ca4:	e1a00004 	mov	r0, r4
    5ca8:	e1a01005 	mov	r1, r5
    5cac:	ebffea15 	bl	508 <__aeabi_dsub>
    5cb0:	e2888030 	add	r8, r8, #48	; 0x30
    5cb4:	e20880ff 	and	r8, r8, #255	; 0xff
    5cb8:	e4ca8001 	strb	r8, [r10], #1
    5cbc:	e1a02006 	mov	r2, r6
    5cc0:	e1a03007 	mov	r3, r7
    5cc4:	e1a05001 	mov	r5, r1
    5cc8:	e1a04000 	mov	r4, r0
    5ccc:	eb003171 	bl	12298 <__aeabi_dcmplt>
    5cd0:	e3500000 	cmp	r0, #0
    5cd4:	e1a02004 	mov	r2, r4
    5cd8:	e1a03005 	mov	r3, r5
    5cdc:	e3a00000 	mov	r0, #0
    5ce0:	e51f16dc 	ldr	r1, [pc, #-1756]	; 560c <_dtoa_r+0x5c4>
    5ce4:	e1a0b00a 	mov	r11, r10
    5ce8:	0affffd2 	beq	5c38 <_dtoa_r+0xbf0>
    5cec:	e59d4024 	ldr	r4, [sp, #36]	; 0x24
    5cf0:	e1a0700a 	mov	r7, r10
    5cf4:	e59db058 	ldr	r11, [sp, #88]	; 0x58
    5cf8:	e59d6068 	ldr	r6, [sp, #104]	; 0x68
    5cfc:	e59d9064 	ldr	r9, [sp, #100]	; 0x64
    5d00:	e58da024 	str	r10, [sp, #36]	; 0x24
    5d04:	eafffee4 	b	589c <_dtoa_r+0x854>
    5d08:	e3a0c001 	mov	r12, #1
    5d0c:	e58dc040 	str	r12, [sp, #64]	; 0x40
    5d10:	e59dc0a4 	ldr	r12, [sp, #164]	; 0xa4
    5d14:	e08cc009 	add	r12, r12, r9
    5d18:	e28c8001 	add	r8, r12, #1
    5d1c:	e3580000 	cmp	r8, #0
    5d20:	e58dc044 	str	r12, [sp, #68]	; 0x44
    5d24:	da000191 	ble	6370 <_dtoa_r+0x1328>
    5d28:	e358000e 	cmp	r8, #14
    5d2c:	83a04000 	movhi	r4, #0
    5d30:	92044001 	andls	r4, r4, #1
    5d34:	e58d8038 	str	r8, [sp, #56]	; 0x38
    5d38:	eaffff27 	b	59dc <_dtoa_r+0x994>
    5d3c:	e3a0c001 	mov	r12, #1
    5d40:	e58dc040 	str	r12, [sp, #64]	; 0x40
    5d44:	eaffff1b 	b	59b8 <_dtoa_r+0x970>
    5d48:	e3a0c000 	mov	r12, #0
    5d4c:	e58dc040 	str	r12, [sp, #64]	; 0x40
    5d50:	eaffffee 	b	5d10 <_dtoa_r+0xcc8>
    5d54:	e1a00008 	mov	r0, r8
    5d58:	ebffeab8 	bl	840 <__aeabi_i2d>
    5d5c:	e28d3030 	add	r3, sp, #48	; 0x30
    5d60:	e893000c 	ldm	r3, {r2, r3}
    5d64:	ebffeaec 	bl	91c <__aeabi_dmul>
    5d68:	e3a02000 	mov	r2, #0
    5d6c:	e51f3750 	ldr	r3, [pc, #-1872]	; 5624 <_dtoa_r+0x5dc>
    5d70:	ebffe9e5 	bl	50c <__adddf3>
    5d74:	e1a04000 	mov	r4, r0
    5d78:	e241550d 	sub	r5, r1, #54525952	; 0x3400000
    5d7c:	e3a02000 	mov	r2, #0
    5d80:	e51f3770 	ldr	r3, [pc, #-1904]	; 5618 <_dtoa_r+0x5d0>
    5d84:	e28d1030 	add	r1, sp, #48	; 0x30
    5d88:	e8910003 	ldm	r1, {r0, r1}
    5d8c:	ebffe9dd 	bl	508 <__aeabi_dsub>
    5d90:	e1a02004 	mov	r2, r4
    5d94:	e1a03005 	mov	r3, r5
    5d98:	e1a07000 	mov	r7, r0
    5d9c:	e1a08001 	mov	r8, r1
    5da0:	eb00314e 	bl	122e0 <__aeabi_dcmpgt>
    5da4:	e250a000 	subs	r10, r0, #0
    5da8:	1a000070 	bne	5f70 <_dtoa_r+0xf28>
    5dac:	e1a02004 	mov	r2, r4
    5db0:	e2853102 	add	r3, r5, #-2147483648	; 0x80000000
    5db4:	e1a00007 	mov	r0, r7
    5db8:	e1a01008 	mov	r1, r8
    5dbc:	eb003135 	bl	12298 <__aeabi_dcmplt>
    5dc0:	e3500000 	cmp	r0, #0
    5dc4:	0afffd79 	beq	53b0 <_dtoa_r+0x368>
    5dc8:	e1a0700a 	mov	r7, r10
    5dcc:	e59dc0a4 	ldr	r12, [sp, #164]	; 0xa4
    5dd0:	e59d4024 	ldr	r4, [sp, #36]	; 0x24
    5dd4:	e1e0900c 	mvn	r9, r12
    5dd8:	e3a05000 	mov	r5, #0
    5ddc:	eafffea3 	b	5870 <_dtoa_r+0x828>
    5de0:	e59dc040 	ldr	r12, [sp, #64]	; 0x40
    5de4:	e35c0000 	cmp	r12, #0
    5de8:	1a0000ee 	bne	61a8 <_dtoa_r+0x1160>
    5dec:	e3a04000 	mov	r4, #0
    5df0:	e59d5038 	ldr	r5, [sp, #56]	; 0x38
    5df4:	e59d8024 	ldr	r8, [sp, #36]	; 0x24
    5df8:	ea000005 	b	5e14 <_dtoa_r+0xdcc>
    5dfc:	e1a0100b 	mov	r1, r11
    5e00:	e1a00006 	mov	r0, r6
    5e04:	e3a0200a 	mov	r2, #10
    5e08:	e3a03000 	mov	r3, #0
    5e0c:	eb000add 	bl	8988 <__multadd>
    5e10:	e1a0b000 	mov	r11, r0
    5e14:	e1a01007 	mov	r1, r7
    5e18:	e1a0000b 	mov	r0, r11
    5e1c:	ebfffc11 	bl	4e68 <quorem>
    5e20:	e2800030 	add	r0, r0, #48	; 0x30
    5e24:	e7c80004 	strb	r0, [r8, r4]
    5e28:	e2844001 	add	r4, r4, #1
    5e2c:	e1540005 	cmp	r4, r5
    5e30:	bafffff1 	blt	5dfc <_dtoa_r+0xdb4>
    5e34:	e59dc024 	ldr	r12, [sp, #36]	; 0x24
    5e38:	e59d4038 	ldr	r4, [sp, #56]	; 0x38
    5e3c:	e1a03000 	mov	r3, r0
    5e40:	e3540001 	cmp	r4, #1
    5e44:	a08cc004 	addge	r12, r12, r4
    5e48:	b28cc001 	addlt	r12, r12, #1
    5e4c:	e3a05000 	mov	r5, #0
    5e50:	e1a0100b 	mov	r1, r11
    5e54:	e3a02001 	mov	r2, #1
    5e58:	e1a00006 	mov	r0, r6
    5e5c:	e58d300c 	str	r3, [sp, #12]
    5e60:	e58dc008 	str	r12, [sp, #8]
    5e64:	eb000c32 	bl	8f34 <__lshift>
    5e68:	e1a01007 	mov	r1, r7
    5e6c:	e1a0b000 	mov	r11, r0
    5e70:	eb000c70 	bl	9038 <__mcmp>
    5e74:	e3500000 	cmp	r0, #0
    5e78:	e59d300c 	ldr	r3, [sp, #12]
    5e7c:	e59dc008 	ldr	r12, [sp, #8]
    5e80:	da0001ba 	ble	6570 <_dtoa_r+0x1528>
    5e84:	e59d4024 	ldr	r4, [sp, #36]	; 0x24
    5e88:	e2844001 	add	r4, r4, #1
    5e8c:	e55c3001 	ldrb	r3, [r12, #-1]
    5e90:	e58d4030 	str	r4, [sp, #48]	; 0x30
    5e94:	e1a0100c 	mov	r1, r12
    5e98:	e59d0030 	ldr	r0, [sp, #48]	; 0x30
    5e9c:	ea000001 	b	5ea8 <_dtoa_r+0xe60>
    5ea0:	e5513002 	ldrb	r3, [r1, #-2]
    5ea4:	e1a01002 	mov	r1, r2
    5ea8:	e3530039 	cmp	r3, #57	; 0x39
    5eac:	e2412001 	sub	r2, r1, #1
    5eb0:	1a0001cd 	bne	65ec <_dtoa_r+0x15a4>
    5eb4:	e1510000 	cmp	r1, r0
    5eb8:	1afffff8 	bne	5ea0 <_dtoa_r+0xe58>
    5ebc:	e3a03031 	mov	r3, #49	; 0x31
    5ec0:	e59d4024 	ldr	r4, [sp, #36]	; 0x24
    5ec4:	e2899001 	add	r9, r9, #1
    5ec8:	e5c23000 	strb	r3, [r2]
    5ecc:	e58d1024 	str	r1, [sp, #36]	; 0x24
    5ed0:	eafffe66 	b	5870 <_dtoa_r+0x828>
    5ed4:	e3a0301c 	mov	r3, #28
    5ed8:	eafffe2c 	b	5790 <_dtoa_r+0x748>
    5edc:	e28d3010 	add	r3, sp, #16
    5ee0:	e893000c 	ldm	r3, {r2, r3}
    5ee4:	e3a08002 	mov	r8, #2
    5ee8:	e58d2030 	str	r2, [sp, #48]	; 0x30
    5eec:	e58d3034 	str	r3, [sp, #52]	; 0x34
    5ef0:	eafffedf 	b	5a74 <_dtoa_r+0xa2c>
    5ef4:	e1a00006 	mov	r0, r6
    5ef8:	e1a01005 	mov	r1, r5
    5efc:	eb000a9a 	bl	896c <_Bfree>
    5f00:	eafffe62 	b	5890 <_dtoa_r+0x848>
    5f04:	e2694000 	rsb	r4, r9, #0
    5f08:	e3540000 	cmp	r4, #0
    5f0c:	0a000128 	beq	63b4 <_dtoa_r+0x136c>
    5f10:	e51f3904 	ldr	r3, [pc, #-2308]	; 5614 <_dtoa_r+0x5cc>
    5f14:	e204200f 	and	r2, r4, #15
    5f18:	e0833182 	add	r3, r3, r2, lsl #3
    5f1c:	e28d1010 	add	r1, sp, #16
    5f20:	e8910003 	ldm	r1, {r0, r1}
    5f24:	e893000c 	ldm	r3, {r2, r3}
    5f28:	ebffea7b 	bl	91c <__aeabi_dmul>
    5f2c:	e1b04244 	asrs	r4, r4, #4
    5f30:	e58d0030 	str	r0, [sp, #48]	; 0x30
    5f34:	e58d1034 	str	r1, [sp, #52]	; 0x34
    5f38:	0a0001d2 	beq	6688 <_dtoa_r+0x1640>
    5f3c:	e51f5934 	ldr	r5, [pc, #-2356]	; 5610 <_dtoa_r+0x5c8>
    5f40:	e3a08002 	mov	r8, #2
    5f44:	e3140001 	tst	r4, #1
    5f48:	0a000002 	beq	5f58 <_dtoa_r+0xf10>
    5f4c:	e895000c 	ldm	r5, {r2, r3}
    5f50:	ebffea71 	bl	91c <__aeabi_dmul>
    5f54:	e2888001 	add	r8, r8, #1
    5f58:	e1b040c4 	asrs	r4, r4, #1
    5f5c:	e2855008 	add	r5, r5, #8
    5f60:	1afffff7 	bne	5f44 <_dtoa_r+0xefc>
    5f64:	e58d0030 	str	r0, [sp, #48]	; 0x30
    5f68:	e58d1034 	str	r1, [sp, #52]	; 0x34
    5f6c:	eafffed6 	b	5acc <_dtoa_r+0xa84>
    5f70:	e3a07000 	mov	r7, #0
    5f74:	e1a0a007 	mov	r10, r7
    5f78:	eafffe35 	b	5854 <_dtoa_r+0x80c>
    5f7c:	e51f1970 	ldr	r1, [pc, #-2416]	; 5614 <_dtoa_r+0x5cc>
    5f80:	e24ac001 	sub	r12, r10, #1
    5f84:	e081118c 	add	r1, r1, r12, lsl #3
    5f88:	e1a02004 	mov	r2, r4
    5f8c:	e1a03005 	mov	r3, r5
    5f90:	e8910003 	ldm	r1, {r0, r1}
    5f94:	e58dc050 	str	r12, [sp, #80]	; 0x50
    5f98:	ebffea5f 	bl	91c <__aeabi_dmul>
    5f9c:	e58d0058 	str	r0, [sp, #88]	; 0x58
    5fa0:	e58d105c 	str	r1, [sp, #92]	; 0x5c
    5fa4:	e28d1030 	add	r1, sp, #48	; 0x30
    5fa8:	e8910003 	ldm	r1, {r0, r1}
    5fac:	eb0030d1 	bl	122f8 <__aeabi_d2iz>
    5fb0:	e1a07000 	mov	r7, r0
    5fb4:	ebffea21 	bl	840 <__aeabi_i2d>
    5fb8:	e1a02000 	mov	r2, r0
    5fbc:	e1a03001 	mov	r3, r1
    5fc0:	e28d1030 	add	r1, sp, #48	; 0x30
    5fc4:	e8910003 	ldm	r1, {r0, r1}
    5fc8:	ebffe94e 	bl	508 <__aeabi_dsub>
    5fcc:	e59dc024 	ldr	r12, [sp, #36]	; 0x24
    5fd0:	e2877030 	add	r7, r7, #48	; 0x30
    5fd4:	e4cc7001 	strb	r7, [r12], #1
    5fd8:	e35a0001 	cmp	r10, #1
    5fdc:	e1a04000 	mov	r4, r0
    5fe0:	e1a05001 	mov	r5, r1
    5fe4:	e58dc030 	str	r12, [sp, #48]	; 0x30
    5fe8:	0a000019 	beq	6054 <_dtoa_r+0x100c>
    5fec:	e59dc024 	ldr	r12, [sp, #36]	; 0x24
    5ff0:	e24c3001 	sub	r3, r12, #1
    5ff4:	e1a0700c 	mov	r7, r12
    5ff8:	e083a00a 	add	r10, r3, r10
    5ffc:	e3a02000 	mov	r2, #0
    6000:	e51f39e8 	ldr	r3, [pc, #-2536]	; 5620 <_dtoa_r+0x5d8>
    6004:	ebffea44 	bl	91c <__aeabi_dmul>
    6008:	e1a05001 	mov	r5, r1
    600c:	e1a04000 	mov	r4, r0
    6010:	eb0030b8 	bl	122f8 <__aeabi_d2iz>
    6014:	e1a08000 	mov	r8, r0
    6018:	ebffea08 	bl	840 <__aeabi_i2d>
    601c:	e2888030 	add	r8, r8, #48	; 0x30
    6020:	e1a02000 	mov	r2, r0
    6024:	e1a03001 	mov	r3, r1
    6028:	e1a00004 	mov	r0, r4
    602c:	e1a01005 	mov	r1, r5
    6030:	ebffe934 	bl	508 <__aeabi_dsub>
    6034:	e5e78001 	strb	r8, [r7, #1]!
    6038:	e157000a 	cmp	r7, r10
    603c:	1affffee 	bne	5ffc <_dtoa_r+0xfb4>
    6040:	e1a05001 	mov	r5, r1
    6044:	e59d2050 	ldr	r2, [sp, #80]	; 0x50
    6048:	e59d1030 	ldr	r1, [sp, #48]	; 0x30
    604c:	e1a04000 	mov	r4, r0
    6050:	e081c002 	add	r12, r1, r2
    6054:	e3a02000 	mov	r2, #0
    6058:	e51f3a38 	ldr	r3, [pc, #-2616]	; 5628 <_dtoa_r+0x5e0>
    605c:	e28d1058 	add	r1, sp, #88	; 0x58
    6060:	e8910003 	ldm	r1, {r0, r1}
    6064:	e58dc008 	str	r12, [sp, #8]
    6068:	ebffe927 	bl	50c <__adddf3>
    606c:	e1a02004 	mov	r2, r4
    6070:	e1a03005 	mov	r3, r5
    6074:	eb003087 	bl	12298 <__aeabi_dcmplt>
    6078:	e3500000 	cmp	r0, #0
    607c:	e59dc008 	ldr	r12, [sp, #8]
    6080:	0a0000ee 	beq	6440 <_dtoa_r+0x13f8>
    6084:	e55c8001 	ldrb	r8, [r12, #-1]
    6088:	e59d4024 	ldr	r4, [sp, #36]	; 0x24
    608c:	eafffd4d 	b	55c8 <_dtoa_r+0x580>
    6090:	e5973010 	ldr	r3, [r7, #16]
    6094:	e0873103 	add	r3, r7, r3, lsl #2
    6098:	e5930010 	ldr	r0, [r3, #16]
    609c:	eb000aac 	bl	8b54 <__hi0bits>
    60a0:	e2600020 	rsb	r0, r0, #32
    60a4:	eafffdb1 	b	5770 <_dtoa_r+0x728>
    60a8:	e1a0000b 	mov	r0, r11
    60ac:	e1a01007 	mov	r1, r7
    60b0:	eb000be0 	bl	9038 <__mcmp>
    60b4:	e3500000 	cmp	r0, #0
    60b8:	aafffdce 	bge	57f8 <_dtoa_r+0x7b0>
    60bc:	e1a0100b 	mov	r1, r11
    60c0:	e1a00006 	mov	r0, r6
    60c4:	e3a0200a 	mov	r2, #10
    60c8:	e3a03000 	mov	r3, #0
    60cc:	eb000a2d 	bl	8988 <__multadd>
    60d0:	e59dc040 	ldr	r12, [sp, #64]	; 0x40
    60d4:	e35c0000 	cmp	r12, #0
    60d8:	e1a0b000 	mov	r11, r0
    60dc:	e2499001 	sub	r9, r9, #1
    60e0:	1a00016e 	bne	66a0 <_dtoa_r+0x1658>
    60e4:	e59d4044 	ldr	r4, [sp, #68]	; 0x44
    60e8:	e59dc0a0 	ldr	r12, [sp, #160]	; 0xa0
    60ec:	e3540000 	cmp	r4, #0
    60f0:	c3a03000 	movgt	r3, #0
    60f4:	d3a03001 	movle	r3, #1
    60f8:	e35c0002 	cmp	r12, #2
    60fc:	d3a03000 	movle	r3, #0
    6100:	e3530000 	cmp	r3, #0
    6104:	058d4038 	streq	r4, [sp, #56]	; 0x38
    6108:	0affff37 	beq	5dec <_dtoa_r+0xda4>
    610c:	e59dc044 	ldr	r12, [sp, #68]	; 0x44
    6110:	e58dc038 	str	r12, [sp, #56]	; 0x38
    6114:	eafffdc0 	b	581c <_dtoa_r+0x7d4>
    6118:	e59d4038 	ldr	r4, [sp, #56]	; 0x38
    611c:	e3540000 	cmp	r4, #0
    6120:	1a00011e 	bne	65a0 <_dtoa_r+0x1558>
    6124:	e3a02000 	mov	r2, #0
    6128:	e51f3b18 	ldr	r3, [pc, #-2840]	; 5618 <_dtoa_r+0x5d0>
    612c:	e28d1018 	add	r1, sp, #24
    6130:	e8910003 	ldm	r1, {r0, r1}
    6134:	ebffe9f8 	bl	91c <__aeabi_dmul>
    6138:	e28d3010 	add	r3, sp, #16
    613c:	e893000c 	ldm	r3, {r2, r3}
    6140:	eb003060 	bl	122c8 <__aeabi_dcmpge>
    6144:	e59d7038 	ldr	r7, [sp, #56]	; 0x38
    6148:	e3500000 	cmp	r0, #0
    614c:	e1a0a007 	mov	r10, r7
    6150:	1affff1d 	bne	5dcc <_dtoa_r+0xd84>
    6154:	eafffdbe 	b	5854 <_dtoa_r+0x80c>
    6158:	e59d1010 	ldr	r1, [sp, #16]
    615c:	e3510000 	cmp	r1, #0
    6160:	1afffd7d 	bne	575c <_dtoa_r+0x714>
    6164:	e59d3014 	ldr	r3, [sp, #20]
    6168:	e3c324ff 	bic	r2, r3, #-16777216	; 0xff000000
    616c:	e3c2260f 	bic	r2, r2, #15728640	; 0xf00000
    6170:	e3520000 	cmp	r2, #0
    6174:	1a000121 	bne	6600 <_dtoa_r+0x15b8>
    6178:	e51f5b64 	ldr	r5, [pc, #-2916]	; 561c <_dtoa_r+0x5d4>
    617c:	e0035005 	and	r5, r3, r5
    6180:	e3550000 	cmp	r5, #0
    6184:	0afffd75 	beq	5760 <_dtoa_r+0x718>
    6188:	e59dc02c 	ldr	r12, [sp, #44]	; 0x2c
    618c:	e28cc001 	add	r12, r12, #1
    6190:	e58dc02c 	str	r12, [sp, #44]	; 0x2c
    6194:	e59dc028 	ldr	r12, [sp, #40]	; 0x28
    6198:	e28cc001 	add	r12, r12, #1
    619c:	e58dc028 	str	r12, [sp, #40]	; 0x28
    61a0:	e3a05001 	mov	r5, #1
    61a4:	eafffd6d 	b	5760 <_dtoa_r+0x718>
    61a8:	e3540000 	cmp	r4, #0
    61ac:	da000004 	ble	61c4 <_dtoa_r+0x117c>
    61b0:	e1a0100a 	mov	r1, r10
    61b4:	e1a00006 	mov	r0, r6
    61b8:	e1a02004 	mov	r2, r4
    61bc:	eb000b5c 	bl	8f34 <__lshift>
    61c0:	e1a0a000 	mov	r10, r0
    61c4:	e3550000 	cmp	r5, #0
    61c8:	01a0800a 	moveq	r8, r10
    61cc:	1a0000f6 	bne	65ac <_dtoa_r+0x1564>
    61d0:	e59d1038 	ldr	r1, [sp, #56]	; 0x38
    61d4:	e59dc024 	ldr	r12, [sp, #36]	; 0x24
    61d8:	e08cc001 	add	r12, r12, r1
    61dc:	e59d4024 	ldr	r4, [sp, #36]	; 0x24
    61e0:	e58dc02c 	str	r12, [sp, #44]	; 0x2c
    61e4:	e59dc010 	ldr	r12, [sp, #16]
    61e8:	e2844001 	add	r4, r4, #1
    61ec:	e20cc001 	and	r12, r12, #1
    61f0:	e58d4030 	str	r4, [sp, #48]	; 0x30
    61f4:	e1a0500a 	mov	r5, r10
    61f8:	e58dc020 	str	r12, [sp, #32]
    61fc:	e58d9038 	str	r9, [sp, #56]	; 0x38
    6200:	ea00002e 	b	62c0 <_dtoa_r+0x1278>
    6204:	e1a00006 	mov	r0, r6
    6208:	e1a01003 	mov	r1, r3
    620c:	e58d200c 	str	r2, [sp, #12]
    6210:	eb0009d5 	bl	896c <_Bfree>
    6214:	e59d200c 	ldr	r2, [sp, #12]
    6218:	e59dc0a0 	ldr	r12, [sp, #160]	; 0xa0
    621c:	e192c00c 	orrs	r12, r2, r12
    6220:	1a000002 	bne	6230 <_dtoa_r+0x11e8>
    6224:	e59dc020 	ldr	r12, [sp, #32]
    6228:	e35c0000 	cmp	r12, #0
    622c:	0a000109 	beq	6658 <_dtoa_r+0x1610>
    6230:	e35a0000 	cmp	r10, #0
    6234:	ba0000a6 	blt	64d4 <_dtoa_r+0x148c>
    6238:	e59dc0a0 	ldr	r12, [sp, #160]	; 0xa0
    623c:	e19ac00c 	orrs	r12, r10, r12
    6240:	1a000002 	bne	6250 <_dtoa_r+0x1208>
    6244:	e59dc020 	ldr	r12, [sp, #32]
    6248:	e35c0000 	cmp	r12, #0
    624c:	0a0000a0 	beq	64d4 <_dtoa_r+0x148c>
    6250:	e3520000 	cmp	r2, #0
    6254:	ca0000eb 	bgt	6608 <_dtoa_r+0x15c0>
    6258:	e59dc02c 	ldr	r12, [sp, #44]	; 0x2c
    625c:	e154000c 	cmp	r4, r12
    6260:	e5449001 	strb	r9, [r4, #-1]
    6264:	e1a0c004 	mov	r12, r4
    6268:	0a0000f1 	beq	6634 <_dtoa_r+0x15ec>
    626c:	e1a0100b 	mov	r1, r11
    6270:	e1a00006 	mov	r0, r6
    6274:	e3a0200a 	mov	r2, #10
    6278:	e3a03000 	mov	r3, #0
    627c:	eb0009c1 	bl	8988 <__multadd>
    6280:	e1550008 	cmp	r5, r8
    6284:	e1a0b000 	mov	r11, r0
    6288:	0a000028 	beq	6330 <_dtoa_r+0x12e8>
    628c:	e1a01005 	mov	r1, r5
    6290:	e3a0200a 	mov	r2, #10
    6294:	e3a03000 	mov	r3, #0
    6298:	e1a00006 	mov	r0, r6
    629c:	eb0009b9 	bl	8988 <__multadd>
    62a0:	e1a01008 	mov	r1, r8
    62a4:	e1a05000 	mov	r5, r0
    62a8:	e3a0200a 	mov	r2, #10
    62ac:	e1a00006 	mov	r0, r6
    62b0:	e3a03000 	mov	r3, #0
    62b4:	eb0009b3 	bl	8988 <__multadd>
    62b8:	e1a08000 	mov	r8, r0
    62bc:	e2844001 	add	r4, r4, #1
    62c0:	e1a01007 	mov	r1, r7
    62c4:	e1a0000b 	mov	r0, r11
    62c8:	ebfffae6 	bl	4e68 <quorem>
    62cc:	e1a01005 	mov	r1, r5
    62d0:	e58d0010 	str	r0, [sp, #16]
    62d4:	e1a0000b 	mov	r0, r11
    62d8:	eb000b56 	bl	9038 <__mcmp>
    62dc:	e1a02008 	mov	r2, r8
    62e0:	e1a0a000 	mov	r10, r0
    62e4:	e1a01007 	mov	r1, r7
    62e8:	e1a00006 	mov	r0, r6
    62ec:	eb000b6a 	bl	909c <__mdiff>
    62f0:	e244c001 	sub	r12, r4, #1
    62f4:	e590200c 	ldr	r2, [r0, #12]
    62f8:	e58dc028 	str	r12, [sp, #40]	; 0x28
    62fc:	e59dc010 	ldr	r12, [sp, #16]
    6300:	e3520000 	cmp	r2, #0
    6304:	e1a03000 	mov	r3, r0
    6308:	e28c9030 	add	r9, r12, #48	; 0x30
    630c:	13a02001 	movne	r2, #1
    6310:	1affffbb 	bne	6204 <_dtoa_r+0x11bc>
    6314:	e1a01003 	mov	r1, r3
    6318:	e1a0000b 	mov	r0, r11
    631c:	e58d300c 	str	r3, [sp, #12]
    6320:	eb000b44 	bl	9038 <__mcmp>
    6324:	e59d300c 	ldr	r3, [sp, #12]
    6328:	e1a02000 	mov	r2, r0
    632c:	eaffffb4 	b	6204 <_dtoa_r+0x11bc>
    6330:	e1a01005 	mov	r1, r5
    6334:	e1a00006 	mov	r0, r6
    6338:	e3a0200a 	mov	r2, #10
    633c:	e3a03000 	mov	r3, #0
    6340:	eb000990 	bl	8988 <__multadd>
    6344:	e1a05000 	mov	r5, r0
    6348:	e1a08000 	mov	r8, r0
    634c:	eaffffda 	b	62bc <_dtoa_r+0x1274>
    6350:	e3a03001 	mov	r3, #1
    6354:	e58d3044 	str	r3, [sp, #68]	; 0x44
    6358:	e58d3038 	str	r3, [sp, #56]	; 0x38
    635c:	e58d30a4 	str	r3, [sp, #164]	; 0xa4
    6360:	e3a01000 	mov	r1, #0
    6364:	e5861044 	str	r1, [r6, #68]	; 0x44
    6368:	e0034004 	and	r4, r3, r4
    636c:	eafffda7 	b	5a10 <_dtoa_r+0x9c8>
    6370:	e358000e 	cmp	r8, #14
    6374:	83a03000 	movhi	r3, #0
    6378:	93a03001 	movls	r3, #1
    637c:	e58d8038 	str	r8, [sp, #56]	; 0x38
    6380:	eafffff6 	b	6360 <_dtoa_r+0x1318>
    6384:	e1a0100b 	mov	r1, r11
    6388:	e1a00006 	mov	r0, r6
    638c:	e59d203c 	ldr	r2, [sp, #60]	; 0x3c
    6390:	eb000aaa 	bl	8e40 <__pow5mult>
    6394:	e1a0b000 	mov	r11, r0
    6398:	eafffce0 	b	5720 <_dtoa_r+0x6d8>
    639c:	e1a0c006 	mov	r12, r6
    63a0:	e59d9020 	ldr	r9, [sp, #32]
    63a4:	e59d6028 	ldr	r6, [sp, #40]	; 0x28
    63a8:	e59d4024 	ldr	r4, [sp, #36]	; 0x24
    63ac:	e58dc024 	str	r12, [sp, #36]	; 0x24
    63b0:	eafffd39 	b	589c <_dtoa_r+0x854>
    63b4:	e28d4010 	add	r4, sp, #16
    63b8:	e8940018 	ldm	r4, {r3, r4}
    63bc:	e3a08002 	mov	r8, #2
    63c0:	e58d3030 	str	r3, [sp, #48]	; 0x30
    63c4:	e58d4034 	str	r4, [sp, #52]	; 0x34
    63c8:	eafffdbf 	b	5acc <_dtoa_r+0xa84>
    63cc:	e59dc038 	ldr	r12, [sp, #56]	; 0x38
    63d0:	e35c0000 	cmp	r12, #0
    63d4:	0afffe5e 	beq	5d54 <_dtoa_r+0xd0c>
    63d8:	e59d4044 	ldr	r4, [sp, #68]	; 0x44
    63dc:	e3540000 	cmp	r4, #0
    63e0:	dafffbf2 	ble	53b0 <_dtoa_r+0x368>
    63e4:	e3a02000 	mov	r2, #0
    63e8:	e51f3dd0 	ldr	r3, [pc, #-3536]	; 5620 <_dtoa_r+0x5d8>
    63ec:	e28d1030 	add	r1, sp, #48	; 0x30
    63f0:	e8910003 	ldm	r1, {r0, r1}
    63f4:	ebffe948 	bl	91c <__aeabi_dmul>
    63f8:	e58d0030 	str	r0, [sp, #48]	; 0x30
    63fc:	e58d1034 	str	r1, [sp, #52]	; 0x34
    6400:	e2880001 	add	r0, r8, #1
    6404:	ebffe90d 	bl	840 <__aeabi_i2d>
    6408:	e1a02000 	mov	r2, r0
    640c:	e1a03001 	mov	r3, r1
    6410:	e28d1030 	add	r1, sp, #48	; 0x30
    6414:	e8910003 	ldm	r1, {r0, r1}
    6418:	ebffe93f 	bl	91c <__aeabi_dmul>
    641c:	e3a02000 	mov	r2, #0
    6420:	e51f3e04 	ldr	r3, [pc, #-3588]	; 5624 <_dtoa_r+0x5dc>
    6424:	ebffe838 	bl	50c <__adddf3>
    6428:	e249c001 	sub	r12, r9, #1
    642c:	e1a04000 	mov	r4, r0
    6430:	e58dc064 	str	r12, [sp, #100]	; 0x64
    6434:	e241550d 	sub	r5, r1, #54525952	; 0x3400000
    6438:	e59da044 	ldr	r10, [sp, #68]	; 0x44
    643c:	eafffdbb 	b	5b30 <_dtoa_r+0xae8>
    6440:	e28d3058 	add	r3, sp, #88	; 0x58
    6444:	e893000c 	ldm	r3, {r2, r3}
    6448:	e3a00000 	mov	r0, #0
    644c:	e51f1e2c 	ldr	r1, [pc, #-3628]	; 5628 <_dtoa_r+0x5e0>
    6450:	e58dc008 	str	r12, [sp, #8]
    6454:	ebffe82b 	bl	508 <__aeabi_dsub>
    6458:	e1a02004 	mov	r2, r4
    645c:	e1a03005 	mov	r3, r5
    6460:	eb002f9e 	bl	122e0 <__aeabi_dcmpgt>
    6464:	e3500000 	cmp	r0, #0
    6468:	e59dc008 	ldr	r12, [sp, #8]
    646c:	0afffbcf 	beq	53b0 <_dtoa_r+0x368>
    6470:	e1a0900c 	mov	r9, r12
    6474:	e5592001 	ldrb	r2, [r9, #-1]
    6478:	e3520030 	cmp	r2, #48	; 0x30
    647c:	e1a03009 	mov	r3, r9
    6480:	e2499001 	sub	r9, r9, #1
    6484:	0afffffa 	beq	6474 <_dtoa_r+0x142c>
    6488:	e59d4024 	ldr	r4, [sp, #36]	; 0x24
    648c:	e59d9064 	ldr	r9, [sp, #100]	; 0x64
    6490:	e58d3024 	str	r3, [sp, #36]	; 0x24
    6494:	eafffd00 	b	589c <_dtoa_r+0x854>
    6498:	e1a0100b 	mov	r1, r11
    649c:	e1a00006 	mov	r0, r6
    64a0:	eb000a66 	bl	8e40 <__pow5mult>
    64a4:	e1a0b000 	mov	r11, r0
    64a8:	eafffc9c 	b	5720 <_dtoa_r+0x6d8>
    64ac:	e59d4060 	ldr	r4, [sp, #96]	; 0x60
    64b0:	e3540000 	cmp	r4, #0
    64b4:	059d3070 	ldreq	r3, [sp, #112]	; 0x70
    64b8:	12833e43 	addne	r3, r3, #1072	; 0x430
    64bc:	12833003 	addne	r3, r3, #3
    64c0:	159d503c 	ldrne	r5, [sp, #60]	; 0x3c
    64c4:	059d503c 	ldreq	r5, [sp, #60]	; 0x3c
    64c8:	02633036 	rsbeq	r3, r3, #54	; 0x36
    64cc:	e59d402c 	ldr	r4, [sp, #44]	; 0x2c
    64d0:	eafffd2b 	b	5984 <_dtoa_r+0x93c>
    64d4:	e1a03009 	mov	r3, r9
    64d8:	e3520000 	cmp	r2, #0
    64dc:	e59d9038 	ldr	r9, [sp, #56]	; 0x38
    64e0:	e1a04003 	mov	r4, r3
    64e4:	da00000e 	ble	6524 <_dtoa_r+0x14dc>
    64e8:	e1a0100b 	mov	r1, r11
    64ec:	e3a02001 	mov	r2, #1
    64f0:	e1a00006 	mov	r0, r6
    64f4:	e58d300c 	str	r3, [sp, #12]
    64f8:	eb000a8d 	bl	8f34 <__lshift>
    64fc:	e1a01007 	mov	r1, r7
    6500:	e1a0b000 	mov	r11, r0
    6504:	eb000acb 	bl	9038 <__mcmp>
    6508:	e3500000 	cmp	r0, #0
    650c:	e59d300c 	ldr	r3, [sp, #12]
    6510:	da000058 	ble	6678 <_dtoa_r+0x1630>
    6514:	e3540039 	cmp	r4, #57	; 0x39
    6518:	e59d4010 	ldr	r4, [sp, #16]
    651c:	e2843031 	add	r3, r4, #49	; 0x31
    6520:	0a000047 	beq	6644 <_dtoa_r+0x15fc>
    6524:	e59d2028 	ldr	r2, [sp, #40]	; 0x28
    6528:	e4c23001 	strb	r3, [r2], #1
    652c:	e59d4024 	ldr	r4, [sp, #36]	; 0x24
    6530:	e1a0a008 	mov	r10, r8
    6534:	e58d2024 	str	r2, [sp, #36]	; 0x24
    6538:	eafffccc 	b	5870 <_dtoa_r+0x828>
    653c:	e1a0c00b 	mov	r12, r11
    6540:	e59d6068 	ldr	r6, [sp, #104]	; 0x68
    6544:	e59db058 	ldr	r11, [sp, #88]	; 0x58
    6548:	e59d4024 	ldr	r4, [sp, #36]	; 0x24
    654c:	eafffc1d 	b	55c8 <_dtoa_r+0x580>
    6550:	e58d9024 	str	r9, [sp, #36]	; 0x24
    6554:	e2888001 	add	r8, r8, #1
    6558:	e59d9064 	ldr	r9, [sp, #100]	; 0x64
    655c:	eafffc40 	b	5664 <_dtoa_r+0x61c>
    6560:	e59d906c 	ldr	r9, [sp, #108]	; 0x6c
    6564:	e59db058 	ldr	r11, [sp, #88]	; 0x58
    6568:	e59d6068 	ldr	r6, [sp, #104]	; 0x68
    656c:	eafffb8f 	b	53b0 <_dtoa_r+0x368>
    6570:	1a000001 	bne	657c <_dtoa_r+0x1534>
    6574:	e3130001 	tst	r3, #1
    6578:	1afffe41 	bne	5e84 <_dtoa_r+0xe3c>
    657c:	e1a0100c 	mov	r1, r12
    6580:	e5512001 	ldrb	r2, [r1, #-1]
    6584:	e3520030 	cmp	r2, #48	; 0x30
    6588:	e1a03001 	mov	r3, r1
    658c:	e2411001 	sub	r1, r1, #1
    6590:	0afffffa 	beq	6580 <_dtoa_r+0x1538>
    6594:	e59d4024 	ldr	r4, [sp, #36]	; 0x24
    6598:	e58d3024 	str	r3, [sp, #36]	; 0x24
    659c:	eafffcb3 	b	5870 <_dtoa_r+0x828>
    65a0:	e3a07000 	mov	r7, #0
    65a4:	e1a0a007 	mov	r10, r7
    65a8:	eafffe07 	b	5dcc <_dtoa_r+0xd84>
    65ac:	e59a1004 	ldr	r1, [r10, #4]
    65b0:	e1a00006 	mov	r0, r6
    65b4:	eb0008c9 	bl	88e0 <_Balloc>
    65b8:	e59a2010 	ldr	r2, [r10, #16]
    65bc:	e2822002 	add	r2, r2, #2
    65c0:	e1a04000 	mov	r4, r0
    65c4:	e1a02102 	lsl	r2, r2, #2
    65c8:	e28a100c 	add	r1, r10, #12
    65cc:	e280000c 	add	r0, r0, #12
    65d0:	eb0007a3 	bl	8464 <memcpy>
    65d4:	e1a00006 	mov	r0, r6
    65d8:	e1a01004 	mov	r1, r4
    65dc:	e3a02001 	mov	r2, #1
    65e0:	eb000a53 	bl	8f34 <__lshift>
    65e4:	e1a08000 	mov	r8, r0
    65e8:	eafffef8 	b	61d0 <_dtoa_r+0x1188>
    65ec:	e2833001 	add	r3, r3, #1
    65f0:	e59d4024 	ldr	r4, [sp, #36]	; 0x24
    65f4:	e5c23000 	strb	r3, [r2]
    65f8:	e58d1024 	str	r1, [sp, #36]	; 0x24
    65fc:	eafffc9b 	b	5870 <_dtoa_r+0x828>
    6600:	e59d5010 	ldr	r5, [sp, #16]
    6604:	eafffc55 	b	5760 <_dtoa_r+0x718>
    6608:	e1a03009 	mov	r3, r9
    660c:	e3530039 	cmp	r3, #57	; 0x39
    6610:	e59d9038 	ldr	r9, [sp, #56]	; 0x38
    6614:	0a00000a 	beq	6644 <_dtoa_r+0x15fc>
    6618:	e59d2028 	ldr	r2, [sp, #40]	; 0x28
    661c:	e2833001 	add	r3, r3, #1
    6620:	e4c23001 	strb	r3, [r2], #1
    6624:	e59d4024 	ldr	r4, [sp, #36]	; 0x24
    6628:	e1a0a008 	mov	r10, r8
    662c:	e58d2024 	str	r2, [sp, #36]	; 0x24
    6630:	eafffc8e 	b	5870 <_dtoa_r+0x828>
    6634:	e1a03009 	mov	r3, r9
    6638:	e1a0a008 	mov	r10, r8
    663c:	e59d9038 	ldr	r9, [sp, #56]	; 0x38
    6640:	eafffe02 	b	5e50 <_dtoa_r+0xe08>
    6644:	e59dc028 	ldr	r12, [sp, #40]	; 0x28
    6648:	e3a03039 	mov	r3, #57	; 0x39
    664c:	e4cc3001 	strb	r3, [r12], #1
    6650:	e1a0a008 	mov	r10, r8
    6654:	eafffe0e 	b	5e94 <_dtoa_r+0xe4c>
    6658:	e1a03009 	mov	r3, r9
    665c:	e3530039 	cmp	r3, #57	; 0x39
    6660:	e59d9038 	ldr	r9, [sp, #56]	; 0x38
    6664:	0afffff6 	beq	6644 <_dtoa_r+0x15fc>
    6668:	e35a0000 	cmp	r10, #0
    666c:	c59d4010 	ldrgt	r4, [sp, #16]
    6670:	c2843031 	addgt	r3, r4, #49	; 0x31
    6674:	eaffffaa 	b	6524 <_dtoa_r+0x14dc>
    6678:	1affffa9 	bne	6524 <_dtoa_r+0x14dc>
    667c:	e3130001 	tst	r3, #1
    6680:	0affffa7 	beq	6524 <_dtoa_r+0x14dc>
    6684:	eaffffa2 	b	6514 <_dtoa_r+0x14cc>
    6688:	e3a08002 	mov	r8, #2
    668c:	eafffd0e 	b	5acc <_dtoa_r+0xa84>
    6690:	e59dc030 	ldr	r12, [sp, #48]	; 0x30
    6694:	e59d4024 	ldr	r4, [sp, #36]	; 0x24
    6698:	e58dc024 	str	r12, [sp, #36]	; 0x24
    669c:	eafffc7e 	b	589c <_dtoa_r+0x854>
    66a0:	e3a03000 	mov	r3, #0
    66a4:	e1a0100a 	mov	r1, r10
    66a8:	e1a00006 	mov	r0, r6
    66ac:	e3a0200a 	mov	r2, #10
    66b0:	eb0008b4 	bl	8988 <__multadd>
    66b4:	e59dc044 	ldr	r12, [sp, #68]	; 0x44
    66b8:	e59d10a0 	ldr	r1, [sp, #160]	; 0xa0
    66bc:	e35c0000 	cmp	r12, #0
    66c0:	c3a03000 	movgt	r3, #0
    66c4:	d3a03001 	movle	r3, #1
    66c8:	e3510002 	cmp	r1, #2
    66cc:	d3a03000 	movle	r3, #0
    66d0:	e3530000 	cmp	r3, #0
    66d4:	e1a0a000 	mov	r10, r0
    66d8:	058dc038 	streq	r12, [sp, #56]	; 0x38
    66dc:	0afffeb1 	beq	61a8 <_dtoa_r+0x1160>
    66e0:	e59d4044 	ldr	r4, [sp, #68]	; 0x44
    66e4:	e58d4038 	str	r4, [sp, #56]	; 0x38
    66e8:	eafffc4b 	b	581c <_dtoa_r+0x7d4>
    66ec:	e59dc030 	ldr	r12, [sp, #48]	; 0x30
    66f0:	e59d4024 	ldr	r4, [sp, #36]	; 0x24
    66f4:	e59d9064 	ldr	r9, [sp, #100]	; 0x64
    66f8:	e58dc024 	str	r12, [sp, #36]	; 0x24
    66fc:	eafffc66 	b	589c <_dtoa_r+0x854>
    6700:	1263303c 	rsbne	r3, r3, #60	; 0x3c
    6704:	0afffc28 	beq	57ac <_dtoa_r+0x764>
    6708:	eafffc20 	b	5790 <_dtoa_r+0x748>
    670c:	e1a00000 	nop			; (mov r0, r0)

00006710 <_fflush_r>:
    6710:	e92d40f8 	push	{r3, r4, r5, r6, r7, lr}
    6714:	e2507000 	subs	r7, r0, #0
    6718:	e1a04001 	mov	r4, r1
    671c:	0a000002 	beq	672c <_fflush_r+0x1c>
    6720:	e5973038 	ldr	r3, [r7, #56]	; 0x38
    6724:	e3530000 	cmp	r3, #0
    6728:	0a000059 	beq	6894 <_fflush_r+0x184>
    672c:	e1d420bc 	ldrh	r2, [r4, #12]
    6730:	e3520000 	cmp	r2, #0
    6734:	0a000023 	beq	67c8 <_fflush_r+0xb8>
    6738:	e3120008 	tst	r2, #8
    673c:	0a000024 	beq	67d4 <_fflush_r+0xc4>
    6740:	e5946010 	ldr	r6, [r4, #16]
    6744:	e3560000 	cmp	r6, #0
    6748:	0a00001e 	beq	67c8 <_fflush_r+0xb8>
    674c:	e5945000 	ldr	r5, [r4]
    6750:	e3120003 	tst	r2, #3
    6754:	05943014 	ldreq	r3, [r4, #20]
    6758:	e0665005 	rsb	r5, r6, r5
    675c:	13a03000 	movne	r3, #0
    6760:	e3550000 	cmp	r5, #0
    6764:	e5846000 	str	r6, [r4]
    6768:	e5843008 	str	r3, [r4, #8]
    676c:	ca000003 	bgt	6780 <_fflush_r+0x70>
    6770:	ea000014 	b	67c8 <_fflush_r+0xb8>
    6774:	e3550000 	cmp	r5, #0
    6778:	e0866000 	add	r6, r6, r0
    677c:	da000011 	ble	67c8 <_fflush_r+0xb8>
    6780:	e1a03005 	mov	r3, r5
    6784:	e1a02006 	mov	r2, r6
    6788:	e1a00007 	mov	r0, r7
    678c:	e594101c 	ldr	r1, [r4, #28]
    6790:	e594c024 	ldr	r12, [r4, #36]	; 0x24
    6794:	e1a0e00f 	mov	lr, pc
    6798:	e12fff1c 	bx	r12
    679c:	e3500000 	cmp	r0, #0
    67a0:	e0605005 	rsb	r5, r0, r5
    67a4:	cafffff2 	bgt	6774 <_fflush_r+0x64>
    67a8:	e1d430bc 	ldrh	r3, [r4, #12]
    67ac:	e3833040 	orr	r3, r3, #64	; 0x40
    67b0:	e1c430bc 	strh	r3, [r4, #12]
    67b4:	e3e00000 	mvn	r0, #0
    67b8:	ea000003 	b	67cc <_fflush_r+0xbc>
    67bc:	e594103c 	ldr	r1, [r4, #60]	; 0x3c
    67c0:	e3510000 	cmp	r1, #0
    67c4:	ca000007 	bgt	67e8 <_fflush_r+0xd8>
    67c8:	e3a00000 	mov	r0, #0
    67cc:	e8bd40f8 	pop	{r3, r4, r5, r6, r7, lr}
    67d0:	e12fff1e 	bx	lr
    67d4:	e5941004 	ldr	r1, [r4, #4]
    67d8:	e3823b02 	orr	r3, r2, #2048	; 0x800
    67dc:	e3510000 	cmp	r1, #0
    67e0:	e1c430bc 	strh	r3, [r4, #12]
    67e4:	dafffff4 	ble	67bc <_fflush_r+0xac>
    67e8:	e594c028 	ldr	r12, [r4, #40]	; 0x28
    67ec:	e35c0000 	cmp	r12, #0
    67f0:	0afffff4 	beq	67c8 <_fflush_r+0xb8>
    67f4:	e3a01000 	mov	r1, #0
    67f8:	e2126a01 	ands	r6, r2, #4096	; 0x1000
    67fc:	e5975000 	ldr	r5, [r7]
    6800:	e5871000 	str	r1, [r7]
    6804:	0a000024 	beq	689c <_fflush_r+0x18c>
    6808:	e5942050 	ldr	r2, [r4, #80]	; 0x50
    680c:	e3130004 	tst	r3, #4
    6810:	0a000005 	beq	682c <_fflush_r+0x11c>
    6814:	e5941030 	ldr	r1, [r4, #48]	; 0x30
    6818:	e5943004 	ldr	r3, [r4, #4]
    681c:	e3510000 	cmp	r1, #0
    6820:	e0632002 	rsb	r2, r3, r2
    6824:	1594303c 	ldrne	r3, [r4, #60]	; 0x3c
    6828:	10632002 	rsbne	r2, r3, r2
    682c:	e1a00007 	mov	r0, r7
    6830:	e594101c 	ldr	r1, [r4, #28]
    6834:	e3a03000 	mov	r3, #0
    6838:	e1a0e00f 	mov	lr, pc
    683c:	e12fff1c 	bx	r12
    6840:	e3700001 	cmn	r0, #1
    6844:	0a000020 	beq	68cc <_fflush_r+0x1bc>
    6848:	e1d430bc 	ldrh	r3, [r4, #12]
    684c:	e5942010 	ldr	r2, [r4, #16]
    6850:	e3c31b02 	bic	r1, r3, #2048	; 0x800
    6854:	e3130a01 	tst	r3, #4096	; 0x1000
    6858:	e3a03000 	mov	r3, #0
    685c:	e1c410bc 	strh	r1, [r4, #12]
    6860:	e884000c 	stm	r4, {r2, r3}
    6864:	1a000028 	bne	690c <_fflush_r+0x1fc>
    6868:	e5941030 	ldr	r1, [r4, #48]	; 0x30
    686c:	e3510000 	cmp	r1, #0
    6870:	e5875000 	str	r5, [r7]
    6874:	0affffd3 	beq	67c8 <_fflush_r+0xb8>
    6878:	e2843040 	add	r3, r4, #64	; 0x40
    687c:	e1510003 	cmp	r1, r3
    6880:	11a00007 	movne	r0, r7
    6884:	1b0001cc 	blne	6fbc <_free_r>
    6888:	e3a00000 	mov	r0, #0
    688c:	e5840030 	str	r0, [r4, #48]	; 0x30
    6890:	eaffffcd 	b	67cc <_fflush_r+0xbc>
    6894:	eb000077 	bl	6a78 <__sinit>
    6898:	eaffffa3 	b	672c <_fflush_r+0x1c>
    689c:	e1a02006 	mov	r2, r6
    68a0:	e1a00007 	mov	r0, r7
    68a4:	e594101c 	ldr	r1, [r4, #28]
    68a8:	e3a03001 	mov	r3, #1
    68ac:	e1a0e00f 	mov	lr, pc
    68b0:	e12fff1c 	bx	r12
    68b4:	e3700001 	cmn	r0, #1
    68b8:	e1a02000 	mov	r2, r0
    68bc:	0a000014 	beq	6914 <_fflush_r+0x204>
    68c0:	e1d430bc 	ldrh	r3, [r4, #12]
    68c4:	e594c028 	ldr	r12, [r4, #40]	; 0x28
    68c8:	eaffffcf 	b	680c <_fflush_r+0xfc>
    68cc:	e597c000 	ldr	r12, [r7]
    68d0:	e35c001d 	cmp	r12, #29
    68d4:	8affffb3 	bhi	67a8 <_fflush_r+0x98>
    68d8:	e59f3058 	ldr	r3, [pc, #88]	; 6938 <_fflush_r+0x228>
    68dc:	e1b03c13 	lsls	r3, r3, r12
    68e0:	5affffb0 	bpl	67a8 <_fflush_r+0x98>
    68e4:	e1d430bc 	ldrh	r3, [r4, #12]
    68e8:	e5942010 	ldr	r2, [r4, #16]
    68ec:	e3c31b02 	bic	r1, r3, #2048	; 0x800
    68f0:	e3130a01 	tst	r3, #4096	; 0x1000
    68f4:	e3a03000 	mov	r3, #0
    68f8:	e1c410bc 	strh	r1, [r4, #12]
    68fc:	e884000c 	stm	r4, {r2, r3}
    6900:	0affffd8 	beq	6868 <_fflush_r+0x158>
    6904:	e35c0000 	cmp	r12, #0
    6908:	1affffd6 	bne	6868 <_fflush_r+0x158>
    690c:	e5840050 	str	r0, [r4, #80]	; 0x50
    6910:	eaffffd4 	b	6868 <_fflush_r+0x158>
    6914:	e5973000 	ldr	r3, [r7]
    6918:	e3530000 	cmp	r3, #0
    691c:	0affffe7 	beq	68c0 <_fflush_r+0x1b0>
    6920:	e353001d 	cmp	r3, #29
    6924:	13530016 	cmpne	r3, #22
    6928:	05875000 	streq	r5, [r7]
    692c:	01a00006 	moveq	r0, r6
    6930:	0affffa5 	beq	67cc <_fflush_r+0xbc>
    6934:	eaffff9b 	b	67a8 <_fflush_r+0x98>
    6938:	80000204 	.word	0x80000204

0000693c <fflush>:
    693c:	e2501000 	subs	r1, r0, #0
    6940:	e92d4008 	push	{r3, lr}
    6944:	0a000003 	beq	6958 <fflush+0x1c>
    6948:	e59f3020 	ldr	r3, [pc, #32]	; 6970 <fflush+0x34>
    694c:	e5930000 	ldr	r0, [r3]
    6950:	e8bd4008 	pop	{r3, lr}
    6954:	eaffff6d 	b	6710 <_fflush_r>
    6958:	e59f3014 	ldr	r3, [pc, #20]	; 6974 <fflush+0x38>
    695c:	e59f1014 	ldr	r1, [pc, #20]	; 6978 <fflush+0x3c>
    6960:	e5930000 	ldr	r0, [r3]
    6964:	eb000382 	bl	7774 <_fwalk_reent>
    6968:	e8bd4008 	pop	{r3, lr}
    696c:	e12fff1e 	bx	lr
    6970:	00013c00 	.word	0x00013c00
    6974:	00013804 	.word	0x00013804
    6978:	00006710 	.word	0x00006710

0000697c <__fp_lock>:
    697c:	e3a00000 	mov	r0, #0
    6980:	e12fff1e 	bx	lr

00006984 <__fp_unlock>:
    6984:	e3a00000 	mov	r0, #0
    6988:	e12fff1e 	bx	lr

0000698c <_cleanup_r>:
    698c:	e92d4008 	push	{r3, lr}
    6990:	e59f1008 	ldr	r1, [pc, #8]	; 69a0 <_cleanup_r+0x14>
    6994:	eb000354 	bl	76ec <_fwalk>
    6998:	e8bd4008 	pop	{r3, lr}
    699c:	e12fff1e 	bx	lr
    69a0:	0000f974 	.word	0x0000f974

000069a4 <std.isra.0>:
    69a4:	e3a03000 	mov	r3, #0
    69a8:	e92d4010 	push	{r4, lr}
    69ac:	e1a04000 	mov	r4, r0
    69b0:	e1c010bc 	strh	r1, [r0, #12]
    69b4:	e1c020be 	strh	r2, [r0, #14]
    69b8:	e5803000 	str	r3, [r0]
    69bc:	e5803004 	str	r3, [r0, #4]
    69c0:	e5803008 	str	r3, [r0, #8]
    69c4:	e5803064 	str	r3, [r0, #100]	; 0x64
    69c8:	e5803010 	str	r3, [r0, #16]
    69cc:	e5803014 	str	r3, [r0, #20]
    69d0:	e5803018 	str	r3, [r0, #24]
    69d4:	e1a01003 	mov	r1, r3
    69d8:	e280005c 	add	r0, r0, #92	; 0x5c
    69dc:	e3a02008 	mov	r2, #8
    69e0:	eb00076f 	bl	87a4 <memset>
    69e4:	e59f3024 	ldr	r3, [pc, #36]	; 6a10 <std.isra.0+0x6c>
    69e8:	e5843020 	str	r3, [r4, #32]
    69ec:	e59f3020 	ldr	r3, [pc, #32]	; 6a14 <std.isra.0+0x70>
    69f0:	e5843024 	str	r3, [r4, #36]	; 0x24
    69f4:	e59f301c 	ldr	r3, [pc, #28]	; 6a18 <std.isra.0+0x74>
    69f8:	e5843028 	str	r3, [r4, #40]	; 0x28
    69fc:	e59f3018 	ldr	r3, [pc, #24]	; 6a1c <std.isra.0+0x78>
    6a00:	e584401c 	str	r4, [r4, #28]
    6a04:	e584302c 	str	r3, [r4, #44]	; 0x2c
    6a08:	e8bd4010 	pop	{r4, lr}
    6a0c:	e12fff1e 	bx	lr
    6a10:	00009fa0 	.word	0x00009fa0
    6a14:	00009fdc 	.word	0x00009fdc
    6a18:	0000a034 	.word	0x0000a034
    6a1c:	0000a068 	.word	0x0000a068

00006a20 <__sfmoreglue>:
    6a20:	e92d4070 	push	{r4, r5, r6, lr}
    6a24:	e0816081 	add	r6, r1, r1, lsl #1
    6a28:	e0816106 	add	r6, r1, r6, lsl #2
    6a2c:	e1a06186 	lsl	r6, r6, #3
    6a30:	e1a05001 	mov	r5, r1
    6a34:	e286100c 	add	r1, r6, #12
    6a38:	eb000404 	bl	7a50 <_malloc_r>
    6a3c:	e2504000 	subs	r4, r0, #0
    6a40:	0a000005 	beq	6a5c <__sfmoreglue+0x3c>
    6a44:	e284000c 	add	r0, r4, #12
    6a48:	e3a01000 	mov	r1, #0
    6a4c:	e8840022 	stm	r4, {r1, r5}
    6a50:	e5840008 	str	r0, [r4, #8]
    6a54:	e1a02006 	mov	r2, r6
    6a58:	eb000751 	bl	87a4 <memset>
    6a5c:	e1a00004 	mov	r0, r4
    6a60:	e8bd4070 	pop	{r4, r5, r6, lr}
    6a64:	e12fff1e 	bx	lr

00006a68 <_cleanup>:
    6a68:	e59f3004 	ldr	r3, [pc, #4]	; 6a74 <_cleanup+0xc>
    6a6c:	e5930000 	ldr	r0, [r3]
    6a70:	eaffffc5 	b	698c <_cleanup_r>
    6a74:	00013804 	.word	0x00013804

00006a78 <__sinit>:
    6a78:	e92d4038 	push	{r3, r4, r5, lr}
    6a7c:	e5903038 	ldr	r3, [r0, #56]	; 0x38
    6a80:	e3530000 	cmp	r3, #0
    6a84:	e1a04000 	mov	r4, r0
    6a88:	0a000001 	beq	6a94 <__sinit+0x1c>
    6a8c:	e8bd4038 	pop	{r3, r4, r5, lr}
    6a90:	e12fff1e 	bx	lr
    6a94:	e59fe050 	ldr	lr, [pc, #80]	; 6aec <__sinit+0x74>
    6a98:	e280cfbb 	add	r12, r0, #748	; 0x2ec
    6a9c:	e3a05001 	mov	r5, #1
    6aa0:	e1a02003 	mov	r2, r3
    6aa4:	e58432e0 	str	r3, [r4, #736]	; 0x2e0
    6aa8:	e3a03003 	mov	r3, #3
    6aac:	e584e03c 	str	lr, [r4, #60]	; 0x3c
    6ab0:	e58432e4 	str	r3, [r4, #740]	; 0x2e4
    6ab4:	e584c2e8 	str	r12, [r4, #744]	; 0x2e8
    6ab8:	e5900004 	ldr	r0, [r0, #4]
    6abc:	e3a01004 	mov	r1, #4
    6ac0:	e5845038 	str	r5, [r4, #56]	; 0x38
    6ac4:	ebffffb6 	bl	69a4 <std.isra.0>
    6ac8:	e5940008 	ldr	r0, [r4, #8]
    6acc:	e1a02005 	mov	r2, r5
    6ad0:	e3a01009 	mov	r1, #9
    6ad4:	ebffffb2 	bl	69a4 <std.isra.0>
    6ad8:	e594000c 	ldr	r0, [r4, #12]
    6adc:	e3a01012 	mov	r1, #18
    6ae0:	e3a02002 	mov	r2, #2
    6ae4:	e8bd4038 	pop	{r3, r4, r5, lr}
    6ae8:	eaffffad 	b	69a4 <std.isra.0>
    6aec:	0000698c 	.word	0x0000698c

00006af0 <__sfp>:
    6af0:	e59f30ec 	ldr	r3, [pc, #236]	; 6be4 <__sfp+0xf4>
    6af4:	e92d4070 	push	{r4, r5, r6, lr}
    6af8:	e5935000 	ldr	r5, [r3]
    6afc:	e5953038 	ldr	r3, [r5, #56]	; 0x38
    6b00:	e3530000 	cmp	r3, #0
    6b04:	e1a06000 	mov	r6, r0
    6b08:	0a000028 	beq	6bb0 <__sfp+0xc0>
    6b0c:	e2855e2e 	add	r5, r5, #736	; 0x2e0
    6b10:	e5953004 	ldr	r3, [r5, #4]
    6b14:	e2533001 	subs	r3, r3, #1
    6b18:	e5954008 	ldr	r4, [r5, #8]
    6b1c:	5a000004 	bpl	6b34 <__sfp+0x44>
    6b20:	ea00001d 	b	6b9c <__sfp+0xac>
    6b24:	e2433001 	sub	r3, r3, #1
    6b28:	e3730001 	cmn	r3, #1
    6b2c:	e2844068 	add	r4, r4, #104	; 0x68
    6b30:	0a000019 	beq	6b9c <__sfp+0xac>
    6b34:	e1d420fc 	ldrsh	r2, [r4, #12]
    6b38:	e3520000 	cmp	r2, #0
    6b3c:	1afffff8 	bne	6b24 <__sfp+0x34>
    6b40:	e3e03000 	mvn	r3, #0
    6b44:	e3a05000 	mov	r5, #0
    6b48:	e1c430be 	strh	r3, [r4, #14]
    6b4c:	e3a03001 	mov	r3, #1
    6b50:	e1c430bc 	strh	r3, [r4, #12]
    6b54:	e5845064 	str	r5, [r4, #100]	; 0x64
    6b58:	e5845000 	str	r5, [r4]
    6b5c:	e5845008 	str	r5, [r4, #8]
    6b60:	e5845004 	str	r5, [r4, #4]
    6b64:	e5845010 	str	r5, [r4, #16]
    6b68:	e5845014 	str	r5, [r4, #20]
    6b6c:	e5845018 	str	r5, [r4, #24]
    6b70:	e284005c 	add	r0, r4, #92	; 0x5c
    6b74:	e1a01005 	mov	r1, r5
    6b78:	e3a02008 	mov	r2, #8
    6b7c:	eb000708 	bl	87a4 <memset>
    6b80:	e5845030 	str	r5, [r4, #48]	; 0x30
    6b84:	e5845034 	str	r5, [r4, #52]	; 0x34
    6b88:	e5845044 	str	r5, [r4, #68]	; 0x44
    6b8c:	e5845048 	str	r5, [r4, #72]	; 0x48
    6b90:	e1a00004 	mov	r0, r4
    6b94:	e8bd4070 	pop	{r4, r5, r6, lr}
    6b98:	e12fff1e 	bx	lr
    6b9c:	e5950000 	ldr	r0, [r5]
    6ba0:	e3500000 	cmp	r0, #0
    6ba4:	0a000004 	beq	6bbc <__sfp+0xcc>
    6ba8:	e1a05000 	mov	r5, r0
    6bac:	eaffffd7 	b	6b10 <__sfp+0x20>
    6bb0:	e1a00005 	mov	r0, r5
    6bb4:	ebffffaf 	bl	6a78 <__sinit>
    6bb8:	eaffffd3 	b	6b0c <__sfp+0x1c>
    6bbc:	e1a00006 	mov	r0, r6
    6bc0:	e3a01004 	mov	r1, #4
    6bc4:	ebffff95 	bl	6a20 <__sfmoreglue>
    6bc8:	e3500000 	cmp	r0, #0
    6bcc:	e5850000 	str	r0, [r5]
    6bd0:	1afffff4 	bne	6ba8 <__sfp+0xb8>
    6bd4:	e3a0300c 	mov	r3, #12
    6bd8:	e5863000 	str	r3, [r6]
    6bdc:	e1a04000 	mov	r4, r0
    6be0:	eaffffea 	b	6b90 <__sfp+0xa0>
    6be4:	00013804 	.word	0x00013804

00006be8 <__sfp_lock_acquire>:
    6be8:	e12fff1e 	bx	lr

00006bec <__sfp_lock_release>:
    6bec:	e12fff1e 	bx	lr

00006bf0 <__sinit_lock_acquire>:
    6bf0:	e12fff1e 	bx	lr

00006bf4 <__sinit_lock_release>:
    6bf4:	e12fff1e 	bx	lr

00006bf8 <__fp_lock_all>:
    6bf8:	e92d4008 	push	{r3, lr}
    6bfc:	e59f3010 	ldr	r3, [pc, #16]	; 6c14 <__fp_lock_all+0x1c>
    6c00:	e59f1010 	ldr	r1, [pc, #16]	; 6c18 <__fp_lock_all+0x20>
    6c04:	e5930000 	ldr	r0, [r3]
    6c08:	eb0002b7 	bl	76ec <_fwalk>
    6c0c:	e8bd4008 	pop	{r3, lr}
    6c10:	e12fff1e 	bx	lr
    6c14:	00013c00 	.word	0x00013c00
    6c18:	0000697c 	.word	0x0000697c

00006c1c <__fp_unlock_all>:
    6c1c:	e92d4008 	push	{r3, lr}
    6c20:	e59f3010 	ldr	r3, [pc, #16]	; 6c38 <__fp_unlock_all+0x1c>
    6c24:	e59f1010 	ldr	r1, [pc, #16]	; 6c3c <__fp_unlock_all+0x20>
    6c28:	e5930000 	ldr	r0, [r3]
    6c2c:	eb0002ae 	bl	76ec <_fwalk>
    6c30:	e8bd4008 	pop	{r3, lr}
    6c34:	e12fff1e 	bx	lr
    6c38:	00013c00 	.word	0x00013c00
    6c3c:	00006984 	.word	0x00006984

00006c40 <__libc_fini_array>:
    6c40:	e92d4038 	push	{r3, r4, r5, lr}
    6c44:	e59f5030 	ldr	r5, [pc, #48]	; 6c7c <__libc_fini_array+0x3c>
    6c48:	e59f4030 	ldr	r4, [pc, #48]	; 6c80 <__libc_fini_array+0x40>
    6c4c:	e0654004 	rsb	r4, r5, r4
    6c50:	e1b04144 	asrs	r4, r4, #2
    6c54:	10855104 	addne	r5, r5, r4, lsl #2
    6c58:	0a000004 	beq	6c70 <__libc_fini_array+0x30>
    6c5c:	e5353004 	ldr	r3, [r5, #-4]!
    6c60:	e1a0e00f 	mov	lr, pc
    6c64:	e12fff13 	bx	r3
    6c68:	e2544001 	subs	r4, r4, #1
    6c6c:	1afffffa 	bne	6c5c <__libc_fini_array+0x1c>
    6c70:	eb0033d3 	bl	13bc4 <__libc_fini>
    6c74:	e8bd4038 	pop	{r3, r4, r5, lr}
    6c78:	e12fff1e 	bx	lr
    6c7c:	00013bdc 	.word	0x00013bdc
    6c80:	00013be0 	.word	0x00013be0

00006c84 <_fread_r>:
    6c84:	e92d4ff0 	push	{r4, r5, r6, r7, r8, r9, r10, r11, lr}
    6c88:	e0170392 	muls	r7, r2, r3
    6c8c:	e24dd00c 	sub	sp, sp, #12
    6c90:	e1a05003 	mov	r5, r3
    6c94:	e1a06002 	mov	r6, r2
    6c98:	e1a04000 	mov	r4, r0
    6c9c:	e1a09001 	mov	r9, r1
    6ca0:	e59db030 	ldr	r11, [sp, #48]	; 0x30
    6ca4:	01a05007 	moveq	r5, r7
    6ca8:	0a00004f 	beq	6dec <_fread_r+0x168>
    6cac:	e3500000 	cmp	r0, #0
    6cb0:	0a000002 	beq	6cc0 <_fread_r+0x3c>
    6cb4:	e5902038 	ldr	r2, [r0, #56]	; 0x38
    6cb8:	e3520000 	cmp	r2, #0
    6cbc:	0a000060 	beq	6e44 <_fread_r+0x1c0>
    6cc0:	ebffffc8 	bl	6be8 <__sfp_lock_acquire>
    6cc4:	e1db10bc 	ldrh	r1, [r11, #12]
    6cc8:	e3110a02 	tst	r1, #8192	; 0x2000
    6ccc:	059b2064 	ldreq	r2, [r11, #100]	; 0x64
    6cd0:	e59b8004 	ldr	r8, [r11, #4]
    6cd4:	03c22a02 	biceq	r2, r2, #8192	; 0x2000
    6cd8:	03811a02 	orreq	r1, r1, #8192	; 0x2000
    6cdc:	058b2064 	streq	r2, [r11, #100]	; 0x64
    6ce0:	01cb10bc 	strheq	r1, [r11, #12]
    6ce4:	e3580000 	cmp	r8, #0
    6ce8:	b3a02000 	movlt	r2, #0
    6cec:	b1a0a002 	movlt	r10, r2
    6cf0:	a1a0a008 	movge	r10, r8
    6cf4:	b1a0800a 	movlt	r8, r10
    6cf8:	b58b2004 	strlt	r2, [r11, #4]
    6cfc:	e3110002 	tst	r1, #2
    6d00:	01a0a007 	moveq	r10, r7
    6d04:	0a00003d 	beq	6e00 <_fread_r+0x17c>
    6d08:	e15a0007 	cmp	r10, r7
    6d0c:	21a0a007 	movcs	r10, r7
    6d10:	e1a0200a 	mov	r2, r10
    6d14:	e1a00009 	mov	r0, r9
    6d18:	e59b1000 	ldr	r1, [r11]
    6d1c:	eb0005d0 	bl	8464 <memcpy>
    6d20:	e59b8000 	ldr	r8, [r11]
    6d24:	e59b2004 	ldr	r2, [r11, #4]
    6d28:	e59b1030 	ldr	r1, [r11, #48]	; 0x30
    6d2c:	e088800a 	add	r8, r8, r10
    6d30:	e06a2002 	rsb	r2, r10, r2
    6d34:	e3510000 	cmp	r1, #0
    6d38:	e089900a 	add	r9, r9, r10
    6d3c:	e58b8000 	str	r8, [r11]
    6d40:	e58b2004 	str	r2, [r11, #4]
    6d44:	e06aa007 	rsb	r10, r10, r7
    6d48:	0a000048 	beq	6e70 <_fread_r+0x1ec>
    6d4c:	e35a0000 	cmp	r10, #0
    6d50:	0a000044 	beq	6e68 <_fread_r+0x1e4>
    6d54:	e28b0040 	add	r0, r11, #64	; 0x40
    6d58:	e1510000 	cmp	r1, r0
    6d5c:	0a000002 	beq	6d6c <_fread_r+0xe8>
    6d60:	e1a00004 	mov	r0, r4
    6d64:	eb000094 	bl	6fbc <_free_r>
    6d68:	e59b8000 	ldr	r8, [r11]
    6d6c:	e3a01000 	mov	r1, #0
    6d70:	e58b1030 	str	r1, [r11, #48]	; 0x30
    6d74:	e59b3010 	ldr	r3, [r11, #16]
    6d78:	e58d3000 	str	r3, [sp]
    6d7c:	e59b3014 	ldr	r3, [r11, #20]
    6d80:	e58d3004 	str	r3, [sp, #4]
    6d84:	ea000001 	b	6d90 <_fread_r+0x10c>
    6d88:	e35a0000 	cmp	r10, #0
    6d8c:	0a000035 	beq	6e68 <_fread_r+0x1e4>
    6d90:	e58b9010 	str	r9, [r11, #16]
    6d94:	e58ba014 	str	r10, [r11, #20]
    6d98:	e58b9000 	str	r9, [r11]
    6d9c:	e1a0100b 	mov	r1, r11
    6da0:	e1a00004 	mov	r0, r4
    6da4:	eb000b7c 	bl	9b9c <__srefill_r>
    6da8:	e59d3000 	ldr	r3, [sp]
    6dac:	e58b3010 	str	r3, [r11, #16]
    6db0:	e59d3004 	ldr	r3, [sp, #4]
    6db4:	e59b1004 	ldr	r1, [r11, #4]
    6db8:	e58b3014 	str	r3, [r11, #20]
    6dbc:	e3500000 	cmp	r0, #0
    6dc0:	e3a03000 	mov	r3, #0
    6dc4:	e58b8000 	str	r8, [r11]
    6dc8:	e061a00a 	rsb	r10, r1, r10
    6dcc:	e58b3004 	str	r3, [r11, #4]
    6dd0:	e0899001 	add	r9, r9, r1
    6dd4:	0affffeb 	beq	6d88 <_fread_r+0x104>
    6dd8:	ebffff83 	bl	6bec <__sfp_lock_release>
    6ddc:	e06a0007 	rsb	r0, r10, r7
    6de0:	e1a01006 	mov	r1, r6
    6de4:	eb002cac 	bl	1209c <__aeabi_uidiv>
    6de8:	e1a05000 	mov	r5, r0
    6dec:	e1a00005 	mov	r0, r5
    6df0:	e28dd00c 	add	sp, sp, #12
    6df4:	e8bd4ff0 	pop	{r4, r5, r6, r7, r8, r9, r10, r11, lr}
    6df8:	e12fff1e 	bx	lr
    6dfc:	e59b8004 	ldr	r8, [r11, #4]
    6e00:	e15a0008 	cmp	r10, r8
    6e04:	e1a02008 	mov	r2, r8
    6e08:	e1a00009 	mov	r0, r9
    6e0c:	e59b1000 	ldr	r1, [r11]
    6e10:	9a00000d 	bls	6e4c <_fread_r+0x1c8>
    6e14:	eb000592 	bl	8464 <memcpy>
    6e18:	e59b2000 	ldr	r2, [r11]
    6e1c:	e0822008 	add	r2, r2, r8
    6e20:	e58b2000 	str	r2, [r11]
    6e24:	e1a00004 	mov	r0, r4
    6e28:	e1a0100b 	mov	r1, r11
    6e2c:	eb000b5a 	bl	9b9c <__srefill_r>
    6e30:	e3500000 	cmp	r0, #0
    6e34:	e0899008 	add	r9, r9, r8
    6e38:	e068a00a 	rsb	r10, r8, r10
    6e3c:	0affffee 	beq	6dfc <_fread_r+0x178>
    6e40:	eaffffe4 	b	6dd8 <_fread_r+0x154>
    6e44:	ebffff0b 	bl	6a78 <__sinit>
    6e48:	eaffff9c 	b	6cc0 <_fread_r+0x3c>
    6e4c:	e1a0200a 	mov	r2, r10
    6e50:	eb000583 	bl	8464 <memcpy>
    6e54:	e89b0006 	ldm	r11, {r1, r2}
    6e58:	e06a2002 	rsb	r2, r10, r2
    6e5c:	e081a00a 	add	r10, r1, r10
    6e60:	e58b2004 	str	r2, [r11, #4]
    6e64:	e58ba000 	str	r10, [r11]
    6e68:	ebffff5f 	bl	6bec <__sfp_lock_release>
    6e6c:	eaffffde 	b	6dec <_fread_r+0x168>
    6e70:	e35a0000 	cmp	r10, #0
    6e74:	1affffbe 	bne	6d74 <_fread_r+0xf0>
    6e78:	eafffffa 	b	6e68 <_fread_r+0x1e4>

00006e7c <fread>:
    6e7c:	e92d4030 	push	{r4, r5, lr}
    6e80:	e59fc034 	ldr	r12, [pc, #52]	; 6ebc <fread+0x40>
    6e84:	e59c5000 	ldr	r5, [r12]
    6e88:	e1a04000 	mov	r4, r0
    6e8c:	e1a0e001 	mov	lr, r1
    6e90:	e1a0c002 	mov	r12, r2
    6e94:	e24dd00c 	sub	sp, sp, #12
    6e98:	e58d3000 	str	r3, [sp]
    6e9c:	e1a00005 	mov	r0, r5
    6ea0:	e1a01004 	mov	r1, r4
    6ea4:	e1a0200e 	mov	r2, lr
    6ea8:	e1a0300c 	mov	r3, r12
    6eac:	ebffff74 	bl	6c84 <_fread_r>
    6eb0:	e28dd00c 	add	sp, sp, #12
    6eb4:	e8bd4030 	pop	{r4, r5, lr}
    6eb8:	e12fff1e 	bx	lr
    6ebc:	00013c00 	.word	0x00013c00

00006ec0 <_malloc_trim_r>:
    6ec0:	e92d40f8 	push	{r3, r4, r5, r6, r7, lr}
    6ec4:	e59f50e4 	ldr	r5, [pc, #228]	; 6fb0 <_malloc_trim_r+0xf0>
    6ec8:	e1a07001 	mov	r7, r1
    6ecc:	e1a04000 	mov	r4, r0
    6ed0:	eb000680 	bl	88d8 <__malloc_lock>
    6ed4:	e5953008 	ldr	r3, [r5, #8]
    6ed8:	e5936004 	ldr	r6, [r3, #4]
    6edc:	e3c66003 	bic	r6, r6, #3
    6ee0:	e2863efe 	add	r3, r6, #4064	; 0xfe0
    6ee4:	e283300f 	add	r3, r3, #15
    6ee8:	e0677003 	rsb	r7, r7, r3
    6eec:	e1a07627 	lsr	r7, r7, #12
    6ef0:	e2477001 	sub	r7, r7, #1
    6ef4:	e1a07607 	lsl	r7, r7, #12
    6ef8:	e3570a01 	cmp	r7, #4096	; 0x1000
    6efc:	ba000006 	blt	6f1c <_malloc_trim_r+0x5c>
    6f00:	e1a00004 	mov	r0, r4
    6f04:	e3a01000 	mov	r1, #0
    6f08:	eb000ba7 	bl	9dac <_sbrk_r>
    6f0c:	e5953008 	ldr	r3, [r5, #8]
    6f10:	e0833006 	add	r3, r3, r6
    6f14:	e1500003 	cmp	r0, r3
    6f18:	0a000004 	beq	6f30 <_malloc_trim_r+0x70>
    6f1c:	e1a00004 	mov	r0, r4
    6f20:	eb00066d 	bl	88dc <__malloc_unlock>
    6f24:	e3a00000 	mov	r0, #0
    6f28:	e8bd40f8 	pop	{r3, r4, r5, r6, r7, lr}
    6f2c:	e12fff1e 	bx	lr
    6f30:	e1a00004 	mov	r0, r4
    6f34:	e2671000 	rsb	r1, r7, #0
    6f38:	eb000b9b 	bl	9dac <_sbrk_r>
    6f3c:	e3700001 	cmn	r0, #1
    6f40:	0a00000b 	beq	6f74 <_malloc_trim_r+0xb4>
    6f44:	e59f3068 	ldr	r3, [pc, #104]	; 6fb4 <_malloc_trim_r+0xf4>
    6f48:	e5952008 	ldr	r2, [r5, #8]
    6f4c:	e5931000 	ldr	r1, [r3]
    6f50:	e0676006 	rsb	r6, r7, r6
    6f54:	e3866001 	orr	r6, r6, #1
    6f58:	e0677001 	rsb	r7, r7, r1
    6f5c:	e1a00004 	mov	r0, r4
    6f60:	e5826004 	str	r6, [r2, #4]
    6f64:	e5837000 	str	r7, [r3]
    6f68:	eb00065b 	bl	88dc <__malloc_unlock>
    6f6c:	e3a00001 	mov	r0, #1
    6f70:	eaffffec 	b	6f28 <_malloc_trim_r+0x68>
    6f74:	e1a00004 	mov	r0, r4
    6f78:	e3a01000 	mov	r1, #0
    6f7c:	eb000b8a 	bl	9dac <_sbrk_r>
    6f80:	e5953008 	ldr	r3, [r5, #8]
    6f84:	e0632000 	rsb	r2, r3, r0
    6f88:	e352000f 	cmp	r2, #15
    6f8c:	daffffe2 	ble	6f1c <_malloc_trim_r+0x5c>
    6f90:	e59f1020 	ldr	r1, [pc, #32]	; 6fb8 <_malloc_trim_r+0xf8>
    6f94:	e5911000 	ldr	r1, [r1]
    6f98:	e0610000 	rsb	r0, r1, r0
    6f9c:	e59f1010 	ldr	r1, [pc, #16]	; 6fb4 <_malloc_trim_r+0xf4>
    6fa0:	e3822001 	orr	r2, r2, #1
    6fa4:	e5810000 	str	r0, [r1]
    6fa8:	e5832004 	str	r2, [r3, #4]
    6fac:	eaffffda 	b	6f1c <_malloc_trim_r+0x5c>
    6fb0:	000140b0 	.word	0x000140b0
    6fb4:	00014524 	.word	0x00014524
    6fb8:	000144b8 	.word	0x000144b8

00006fbc <_free_r>:
    6fbc:	e92d40f8 	push	{r3, r4, r5, r6, r7, lr}
    6fc0:	e2514000 	subs	r4, r1, #0
    6fc4:	e1a06000 	mov	r6, r0
    6fc8:	0a000046 	beq	70e8 <_free_r+0x12c>
    6fcc:	eb000641 	bl	88d8 <__malloc_lock>
    6fd0:	e514e004 	ldr	lr, [r4, #-4]
    6fd4:	e59f1238 	ldr	r1, [pc, #568]	; 7214 <_free_r+0x258>
    6fd8:	e244c008 	sub	r12, r4, #8
    6fdc:	e3ce3001 	bic	r3, lr, #1
    6fe0:	e08c2003 	add	r2, r12, r3
    6fe4:	e5910008 	ldr	r0, [r1, #8]
    6fe8:	e5925004 	ldr	r5, [r2, #4]
    6fec:	e1500002 	cmp	r0, r2
    6ff0:	e3c55003 	bic	r5, r5, #3
    6ff4:	0a00004a 	beq	7124 <_free_r+0x168>
    6ff8:	e21ee001 	ands	lr, lr, #1
    6ffc:	e5825004 	str	r5, [r2, #4]
    7000:	13a0e000 	movne	lr, #0
    7004:	1a000009 	bne	7030 <_free_r+0x74>
    7008:	e5144008 	ldr	r4, [r4, #-8]
    700c:	e064c00c 	rsb	r12, r4, r12
    7010:	e59c0008 	ldr	r0, [r12, #8]
    7014:	e2817008 	add	r7, r1, #8
    7018:	e1500007 	cmp	r0, r7
    701c:	e0833004 	add	r3, r3, r4
    7020:	159c400c 	ldrne	r4, [r12, #12]
    7024:	1580400c 	strne	r4, [r0, #12]
    7028:	15840008 	strne	r0, [r4, #8]
    702c:	03a0e001 	moveq	lr, #1
    7030:	e0820005 	add	r0, r2, r5
    7034:	e5900004 	ldr	r0, [r0, #4]
    7038:	e3100001 	tst	r0, #1
    703c:	1a000009 	bne	7068 <_free_r+0xac>
    7040:	e35e0000 	cmp	lr, #0
    7044:	e5920008 	ldr	r0, [r2, #8]
    7048:	e0833005 	add	r3, r3, r5
    704c:	1a000002 	bne	705c <_free_r+0xa0>
    7050:	e59f41c0 	ldr	r4, [pc, #448]	; 7218 <_free_r+0x25c>
    7054:	e1500004 	cmp	r0, r4
    7058:	0a000047 	beq	717c <_free_r+0x1c0>
    705c:	e592200c 	ldr	r2, [r2, #12]
    7060:	e580200c 	str	r2, [r0, #12]
    7064:	e5820008 	str	r0, [r2, #8]
    7068:	e3832001 	orr	r2, r3, #1
    706c:	e35e0000 	cmp	lr, #0
    7070:	e58c2004 	str	r2, [r12, #4]
    7074:	e78c3003 	str	r3, [r12, r3]
    7078:	1a000018 	bne	70e0 <_free_r+0x124>
    707c:	e3530c02 	cmp	r3, #512	; 0x200
    7080:	3a00001a 	bcc	70f0 <_free_r+0x134>
    7084:	e1a024a3 	lsr	r2, r3, #9
    7088:	e3520004 	cmp	r2, #4
    708c:	8a000042 	bhi	719c <_free_r+0x1e0>
    7090:	e1a0e323 	lsr	lr, r3, #6
    7094:	e28ee038 	add	lr, lr, #56	; 0x38
    7098:	e1a0008e 	lsl	r0, lr, #1
    709c:	e0810100 	add	r0, r1, r0, lsl #2
    70a0:	e5902008 	ldr	r2, [r0, #8]
    70a4:	e1520000 	cmp	r2, r0
    70a8:	e59f1164 	ldr	r1, [pc, #356]	; 7214 <_free_r+0x258>
    70ac:	0a000044 	beq	71c4 <_free_r+0x208>
    70b0:	e5921004 	ldr	r1, [r2, #4]
    70b4:	e3c11003 	bic	r1, r1, #3
    70b8:	e1530001 	cmp	r3, r1
    70bc:	2a000002 	bcs	70cc <_free_r+0x110>
    70c0:	e5922008 	ldr	r2, [r2, #8]
    70c4:	e1500002 	cmp	r0, r2
    70c8:	1afffff8 	bne	70b0 <_free_r+0xf4>
    70cc:	e592300c 	ldr	r3, [r2, #12]
    70d0:	e58c300c 	str	r3, [r12, #12]
    70d4:	e58c2008 	str	r2, [r12, #8]
    70d8:	e582c00c 	str	r12, [r2, #12]
    70dc:	e583c008 	str	r12, [r3, #8]
    70e0:	e1a00006 	mov	r0, r6
    70e4:	eb0005fc 	bl	88dc <__malloc_unlock>
    70e8:	e8bd40f8 	pop	{r3, r4, r5, r6, r7, lr}
    70ec:	e12fff1e 	bx	lr
    70f0:	e5912004 	ldr	r2, [r1, #4]
    70f4:	e1a031a3 	lsr	r3, r3, #3
    70f8:	e1a00143 	asr	r0, r3, #2
    70fc:	e3a0e001 	mov	lr, #1
    7100:	e182001e 	orr	r0, r2, lr, lsl r0
    7104:	e0813183 	add	r3, r1, r3, lsl #3
    7108:	e5932008 	ldr	r2, [r3, #8]
    710c:	e58c300c 	str	r3, [r12, #12]
    7110:	e58c2008 	str	r2, [r12, #8]
    7114:	e5810004 	str	r0, [r1, #4]
    7118:	e583c008 	str	r12, [r3, #8]
    711c:	e582c00c 	str	r12, [r2, #12]
    7120:	eaffffee 	b	70e0 <_free_r+0x124>
    7124:	e31e0001 	tst	lr, #1
    7128:	e0853003 	add	r3, r5, r3
    712c:	1a000006 	bne	714c <_free_r+0x190>
    7130:	e5142008 	ldr	r2, [r4, #-8]
    7134:	e062c00c 	rsb	r12, r2, r12
    7138:	e59c000c 	ldr	r0, [r12, #12]
    713c:	e59ce008 	ldr	lr, [r12, #8]
    7140:	e58e000c 	str	r0, [lr, #12]
    7144:	e580e008 	str	lr, [r0, #8]
    7148:	e0833002 	add	r3, r3, r2
    714c:	e59f20c8 	ldr	r2, [pc, #200]	; 721c <_free_r+0x260>
    7150:	e5920000 	ldr	r0, [r2]
    7154:	e3832001 	orr	r2, r3, #1
    7158:	e1530000 	cmp	r3, r0
    715c:	e58c2004 	str	r2, [r12, #4]
    7160:	e581c008 	str	r12, [r1, #8]
    7164:	3affffdd 	bcc	70e0 <_free_r+0x124>
    7168:	e59f30b0 	ldr	r3, [pc, #176]	; 7220 <_free_r+0x264>
    716c:	e1a00006 	mov	r0, r6
    7170:	e5931000 	ldr	r1, [r3]
    7174:	ebffff51 	bl	6ec0 <_malloc_trim_r>
    7178:	eaffffd8 	b	70e0 <_free_r+0x124>
    717c:	e3832001 	orr	r2, r3, #1
    7180:	e581c014 	str	r12, [r1, #20]
    7184:	e581c010 	str	r12, [r1, #16]
    7188:	e58c000c 	str	r0, [r12, #12]
    718c:	e58c0008 	str	r0, [r12, #8]
    7190:	e58c2004 	str	r2, [r12, #4]
    7194:	e78c3003 	str	r3, [r12, r3]
    7198:	eaffffd0 	b	70e0 <_free_r+0x124>
    719c:	e3520014 	cmp	r2, #20
    71a0:	9282e05b 	addls	lr, r2, #91	; 0x5b
    71a4:	91a0008e 	lslls	r0, lr, #1
    71a8:	9affffbb 	bls	709c <_free_r+0xe0>
    71ac:	e3520054 	cmp	r2, #84	; 0x54
    71b0:	8a00000a 	bhi	71e0 <_free_r+0x224>
    71b4:	e1a0e623 	lsr	lr, r3, #12
    71b8:	e28ee06e 	add	lr, lr, #110	; 0x6e
    71bc:	e1a0008e 	lsl	r0, lr, #1
    71c0:	eaffffb5 	b	709c <_free_r+0xe0>
    71c4:	e5913004 	ldr	r3, [r1, #4]
    71c8:	e1a0e14e 	asr	lr, lr, #2
    71cc:	e3a00001 	mov	r0, #1
    71d0:	e1830e10 	orr	r0, r3, r0, lsl lr
    71d4:	e1a03002 	mov	r3, r2
    71d8:	e5810004 	str	r0, [r1, #4]
    71dc:	eaffffbb 	b	70d0 <_free_r+0x114>
    71e0:	e3520f55 	cmp	r2, #340	; 0x154
    71e4:	91a0e7a3 	lsrls	lr, r3, #15
    71e8:	928ee077 	addls	lr, lr, #119	; 0x77
    71ec:	91a0008e 	lslls	r0, lr, #1
    71f0:	9affffa9 	bls	709c <_free_r+0xe0>
    71f4:	e59f0028 	ldr	r0, [pc, #40]	; 7224 <_free_r+0x268>
    71f8:	e1520000 	cmp	r2, r0
    71fc:	91a0e923 	lsrls	lr, r3, #18
    7200:	928ee07c 	addls	lr, lr, #124	; 0x7c
    7204:	91a0008e 	lslls	r0, lr, #1
    7208:	83a000fc 	movhi	r0, #252	; 0xfc
    720c:	83a0e07e 	movhi	lr, #126	; 0x7e
    7210:	eaffffa1 	b	709c <_free_r+0xe0>
    7214:	000140b0 	.word	0x000140b0
    7218:	000140b8 	.word	0x000140b8
    721c:	000144bc 	.word	0x000144bc
    7220:	00014520 	.word	0x00014520
    7224:	00000554 	.word	0x00000554

00007228 <__sfvwrite_r>:
    7228:	e92d4ff0 	push	{r4, r5, r6, r7, r8, r9, r10, r11, lr}
    722c:	e5923008 	ldr	r3, [r2, #8]
    7230:	e3530000 	cmp	r3, #0
    7234:	e24dd00c 	sub	sp, sp, #12
    7238:	e1a07002 	mov	r7, r2
    723c:	e1a0a000 	mov	r10, r0
    7240:	e1a04001 	mov	r4, r1
    7244:	0a00001e 	beq	72c4 <__sfvwrite_r+0x9c>
    7248:	e1d130bc 	ldrh	r3, [r1, #12]
    724c:	e3130008 	tst	r3, #8
    7250:	0a00001f 	beq	72d4 <__sfvwrite_r+0xac>
    7254:	e5912010 	ldr	r2, [r1, #16]
    7258:	e3520000 	cmp	r2, #0
    725c:	0a00001c 	beq	72d4 <__sfvwrite_r+0xac>
    7260:	e2132002 	ands	r2, r3, #2
    7264:	e5975000 	ldr	r5, [r7]
    7268:	0a000029 	beq	7314 <__sfvwrite_r+0xec>
    726c:	e3a08000 	mov	r8, #0
    7270:	e1a06008 	mov	r6, r8
    7274:	e3560000 	cmp	r6, #0
    7278:	e1a02008 	mov	r2, r8
    727c:	e1a0000a 	mov	r0, r10
    7280:	0a00001f 	beq	7304 <__sfvwrite_r+0xdc>
    7284:	e3560b01 	cmp	r6, #1024	; 0x400
    7288:	31a03006 	movcc	r3, r6
    728c:	23a03b01 	movcs	r3, #1024	; 0x400
    7290:	e594101c 	ldr	r1, [r4, #28]
    7294:	e594c024 	ldr	r12, [r4, #36]	; 0x24
    7298:	e1a0e00f 	mov	lr, pc
    729c:	e12fff1c 	bx	r12
    72a0:	e3500000 	cmp	r0, #0
    72a4:	da000050 	ble	73ec <__sfvwrite_r+0x1c4>
    72a8:	e5973008 	ldr	r3, [r7, #8]
    72ac:	e0603003 	rsb	r3, r0, r3
    72b0:	e3530000 	cmp	r3, #0
    72b4:	e0888000 	add	r8, r8, r0
    72b8:	e0606006 	rsb	r6, r0, r6
    72bc:	e5873008 	str	r3, [r7, #8]
    72c0:	1affffeb 	bne	7274 <__sfvwrite_r+0x4c>
    72c4:	e3a00000 	mov	r0, #0
    72c8:	e28dd00c 	add	sp, sp, #12
    72cc:	e8bd4ff0 	pop	{r4, r5, r6, r7, r8, r9, r10, r11, lr}
    72d0:	e12fff1e 	bx	lr
    72d4:	e1a0000a 	mov	r0, r10
    72d8:	e1a01004 	mov	r1, r4
    72dc:	ebfff5ed 	bl	4a98 <__swsetup_r>
    72e0:	e3500000 	cmp	r0, #0
    72e4:	e1d430bc 	ldrh	r3, [r4, #12]
    72e8:	0affffdc 	beq	7260 <__sfvwrite_r+0x38>
    72ec:	e3833040 	orr	r3, r3, #64	; 0x40
    72f0:	e1c430bc 	strh	r3, [r4, #12]
    72f4:	e3a03009 	mov	r3, #9
    72f8:	e3e00000 	mvn	r0, #0
    72fc:	e58a3000 	str	r3, [r10]
    7300:	eafffff0 	b	72c8 <__sfvwrite_r+0xa0>
    7304:	e5958000 	ldr	r8, [r5]
    7308:	e5956004 	ldr	r6, [r5, #4]
    730c:	e2855008 	add	r5, r5, #8
    7310:	eaffffd7 	b	7274 <__sfvwrite_r+0x4c>
    7314:	e2139001 	ands	r9, r3, #1
    7318:	1a000038 	bne	7400 <__sfvwrite_r+0x1d8>
    731c:	e1a06009 	mov	r6, r9
    7320:	e3560000 	cmp	r6, #0
    7324:	0a000024 	beq	73bc <__sfvwrite_r+0x194>
    7328:	e3130c02 	tst	r3, #512	; 0x200
    732c:	e5948008 	ldr	r8, [r4, #8]
    7330:	e1a02003 	mov	r2, r3
    7334:	0a000062 	beq	74c4 <__sfvwrite_r+0x29c>
    7338:	e1560008 	cmp	r6, r8
    733c:	e1a0c008 	mov	r12, r8
    7340:	3a000089 	bcc	756c <__sfvwrite_r+0x344>
    7344:	e2022d12 	and	r2, r2, #1152	; 0x480
    7348:	e3520000 	cmp	r2, #0
    734c:	1a0000a2 	bne	75dc <__sfvwrite_r+0x3b4>
    7350:	e5940000 	ldr	r0, [r4]
    7354:	e1a0b008 	mov	r11, r8
    7358:	e1a03006 	mov	r3, r6
    735c:	e1a08006 	mov	r8, r6
    7360:	e1a0200c 	mov	r2, r12
    7364:	e1a01009 	mov	r1, r9
    7368:	e58d3004 	str	r3, [sp, #4]
    736c:	e58dc000 	str	r12, [sp]
    7370:	eb0004be 	bl	8670 <memmove>
    7374:	e59dc000 	ldr	r12, [sp]
    7378:	e5941008 	ldr	r1, [r4, #8]
    737c:	e5942000 	ldr	r2, [r4]
    7380:	e06bb001 	rsb	r11, r11, r1
    7384:	e082c00c 	add	r12, r2, r12
    7388:	e584b008 	str	r11, [r4, #8]
    738c:	e584c000 	str	r12, [r4]
    7390:	e59d3004 	ldr	r3, [sp, #4]
    7394:	e5972008 	ldr	r2, [r7, #8]
    7398:	e0688002 	rsb	r8, r8, r2
    739c:	e3580000 	cmp	r8, #0
    73a0:	e0899003 	add	r9, r9, r3
    73a4:	e0636006 	rsb	r6, r3, r6
    73a8:	e5878008 	str	r8, [r7, #8]
    73ac:	0affffc4 	beq	72c4 <__sfvwrite_r+0x9c>
    73b0:	e3560000 	cmp	r6, #0
    73b4:	e1d430bc 	ldrh	r3, [r4, #12]
    73b8:	1affffda 	bne	7328 <__sfvwrite_r+0x100>
    73bc:	e5959000 	ldr	r9, [r5]
    73c0:	e5956004 	ldr	r6, [r5, #4]
    73c4:	e2855008 	add	r5, r5, #8
    73c8:	eaffffd4 	b	7320 <__sfvwrite_r+0xf8>
    73cc:	eb00088b 	bl	9600 <_realloc_r>
    73d0:	e2503000 	subs	r3, r0, #0
    73d4:	1a00009d 	bne	7650 <__sfvwrite_r+0x428>
    73d8:	e1a0000a 	mov	r0, r10
    73dc:	e5941010 	ldr	r1, [r4, #16]
    73e0:	ebfffef5 	bl	6fbc <_free_r>
    73e4:	e3a0300c 	mov	r3, #12
    73e8:	e58a3000 	str	r3, [r10]
    73ec:	e1d430bc 	ldrh	r3, [r4, #12]
    73f0:	e3833040 	orr	r3, r3, #64	; 0x40
    73f4:	e1c430bc 	strh	r3, [r4, #12]
    73f8:	e3e00000 	mvn	r0, #0
    73fc:	eaffffb1 	b	72c8 <__sfvwrite_r+0xa0>
    7400:	e1a09002 	mov	r9, r2
    7404:	e1a0c002 	mov	r12, r2
    7408:	e1a0b002 	mov	r11, r2
    740c:	e1a08002 	mov	r8, r2
    7410:	e3580000 	cmp	r8, #0
    7414:	0a000025 	beq	74b0 <__sfvwrite_r+0x288>
    7418:	e35c0000 	cmp	r12, #0
    741c:	0a000064 	beq	75b4 <__sfvwrite_r+0x38c>
    7420:	e5940000 	ldr	r0, [r4]
    7424:	e5942010 	ldr	r2, [r4, #16]
    7428:	e1590008 	cmp	r9, r8
    742c:	31a03009 	movcc	r3, r9
    7430:	21a03008 	movcs	r3, r8
    7434:	e1500002 	cmp	r0, r2
    7438:	e5946008 	ldr	r6, [r4, #8]
    743c:	e594e014 	ldr	lr, [r4, #20]
    7440:	9a000002 	bls	7450 <__sfvwrite_r+0x228>
    7444:	e086600e 	add	r6, r6, lr
    7448:	e1530006 	cmp	r3, r6
    744c:	ca00008a 	bgt	767c <__sfvwrite_r+0x454>
    7450:	e153000e 	cmp	r3, lr
    7454:	ba00002d 	blt	7510 <__sfvwrite_r+0x2e8>
    7458:	e594101c 	ldr	r1, [r4, #28]
    745c:	e1a0000a 	mov	r0, r10
    7460:	e58dc000 	str	r12, [sp]
    7464:	e1a0200b 	mov	r2, r11
    7468:	e1a0300e 	mov	r3, lr
    746c:	e594c024 	ldr	r12, [r4, #36]	; 0x24
    7470:	e1a0e00f 	mov	lr, pc
    7474:	e12fff1c 	bx	r12
    7478:	e2506000 	subs	r6, r0, #0
    747c:	e59dc000 	ldr	r12, [sp]
    7480:	daffffd9 	ble	73ec <__sfvwrite_r+0x1c4>
    7484:	e0599006 	subs	r9, r9, r6
    7488:	0a000030 	beq	7550 <__sfvwrite_r+0x328>
    748c:	e5973008 	ldr	r3, [r7, #8]
    7490:	e0663003 	rsb	r3, r6, r3
    7494:	e3530000 	cmp	r3, #0
    7498:	e08bb006 	add	r11, r11, r6
    749c:	e0668008 	rsb	r8, r6, r8
    74a0:	e5873008 	str	r3, [r7, #8]
    74a4:	0affff86 	beq	72c4 <__sfvwrite_r+0x9c>
    74a8:	e3580000 	cmp	r8, #0
    74ac:	1affffd9 	bne	7418 <__sfvwrite_r+0x1f0>
    74b0:	e595b000 	ldr	r11, [r5]
    74b4:	e5958004 	ldr	r8, [r5, #4]
    74b8:	e3a0c000 	mov	r12, #0
    74bc:	e2855008 	add	r5, r5, #8
    74c0:	eaffffd2 	b	7410 <__sfvwrite_r+0x1e8>
    74c4:	e5940000 	ldr	r0, [r4]
    74c8:	e5943010 	ldr	r3, [r4, #16]
    74cc:	e1500003 	cmp	r0, r3
    74d0:	9a000001 	bls	74dc <__sfvwrite_r+0x2b4>
    74d4:	e1560008 	cmp	r6, r8
    74d8:	8a000075 	bhi	76b4 <__sfvwrite_r+0x48c>
    74dc:	e5943014 	ldr	r3, [r4, #20]
    74e0:	e1560003 	cmp	r6, r3
    74e4:	3a000026 	bcc	7584 <__sfvwrite_r+0x35c>
    74e8:	e1a0000a 	mov	r0, r10
    74ec:	e594101c 	ldr	r1, [r4, #28]
    74f0:	e1a02009 	mov	r2, r9
    74f4:	e594c024 	ldr	r12, [r4, #36]	; 0x24
    74f8:	e1a0e00f 	mov	lr, pc
    74fc:	e12fff1c 	bx	r12
    7500:	e2508000 	subs	r8, r0, #0
    7504:	daffffb8 	ble	73ec <__sfvwrite_r+0x1c4>
    7508:	e1a03008 	mov	r3, r8
    750c:	eaffffa0 	b	7394 <__sfvwrite_r+0x16c>
    7510:	e1a02003 	mov	r2, r3
    7514:	e1a0100b 	mov	r1, r11
    7518:	e58d3004 	str	r3, [sp, #4]
    751c:	e58dc000 	str	r12, [sp]
    7520:	eb000452 	bl	8670 <memmove>
    7524:	e59d3004 	ldr	r3, [sp, #4]
    7528:	e5941008 	ldr	r1, [r4, #8]
    752c:	e5942000 	ldr	r2, [r4]
    7530:	e1a06003 	mov	r6, r3
    7534:	e0631001 	rsb	r1, r3, r1
    7538:	e0822003 	add	r2, r2, r3
    753c:	e0599006 	subs	r9, r9, r6
    7540:	e5841008 	str	r1, [r4, #8]
    7544:	e5842000 	str	r2, [r4]
    7548:	e59dc000 	ldr	r12, [sp]
    754c:	1affffce 	bne	748c <__sfvwrite_r+0x264>
    7550:	e1a0000a 	mov	r0, r10
    7554:	e1a01004 	mov	r1, r4
    7558:	ebfffc6c 	bl	6710 <_fflush_r>
    755c:	e3500000 	cmp	r0, #0
    7560:	1affffa1 	bne	73ec <__sfvwrite_r+0x1c4>
    7564:	e1a0c009 	mov	r12, r9
    7568:	eaffffc7 	b	748c <__sfvwrite_r+0x264>
    756c:	e5940000 	ldr	r0, [r4]
    7570:	e1a0b006 	mov	r11, r6
    7574:	e1a03006 	mov	r3, r6
    7578:	e1a08006 	mov	r8, r6
    757c:	e1a0c006 	mov	r12, r6
    7580:	eaffff76 	b	7360 <__sfvwrite_r+0x138>
    7584:	e1a02006 	mov	r2, r6
    7588:	e1a01009 	mov	r1, r9
    758c:	eb000437 	bl	8670 <memmove>
    7590:	e5942008 	ldr	r2, [r4, #8]
    7594:	e5943000 	ldr	r3, [r4]
    7598:	e0662002 	rsb	r2, r6, r2
    759c:	e0833006 	add	r3, r3, r6
    75a0:	e5843000 	str	r3, [r4]
    75a4:	e5842008 	str	r2, [r4, #8]
    75a8:	e1a08006 	mov	r8, r6
    75ac:	e1a03006 	mov	r3, r6
    75b0:	eaffff77 	b	7394 <__sfvwrite_r+0x16c>
    75b4:	e1a0000b 	mov	r0, r11
    75b8:	e3a0100a 	mov	r1, #10
    75bc:	e1a02008 	mov	r2, r8
    75c0:	eb000360 	bl	8348 <memchr>
    75c4:	e3500000 	cmp	r0, #0
    75c8:	12809001 	addne	r9, r0, #1
    75cc:	106b9009 	rsbne	r9, r11, r9
    75d0:	02889001 	addeq	r9, r8, #1
    75d4:	e3a0c001 	mov	r12, #1
    75d8:	eaffff90 	b	7420 <__sfvwrite_r+0x1f8>
    75dc:	e5941010 	ldr	r1, [r4, #16]
    75e0:	e594b000 	ldr	r11, [r4]
    75e4:	e5948014 	ldr	r8, [r4, #20]
    75e8:	e061b00b 	rsb	r11, r1, r11
    75ec:	e0888088 	add	r8, r8, r8, lsl #1
    75f0:	e0888fa8 	add	r8, r8, r8, lsr #31
    75f4:	e28b0001 	add	r0, r11, #1
    75f8:	e1a080c8 	asr	r8, r8, #1
    75fc:	e0800006 	add	r0, r0, r6
    7600:	e1580000 	cmp	r8, r0
    7604:	e1a02008 	mov	r2, r8
    7608:	31a08000 	movcc	r8, r0
    760c:	31a02008 	movcc	r2, r8
    7610:	e3130b01 	tst	r3, #1024	; 0x400
    7614:	e1a0000a 	mov	r0, r10
    7618:	0affff6b 	beq	73cc <__sfvwrite_r+0x1a4>
    761c:	e1a01002 	mov	r1, r2
    7620:	eb00010a 	bl	7a50 <_malloc_r>
    7624:	e2503000 	subs	r3, r0, #0
    7628:	0affff6d 	beq	73e4 <__sfvwrite_r+0x1bc>
    762c:	e5941010 	ldr	r1, [r4, #16]
    7630:	e1a0200b 	mov	r2, r11
    7634:	e58d3004 	str	r3, [sp, #4]
    7638:	eb000389 	bl	8464 <memcpy>
    763c:	e1d420bc 	ldrh	r2, [r4, #12]
    7640:	e3c22d12 	bic	r2, r2, #1152	; 0x480
    7644:	e3822080 	orr	r2, r2, #128	; 0x80
    7648:	e1c420bc 	strh	r2, [r4, #12]
    764c:	e59d3004 	ldr	r3, [sp, #4]
    7650:	e083000b 	add	r0, r3, r11
    7654:	e06b2008 	rsb	r2, r11, r8
    7658:	e5843010 	str	r3, [r4, #16]
    765c:	e5848014 	str	r8, [r4, #20]
    7660:	e5840000 	str	r0, [r4]
    7664:	e1a0b006 	mov	r11, r6
    7668:	e5842008 	str	r2, [r4, #8]
    766c:	e1a03006 	mov	r3, r6
    7670:	e1a08006 	mov	r8, r6
    7674:	e1a0c006 	mov	r12, r6
    7678:	eaffff38 	b	7360 <__sfvwrite_r+0x138>
    767c:	e1a0100b 	mov	r1, r11
    7680:	e1a02006 	mov	r2, r6
    7684:	e58dc000 	str	r12, [sp]
    7688:	eb0003f8 	bl	8670 <memmove>
    768c:	e5943000 	ldr	r3, [r4]
    7690:	e0833006 	add	r3, r3, r6
    7694:	e5843000 	str	r3, [r4]
    7698:	e1a0000a 	mov	r0, r10
    769c:	e1a01004 	mov	r1, r4
    76a0:	ebfffc1a 	bl	6710 <_fflush_r>
    76a4:	e3500000 	cmp	r0, #0
    76a8:	e59dc000 	ldr	r12, [sp]
    76ac:	0affff74 	beq	7484 <__sfvwrite_r+0x25c>
    76b0:	eaffff4d 	b	73ec <__sfvwrite_r+0x1c4>
    76b4:	e1a01009 	mov	r1, r9
    76b8:	e1a02008 	mov	r2, r8
    76bc:	e58d8004 	str	r8, [sp, #4]
    76c0:	eb0003ea 	bl	8670 <memmove>
    76c4:	e5942000 	ldr	r2, [r4]
    76c8:	e0822008 	add	r2, r2, r8
    76cc:	e5842000 	str	r2, [r4]
    76d0:	e1a0000a 	mov	r0, r10
    76d4:	e1a01004 	mov	r1, r4
    76d8:	ebfffc0c 	bl	6710 <_fflush_r>
    76dc:	e3500000 	cmp	r0, #0
    76e0:	e59d3004 	ldr	r3, [sp, #4]
    76e4:	0affff2a 	beq	7394 <__sfvwrite_r+0x16c>
    76e8:	eaffff3f 	b	73ec <__sfvwrite_r+0x1c4>

000076ec <_fwalk>:
    76ec:	e92d41f0 	push	{r4, r5, r6, r7, r8, lr}
    76f0:	e1a06000 	mov	r6, r0
    76f4:	e1a08001 	mov	r8, r1
    76f8:	ebfffd3a 	bl	6be8 <__sfp_lock_acquire>
    76fc:	e2966e2e 	adds	r6, r6, #736	; 0x2e0
    7700:	0a000019 	beq	776c <_fwalk+0x80>
    7704:	e3a07000 	mov	r7, #0
    7708:	e5965004 	ldr	r5, [r6, #4]
    770c:	e2555001 	subs	r5, r5, #1
    7710:	e5964008 	ldr	r4, [r6, #8]
    7714:	4a00000d 	bmi	7750 <_fwalk+0x64>
    7718:	e1d430fc 	ldrsh	r3, [r4, #12]
    771c:	e3530000 	cmp	r3, #0
    7720:	e2455001 	sub	r5, r5, #1
    7724:	0a000006 	beq	7744 <_fwalk+0x58>
    7728:	e1d430fe 	ldrsh	r3, [r4, #14]
    772c:	e3730001 	cmn	r3, #1
    7730:	e1a00004 	mov	r0, r4
    7734:	0a000002 	beq	7744 <_fwalk+0x58>
    7738:	e1a0e00f 	mov	lr, pc
    773c:	e12fff18 	bx	r8
    7740:	e1877000 	orr	r7, r7, r0
    7744:	e3750001 	cmn	r5, #1
    7748:	e2844068 	add	r4, r4, #104	; 0x68
    774c:	1afffff1 	bne	7718 <_fwalk+0x2c>
    7750:	e5966000 	ldr	r6, [r6]
    7754:	e3560000 	cmp	r6, #0
    7758:	1affffea 	bne	7708 <_fwalk+0x1c>
    775c:	ebfffd22 	bl	6bec <__sfp_lock_release>
    7760:	e1a00007 	mov	r0, r7
    7764:	e8bd41f0 	pop	{r4, r5, r6, r7, r8, lr}
    7768:	e12fff1e 	bx	lr
    776c:	e1a07006 	mov	r7, r6
    7770:	eafffff9 	b	775c <_fwalk+0x70>

00007774 <_fwalk_reent>:
    7774:	e92d45f8 	push	{r3, r4, r5, r6, r7, r8, r10, lr}
    7778:	e1a07000 	mov	r7, r0
    777c:	e1a08001 	mov	r8, r1
    7780:	ebfffd18 	bl	6be8 <__sfp_lock_acquire>
    7784:	e2976e2e 	adds	r6, r7, #736	; 0x2e0
    7788:	0a00001a 	beq	77f8 <_fwalk_reent+0x84>
    778c:	e3a0a000 	mov	r10, #0
    7790:	e5965004 	ldr	r5, [r6, #4]
    7794:	e2555001 	subs	r5, r5, #1
    7798:	e5964008 	ldr	r4, [r6, #8]
    779c:	4a00000e 	bmi	77dc <_fwalk_reent+0x68>
    77a0:	e1d430fc 	ldrsh	r3, [r4, #12]
    77a4:	e3530000 	cmp	r3, #0
    77a8:	e2455001 	sub	r5, r5, #1
    77ac:	0a000007 	beq	77d0 <_fwalk_reent+0x5c>
    77b0:	e1d430fe 	ldrsh	r3, [r4, #14]
    77b4:	e3730001 	cmn	r3, #1
    77b8:	e1a01004 	mov	r1, r4
    77bc:	e1a00007 	mov	r0, r7
    77c0:	0a000002 	beq	77d0 <_fwalk_reent+0x5c>
    77c4:	e1a0e00f 	mov	lr, pc
    77c8:	e12fff18 	bx	r8
    77cc:	e18aa000 	orr	r10, r10, r0
    77d0:	e3750001 	cmn	r5, #1
    77d4:	e2844068 	add	r4, r4, #104	; 0x68
    77d8:	1afffff0 	bne	77a0 <_fwalk_reent+0x2c>
    77dc:	e5966000 	ldr	r6, [r6]
    77e0:	e3560000 	cmp	r6, #0
    77e4:	1affffe9 	bne	7790 <_fwalk_reent+0x1c>
    77e8:	ebfffcff 	bl	6bec <__sfp_lock_release>
    77ec:	e1a0000a 	mov	r0, r10
    77f0:	e8bd45f8 	pop	{r3, r4, r5, r6, r7, r8, r10, lr}
    77f4:	e12fff1e 	bx	lr
    77f8:	e1a0a006 	mov	r10, r6
    77fc:	eafffff9 	b	77e8 <_fwalk_reent+0x74>

00007800 <iswspace>:
    7800:	e35000ff 	cmp	r0, #255	; 0xff
    7804:	959f3014 	ldrls	r3, [pc, #20]	; 7820 <iswspace+0x20>
    7808:	95933000 	ldrls	r3, [r3]
    780c:	90830000 	addls	r0, r3, r0
    7810:	95d00001 	ldrbls	r0, [r0, #1]
    7814:	92000008 	andls	r0, r0, #8
    7818:	83a00000 	movhi	r0, #0
    781c:	e12fff1e 	bx	lr
    7820:	00014030 	.word	0x00014030

00007824 <_setlocale_r>:
    7824:	e92d4010 	push	{r4, lr}
    7828:	e2524000 	subs	r4, r2, #0
    782c:	0a000004 	beq	7844 <_setlocale_r+0x20>
    7830:	e1a00004 	mov	r0, r4
    7834:	e59f1048 	ldr	r1, [pc, #72]	; 7884 <_setlocale_r+0x60>
    7838:	eb000a0f 	bl	a07c <strcmp>
    783c:	e3500000 	cmp	r0, #0
    7840:	1a000002 	bne	7850 <_setlocale_r+0x2c>
    7844:	e59f003c 	ldr	r0, [pc, #60]	; 7888 <_setlocale_r+0x64>
    7848:	e8bd4010 	pop	{r4, lr}
    784c:	e12fff1e 	bx	lr
    7850:	e1a00004 	mov	r0, r4
    7854:	e59f102c 	ldr	r1, [pc, #44]	; 7888 <_setlocale_r+0x64>
    7858:	eb000a07 	bl	a07c <strcmp>
    785c:	e3500000 	cmp	r0, #0
    7860:	0afffff7 	beq	7844 <_setlocale_r+0x20>
    7864:	e1a00004 	mov	r0, r4
    7868:	e59f101c 	ldr	r1, [pc, #28]	; 788c <_setlocale_r+0x68>
    786c:	eb000a02 	bl	a07c <strcmp>
    7870:	e59f3010 	ldr	r3, [pc, #16]	; 7888 <_setlocale_r+0x64>
    7874:	e3500000 	cmp	r0, #0
    7878:	01a00003 	moveq	r0, r3
    787c:	13a00000 	movne	r0, #0
    7880:	eafffff0 	b	7848 <_setlocale_r+0x24>
    7884:	000139b0 	.word	0x000139b0
    7888:	00013808 	.word	0x00013808
    788c:	00013800 	.word	0x00013800

00007890 <__locale_charset>:
    7890:	e59f0000 	ldr	r0, [pc]	; 7898 <__locale_charset+0x8>
    7894:	e12fff1e 	bx	lr
    7898:	00014034 	.word	0x00014034

0000789c <__locale_mb_cur_max>:
    789c:	e59f3004 	ldr	r3, [pc, #4]	; 78a8 <__locale_mb_cur_max+0xc>
    78a0:	e5930020 	ldr	r0, [r3, #32]
    78a4:	e12fff1e 	bx	lr
    78a8:	00014034 	.word	0x00014034

000078ac <__locale_msgcharset>:
    78ac:	e59f0000 	ldr	r0, [pc]	; 78b4 <__locale_msgcharset+0x8>
    78b0:	e12fff1e 	bx	lr
    78b4:	00014058 	.word	0x00014058

000078b8 <__locale_cjk_lang>:
    78b8:	e3a00000 	mov	r0, #0
    78bc:	e12fff1e 	bx	lr

000078c0 <_localeconv_r>:
    78c0:	e59f0000 	ldr	r0, [pc]	; 78c8 <_localeconv_r+0x8>
    78c4:	e12fff1e 	bx	lr
    78c8:	00014078 	.word	0x00014078

000078cc <setlocale>:
    78cc:	e1a02001 	mov	r2, r1
    78d0:	e59f100c 	ldr	r1, [pc, #12]	; 78e4 <setlocale+0x18>
    78d4:	e1a03000 	mov	r3, r0
    78d8:	e5910000 	ldr	r0, [r1]
    78dc:	e1a01003 	mov	r1, r3
    78e0:	eaffffcf 	b	7824 <_setlocale_r>
    78e4:	00013c00 	.word	0x00013c00

000078e8 <localeconv>:
    78e8:	e59f0000 	ldr	r0, [pc]	; 78f0 <localeconv+0x8>
    78ec:	e12fff1e 	bx	lr
    78f0:	00014078 	.word	0x00014078

000078f4 <__smakebuf_r>:
    78f4:	e92d40f0 	push	{r4, r5, r6, r7, lr}
    78f8:	e1d130bc 	ldrh	r3, [r1, #12]
    78fc:	e3130002 	tst	r3, #2
    7900:	e24dd044 	sub	sp, sp, #68	; 0x44
    7904:	e1a04001 	mov	r4, r1
    7908:	e1a05000 	mov	r5, r0
    790c:	1a00002b 	bne	79c0 <__smakebuf_r+0xcc>
    7910:	e1d110fe 	ldrsh	r1, [r1, #14]
    7914:	e3510000 	cmp	r1, #0
    7918:	ba000010 	blt	7960 <__smakebuf_r+0x6c>
    791c:	e28d2004 	add	r2, sp, #4
    7920:	eb00207f 	bl	fb24 <_fstat_r>
    7924:	e3500000 	cmp	r0, #0
    7928:	ba00000b 	blt	795c <__smakebuf_r+0x68>
    792c:	e59d3008 	ldr	r3, [sp, #8]
    7930:	e2033a0f 	and	r3, r3, #61440	; 0xf000
    7934:	e2532a02 	subs	r2, r3, #8192	; 0x2000
    7938:	e2727000 	rsbs	r7, r2, #0
    793c:	e0b77002 	adcs	r7, r7, r2
    7940:	e3530902 	cmp	r3, #32768	; 0x8000
    7944:	0a000023 	beq	79d8 <__smakebuf_r+0xe4>
    7948:	e1d430bc 	ldrh	r3, [r4, #12]
    794c:	e3833b02 	orr	r3, r3, #2048	; 0x800
    7950:	e1c430bc 	strh	r3, [r4, #12]
    7954:	e3a06b01 	mov	r6, #1024	; 0x400
    7958:	ea000006 	b	7978 <__smakebuf_r+0x84>
    795c:	e1d430bc 	ldrh	r3, [r4, #12]
    7960:	e3130080 	tst	r3, #128	; 0x80
    7964:	e3833b02 	orr	r3, r3, #2048	; 0x800
    7968:	e1c430bc 	strh	r3, [r4, #12]
    796c:	03a06b01 	moveq	r6, #1024	; 0x400
    7970:	13a06040 	movne	r6, #64	; 0x40
    7974:	e3a07000 	mov	r7, #0
    7978:	e1a00005 	mov	r0, r5
    797c:	e1a01006 	mov	r1, r6
    7980:	eb000032 	bl	7a50 <_malloc_r>
    7984:	e3500000 	cmp	r0, #0
    7988:	e1d430bc 	ldrh	r3, [r4, #12]
    798c:	0a000023 	beq	7a20 <__smakebuf_r+0x12c>
    7990:	e59f20b0 	ldr	r2, [pc, #176]	; 7a48 <__smakebuf_r+0x154>
    7994:	e3833080 	orr	r3, r3, #128	; 0x80
    7998:	e3570000 	cmp	r7, #0
    799c:	e585203c 	str	r2, [r5, #60]	; 0x3c
    79a0:	e1c430bc 	strh	r3, [r4, #12]
    79a4:	e5840000 	str	r0, [r4]
    79a8:	e5840010 	str	r0, [r4, #16]
    79ac:	e5846014 	str	r6, [r4, #20]
    79b0:	1a000012 	bne	7a00 <__smakebuf_r+0x10c>
    79b4:	e28dd044 	add	sp, sp, #68	; 0x44
    79b8:	e8bd40f0 	pop	{r4, r5, r6, r7, lr}
    79bc:	e12fff1e 	bx	lr
    79c0:	e2813043 	add	r3, r1, #67	; 0x43
    79c4:	e5813000 	str	r3, [r1]
    79c8:	e5813010 	str	r3, [r1, #16]
    79cc:	e3a03001 	mov	r3, #1
    79d0:	e5813014 	str	r3, [r1, #20]
    79d4:	eafffff6 	b	79b4 <__smakebuf_r+0xc0>
    79d8:	e5942028 	ldr	r2, [r4, #40]	; 0x28
    79dc:	e59f3068 	ldr	r3, [pc, #104]	; 7a4c <__smakebuf_r+0x158>
    79e0:	e1520003 	cmp	r2, r3
    79e4:	1affffd7 	bne	7948 <__smakebuf_r+0x54>
    79e8:	e1d430bc 	ldrh	r3, [r4, #12]
    79ec:	e3a06b01 	mov	r6, #1024	; 0x400
    79f0:	e1833006 	orr	r3, r3, r6
    79f4:	e1c430bc 	strh	r3, [r4, #12]
    79f8:	e584604c 	str	r6, [r4, #76]	; 0x4c
    79fc:	eaffffdd 	b	7978 <__smakebuf_r+0x84>
    7a00:	e1a00005 	mov	r0, r5
    7a04:	e1d410fe 	ldrsh	r1, [r4, #14]
    7a08:	eb002373 	bl	107dc <_isatty_r>
    7a0c:	e3500000 	cmp	r0, #0
    7a10:	11d430bc 	ldrhne	r3, [r4, #12]
    7a14:	13833001 	orrne	r3, r3, #1
    7a18:	11c430bc 	strhne	r3, [r4, #12]
    7a1c:	eaffffe4 	b	79b4 <__smakebuf_r+0xc0>
    7a20:	e3130c02 	tst	r3, #512	; 0x200
    7a24:	1affffe2 	bne	79b4 <__smakebuf_r+0xc0>
    7a28:	e3833002 	orr	r3, r3, #2
    7a2c:	e2842043 	add	r2, r4, #67	; 0x43
    7a30:	e1c430bc 	strh	r3, [r4, #12]
    7a34:	e3a03001 	mov	r3, #1
    7a38:	e5842000 	str	r2, [r4]
    7a3c:	e5842010 	str	r2, [r4, #16]
    7a40:	e5843014 	str	r3, [r4, #20]
    7a44:	eaffffda 	b	79b4 <__smakebuf_r+0xc0>
    7a48:	0000698c 	.word	0x0000698c
    7a4c:	0000a034 	.word	0x0000a034

00007a50 <_malloc_r>:
    7a50:	e92d4ff0 	push	{r4, r5, r6, r7, r8, r9, r10, r11, lr}
    7a54:	e281500b 	add	r5, r1, #11
    7a58:	e3550016 	cmp	r5, #22
    7a5c:	83c55007 	bichi	r5, r5, #7
    7a60:	81a03fa5 	lsrhi	r3, r5, #31
    7a64:	93a03000 	movls	r3, #0
    7a68:	93a05010 	movls	r5, #16
    7a6c:	e1550001 	cmp	r5, r1
    7a70:	21a01003 	movcs	r1, r3
    7a74:	33831001 	orrcc	r1, r3, #1
    7a78:	e3510000 	cmp	r1, #0
    7a7c:	13a0300c 	movne	r3, #12
    7a80:	e24dd00c 	sub	sp, sp, #12
    7a84:	e1a06000 	mov	r6, r0
    7a88:	15803000 	strne	r3, [r0]
    7a8c:	13a04000 	movne	r4, #0
    7a90:	1a000015 	bne	7aec <_malloc_r+0x9c>
    7a94:	eb00038f 	bl	88d8 <__malloc_lock>
    7a98:	e3550f7e 	cmp	r5, #504	; 0x1f8
    7a9c:	2a000016 	bcs	7afc <_malloc_r+0xac>
    7aa0:	e59f76b8 	ldr	r7, [pc, #1720]	; 8160 <_malloc_r+0x710>
    7aa4:	e1a0e1a5 	lsr	lr, r5, #3
    7aa8:	e087318e 	add	r3, r7, lr, lsl #3
    7aac:	e593400c 	ldr	r4, [r3, #12]
    7ab0:	e1540003 	cmp	r4, r3
    7ab4:	0a00014b 	beq	7fe8 <_malloc_r+0x598>
    7ab8:	e5943004 	ldr	r3, [r4, #4]
    7abc:	e3c33003 	bic	r3, r3, #3
    7ac0:	e0843003 	add	r3, r4, r3
    7ac4:	e5930004 	ldr	r0, [r3, #4]
    7ac8:	e2841008 	add	r1, r4, #8
    7acc:	e8910006 	ldm	r1, {r1, r2}
    7ad0:	e3800001 	orr	r0, r0, #1
    7ad4:	e5830004 	str	r0, [r3, #4]
    7ad8:	e581200c 	str	r2, [r1, #12]
    7adc:	e5821008 	str	r1, [r2, #8]
    7ae0:	e1a00006 	mov	r0, r6
    7ae4:	eb00037c 	bl	88dc <__malloc_unlock>
    7ae8:	e2844008 	add	r4, r4, #8
    7aec:	e1a00004 	mov	r0, r4
    7af0:	e28dd00c 	add	sp, sp, #12
    7af4:	e8bd4ff0 	pop	{r4, r5, r6, r7, r8, r9, r10, r11, lr}
    7af8:	e12fff1e 	bx	lr
    7afc:	e1b0e4a5 	lsrs	lr, r5, #9
    7b00:	01a0e1a5 	lsreq	lr, r5, #3
    7b04:	01a0108e 	lsleq	r1, lr, #1
    7b08:	1a000061 	bne	7c94 <_malloc_r+0x244>
    7b0c:	e59f764c 	ldr	r7, [pc, #1612]	; 8160 <_malloc_r+0x710>
    7b10:	e0871101 	add	r1, r7, r1, lsl #2
    7b14:	e591400c 	ldr	r4, [r1, #12]
    7b18:	e1510004 	cmp	r1, r4
    7b1c:	1a000005 	bne	7b38 <_malloc_r+0xe8>
    7b20:	ea00000a 	b	7b50 <_malloc_r+0x100>
    7b24:	e3530000 	cmp	r3, #0
    7b28:	aa0000d7 	bge	7e8c <_malloc_r+0x43c>
    7b2c:	e594400c 	ldr	r4, [r4, #12]
    7b30:	e1510004 	cmp	r1, r4
    7b34:	0a000005 	beq	7b50 <_malloc_r+0x100>
    7b38:	e5942004 	ldr	r2, [r4, #4]
    7b3c:	e3c22003 	bic	r2, r2, #3
    7b40:	e0653002 	rsb	r3, r5, r2
    7b44:	e353000f 	cmp	r3, #15
    7b48:	dafffff5 	ble	7b24 <_malloc_r+0xd4>
    7b4c:	e24ee001 	sub	lr, lr, #1
    7b50:	e28ee001 	add	lr, lr, #1
    7b54:	e59f3604 	ldr	r3, [pc, #1540]	; 8160 <_malloc_r+0x710>
    7b58:	e5974010 	ldr	r4, [r7, #16]
    7b5c:	e2838008 	add	r8, r3, #8
    7b60:	e1540008 	cmp	r4, r8
    7b64:	05931004 	ldreq	r1, [r3, #4]
    7b68:	0a000016 	beq	7bc8 <_malloc_r+0x178>
    7b6c:	e5942004 	ldr	r2, [r4, #4]
    7b70:	e3c22003 	bic	r2, r2, #3
    7b74:	e0651002 	rsb	r1, r5, r2
    7b78:	e351000f 	cmp	r1, #15
    7b7c:	ca0000f7 	bgt	7f60 <_malloc_r+0x510>
    7b80:	e3510000 	cmp	r1, #0
    7b84:	e5838014 	str	r8, [r3, #20]
    7b88:	e5838010 	str	r8, [r3, #16]
    7b8c:	aa000046 	bge	7cac <_malloc_r+0x25c>
    7b90:	e3520c02 	cmp	r2, #512	; 0x200
    7b94:	2a0000d2 	bcs	7ee4 <_malloc_r+0x494>
    7b98:	e5930004 	ldr	r0, [r3, #4]
    7b9c:	e1a021a2 	lsr	r2, r2, #3
    7ba0:	e1a01142 	asr	r1, r2, #2
    7ba4:	e3a0c001 	mov	r12, #1
    7ba8:	e180111c 	orr	r1, r0, r12, lsl r1
    7bac:	e0832182 	add	r2, r3, r2, lsl #3
    7bb0:	e5920008 	ldr	r0, [r2, #8]
    7bb4:	e584200c 	str	r2, [r4, #12]
    7bb8:	e5840008 	str	r0, [r4, #8]
    7bbc:	e5831004 	str	r1, [r3, #4]
    7bc0:	e5824008 	str	r4, [r2, #8]
    7bc4:	e580400c 	str	r4, [r0, #12]
    7bc8:	e1a0014e 	asr	r0, lr, #2
    7bcc:	e3a03001 	mov	r3, #1
    7bd0:	e1a00013 	lsl	r0, r3, r0
    7bd4:	e1500001 	cmp	r0, r1
    7bd8:	8a00003b 	bhi	7ccc <_malloc_r+0x27c>
    7bdc:	e1110000 	tst	r1, r0
    7be0:	1a000008 	bne	7c08 <_malloc_r+0x1b8>
    7be4:	e1a00310 	lsl	r0, r0, r3
    7be8:	e3cee003 	bic	lr, lr, #3
    7bec:	e1110000 	tst	r1, r0
    7bf0:	e28ee004 	add	lr, lr, #4
    7bf4:	1a000003 	bne	7c08 <_malloc_r+0x1b8>
    7bf8:	e1a00080 	lsl	r0, r0, #1
    7bfc:	e1110000 	tst	r1, r0
    7c00:	e28ee004 	add	lr, lr, #4
    7c04:	0afffffb 	beq	7bf8 <_malloc_r+0x1a8>
    7c08:	e087a18e 	add	r10, r7, lr, lsl #3
    7c0c:	e1a0c00a 	mov	r12, r10
    7c10:	e1a0400e 	mov	r4, lr
    7c14:	e59c300c 	ldr	r3, [r12, #12]
    7c18:	e15c0003 	cmp	r12, r3
    7c1c:	1a000005 	bne	7c38 <_malloc_r+0x1e8>
    7c20:	ea0000db 	b	7f94 <_malloc_r+0x544>
    7c24:	e3520000 	cmp	r2, #0
    7c28:	aa0000f4 	bge	8000 <_malloc_r+0x5b0>
    7c2c:	e593300c 	ldr	r3, [r3, #12]
    7c30:	e15c0003 	cmp	r12, r3
    7c34:	0a0000d6 	beq	7f94 <_malloc_r+0x544>
    7c38:	e5931004 	ldr	r1, [r3, #4]
    7c3c:	e3c11003 	bic	r1, r1, #3
    7c40:	e0652001 	rsb	r2, r5, r1
    7c44:	e352000f 	cmp	r2, #15
    7c48:	dafffff5 	ble	7c24 <_malloc_r+0x1d4>
    7c4c:	e1a04003 	mov	r4, r3
    7c50:	e593000c 	ldr	r0, [r3, #12]
    7c54:	e5b4c008 	ldr	r12, [r4, #8]!
    7c58:	e0831005 	add	r1, r3, r5
    7c5c:	e382e001 	orr	lr, r2, #1
    7c60:	e3855001 	orr	r5, r5, #1
    7c64:	e58c000c 	str	r0, [r12, #12]
    7c68:	e580c008 	str	r12, [r0, #8]
    7c6c:	e5835004 	str	r5, [r3, #4]
    7c70:	e5871014 	str	r1, [r7, #20]
    7c74:	e5871010 	str	r1, [r7, #16]
    7c78:	e581800c 	str	r8, [r1, #12]
    7c7c:	e5818008 	str	r8, [r1, #8]
    7c80:	e581e004 	str	lr, [r1, #4]
    7c84:	e7812002 	str	r2, [r1, r2]
    7c88:	e1a00006 	mov	r0, r6
    7c8c:	eb000312 	bl	88dc <__malloc_unlock>
    7c90:	eaffff95 	b	7aec <_malloc_r+0x9c>
    7c94:	e35e0004 	cmp	lr, #4
    7c98:	8a000087 	bhi	7ebc <_malloc_r+0x46c>
    7c9c:	e1a0e325 	lsr	lr, r5, #6
    7ca0:	e28ee038 	add	lr, lr, #56	; 0x38
    7ca4:	e1a0108e 	lsl	r1, lr, #1
    7ca8:	eaffff97 	b	7b0c <_malloc_r+0xbc>
    7cac:	e0842002 	add	r2, r4, r2
    7cb0:	e5923004 	ldr	r3, [r2, #4]
    7cb4:	e3833001 	orr	r3, r3, #1
    7cb8:	e5823004 	str	r3, [r2, #4]
    7cbc:	e1a00006 	mov	r0, r6
    7cc0:	eb000305 	bl	88dc <__malloc_unlock>
    7cc4:	e2844008 	add	r4, r4, #8
    7cc8:	eaffff87 	b	7aec <_malloc_r+0x9c>
    7ccc:	e5974008 	ldr	r4, [r7, #8]
    7cd0:	e594a004 	ldr	r10, [r4, #4]
    7cd4:	e3caa003 	bic	r10, r10, #3
    7cd8:	e155000a 	cmp	r5, r10
    7cdc:	8a000002 	bhi	7cec <_malloc_r+0x29c>
    7ce0:	e065300a 	rsb	r3, r5, r10
    7ce4:	e353000f 	cmp	r3, #15
    7ce8:	ca00005d 	bgt	7e64 <_malloc_r+0x414>
    7cec:	e59f9470 	ldr	r9, [pc, #1136]	; 8164 <_malloc_r+0x714>
    7cf0:	e5973408 	ldr	r3, [r7, #1032]	; 0x408
    7cf4:	e599b000 	ldr	r11, [r9]
    7cf8:	e3730001 	cmn	r3, #1
    7cfc:	e085b00b 	add	r11, r5, r11
    7d00:	128bba01 	addne	r11, r11, #4096	; 0x1000
    7d04:	128bb00f 	addne	r11, r11, #15
    7d08:	13cbbeff 	bicne	r11, r11, #4080	; 0xff0
    7d0c:	028bb010 	addeq	r11, r11, #16
    7d10:	13cbb00f 	bicne	r11, r11, #15
    7d14:	e084200a 	add	r2, r4, r10
    7d18:	e1a00006 	mov	r0, r6
    7d1c:	e1a0100b 	mov	r1, r11
    7d20:	e58d2004 	str	r2, [sp, #4]
    7d24:	eb000820 	bl	9dac <_sbrk_r>
    7d28:	e3700001 	cmn	r0, #1
    7d2c:	e1a08000 	mov	r8, r0
    7d30:	e59d2004 	ldr	r2, [sp, #4]
    7d34:	0a0000e2 	beq	80c4 <_malloc_r+0x674>
    7d38:	e1520000 	cmp	r2, r0
    7d3c:	8a0000bf 	bhi	8040 <_malloc_r+0x5f0>
    7d40:	e5993004 	ldr	r3, [r9, #4]
    7d44:	e1520008 	cmp	r2, r8
    7d48:	e08b3003 	add	r3, r11, r3
    7d4c:	e5893004 	str	r3, [r9, #4]
    7d50:	0a0000df 	beq	80d4 <_malloc_r+0x684>
    7d54:	e5971408 	ldr	r1, [r7, #1032]	; 0x408
    7d58:	e3710001 	cmn	r1, #1
    7d5c:	10622008 	rsbne	r2, r2, r8
    7d60:	059f33f8 	ldreq	r3, [pc, #1016]	; 8160 <_malloc_r+0x710>
    7d64:	10833002 	addne	r3, r3, r2
    7d68:	05838408 	streq	r8, [r3, #1032]	; 0x408
    7d6c:	15893004 	strne	r3, [r9, #4]
    7d70:	e2183007 	ands	r3, r8, #7
    7d74:	12632008 	rsbne	r2, r3, #8
    7d78:	10888002 	addne	r8, r8, r2
    7d7c:	12633a01 	rsbne	r3, r3, #4096	; 0x1000
    7d80:	12832008 	addne	r2, r3, #8
    7d84:	e088300b 	add	r3, r8, r11
    7d88:	03a02a01 	moveq	r2, #4096	; 0x1000
    7d8c:	e1a03a03 	lsl	r3, r3, #20
    7d90:	e042ba23 	sub	r11, r2, r3, lsr #20
    7d94:	e1a0100b 	mov	r1, r11
    7d98:	e1a00006 	mov	r0, r6
    7d9c:	eb000802 	bl	9dac <_sbrk_r>
    7da0:	e3700001 	cmn	r0, #1
    7da4:	10682000 	rsbne	r2, r8, r0
    7da8:	e5993004 	ldr	r3, [r9, #4]
    7dac:	108b2002 	addne	r2, r11, r2
    7db0:	03a0b000 	moveq	r11, #0
    7db4:	13822001 	orrne	r2, r2, #1
    7db8:	03a02001 	moveq	r2, #1
    7dbc:	e08b3003 	add	r3, r11, r3
    7dc0:	e1540007 	cmp	r4, r7
    7dc4:	e5893004 	str	r3, [r9, #4]
    7dc8:	e5878008 	str	r8, [r7, #8]
    7dcc:	e5882004 	str	r2, [r8, #4]
    7dd0:	0a00000d 	beq	7e0c <_malloc_r+0x3bc>
    7dd4:	e35a000f 	cmp	r10, #15
    7dd8:	9a0000ac 	bls	8090 <_malloc_r+0x640>
    7ddc:	e594c004 	ldr	r12, [r4, #4]
    7de0:	e24a200c 	sub	r2, r10, #12
    7de4:	e3c22007 	bic	r2, r2, #7
    7de8:	e20cc001 	and	r12, r12, #1
    7dec:	e0841002 	add	r1, r4, r2
    7df0:	e3a00005 	mov	r0, #5
    7df4:	e182c00c 	orr	r12, r2, r12
    7df8:	e352000f 	cmp	r2, #15
    7dfc:	e584c004 	str	r12, [r4, #4]
    7e00:	e5810004 	str	r0, [r1, #4]
    7e04:	e5810008 	str	r0, [r1, #8]
    7e08:	8a0000b8 	bhi	80f0 <_malloc_r+0x6a0>
    7e0c:	e599202c 	ldr	r2, [r9, #44]	; 0x2c
    7e10:	e1530002 	cmp	r3, r2
    7e14:	859f2348 	ldrhi	r2, [pc, #840]	; 8164 <_malloc_r+0x714>
    7e18:	8582302c 	strhi	r3, [r2, #44]	; 0x2c
    7e1c:	e5992030 	ldr	r2, [r9, #48]	; 0x30
    7e20:	e5974008 	ldr	r4, [r7, #8]
    7e24:	e1530002 	cmp	r3, r2
    7e28:	95943004 	ldrls	r3, [r4, #4]
    7e2c:	85942004 	ldrhi	r2, [r4, #4]
    7e30:	859f132c 	ldrhi	r1, [pc, #812]	; 8164 <_malloc_r+0x714>
    7e34:	93c33003 	bicls	r3, r3, #3
    7e38:	85813030 	strhi	r3, [r1, #48]	; 0x30
    7e3c:	83c23003 	bichi	r3, r2, #3
    7e40:	e1550003 	cmp	r5, r3
    7e44:	e0653003 	rsb	r3, r5, r3
    7e48:	8a000001 	bhi	7e54 <_malloc_r+0x404>
    7e4c:	e353000f 	cmp	r3, #15
    7e50:	ca000003 	bgt	7e64 <_malloc_r+0x414>
    7e54:	e1a00006 	mov	r0, r6
    7e58:	eb00029f 	bl	88dc <__malloc_unlock>
    7e5c:	e3a04000 	mov	r4, #0
    7e60:	eaffff21 	b	7aec <_malloc_r+0x9c>
    7e64:	e0842005 	add	r2, r4, r5
    7e68:	e3833001 	orr	r3, r3, #1
    7e6c:	e3855001 	orr	r5, r5, #1
    7e70:	e5845004 	str	r5, [r4, #4]
    7e74:	e1a00006 	mov	r0, r6
    7e78:	e5823004 	str	r3, [r2, #4]
    7e7c:	e5872008 	str	r2, [r7, #8]
    7e80:	e2844008 	add	r4, r4, #8
    7e84:	eb000294 	bl	88dc <__malloc_unlock>
    7e88:	eaffff17 	b	7aec <_malloc_r+0x9c>
    7e8c:	e0842002 	add	r2, r4, r2
    7e90:	e5920004 	ldr	r0, [r2, #4]
    7e94:	e2841008 	add	r1, r4, #8
    7e98:	e891000a 	ldm	r1, {r1, r3}
    7e9c:	e3800001 	orr	r0, r0, #1
    7ea0:	e5820004 	str	r0, [r2, #4]
    7ea4:	e581300c 	str	r3, [r1, #12]
    7ea8:	e5831008 	str	r1, [r3, #8]
    7eac:	e1a00006 	mov	r0, r6
    7eb0:	eb000289 	bl	88dc <__malloc_unlock>
    7eb4:	e2844008 	add	r4, r4, #8
    7eb8:	eaffff0b 	b	7aec <_malloc_r+0x9c>
    7ebc:	e35e0014 	cmp	lr, #20
    7ec0:	928ee05b 	addls	lr, lr, #91	; 0x5b
    7ec4:	91a0108e 	lslls	r1, lr, #1
    7ec8:	9affff0f 	bls	7b0c <_malloc_r+0xbc>
    7ecc:	e35e0054 	cmp	lr, #84	; 0x54
    7ed0:	8a000061 	bhi	805c <_malloc_r+0x60c>
    7ed4:	e1a0e625 	lsr	lr, r5, #12
    7ed8:	e28ee06e 	add	lr, lr, #110	; 0x6e
    7edc:	e1a0108e 	lsl	r1, lr, #1
    7ee0:	eaffff09 	b	7b0c <_malloc_r+0xbc>
    7ee4:	e1a034a2 	lsr	r3, r2, #9
    7ee8:	e3530004 	cmp	r3, #4
    7eec:	9a00004f 	bls	8030 <_malloc_r+0x5e0>
    7ef0:	e3530014 	cmp	r3, #20
    7ef4:	9283a05b 	addls	r10, r3, #91	; 0x5b
    7ef8:	91a0008a 	lslls	r0, r10, #1
    7efc:	9a000004 	bls	7f14 <_malloc_r+0x4c4>
    7f00:	e3530054 	cmp	r3, #84	; 0x54
    7f04:	8a00007f 	bhi	8108 <_malloc_r+0x6b8>
    7f08:	e1a0a622 	lsr	r10, r2, #12
    7f0c:	e28aa06e 	add	r10, r10, #110	; 0x6e
    7f10:	e1a0008a 	lsl	r0, r10, #1
    7f14:	e0870100 	add	r0, r7, r0, lsl #2
    7f18:	e5903008 	ldr	r3, [r0, #8]
    7f1c:	e1530000 	cmp	r3, r0
    7f20:	e59fc238 	ldr	r12, [pc, #568]	; 8160 <_malloc_r+0x710>
    7f24:	0a000052 	beq	8074 <_malloc_r+0x624>
    7f28:	e5931004 	ldr	r1, [r3, #4]
    7f2c:	e3c11003 	bic	r1, r1, #3
    7f30:	e1520001 	cmp	r2, r1
    7f34:	2a000002 	bcs	7f44 <_malloc_r+0x4f4>
    7f38:	e5933008 	ldr	r3, [r3, #8]
    7f3c:	e1500003 	cmp	r0, r3
    7f40:	1afffff8 	bne	7f28 <_malloc_r+0x4d8>
    7f44:	e593200c 	ldr	r2, [r3, #12]
    7f48:	e5971004 	ldr	r1, [r7, #4]
    7f4c:	e584200c 	str	r2, [r4, #12]
    7f50:	e5843008 	str	r3, [r4, #8]
    7f54:	e583400c 	str	r4, [r3, #12]
    7f58:	e5824008 	str	r4, [r2, #8]
    7f5c:	eaffff19 	b	7bc8 <_malloc_r+0x178>
    7f60:	e0842005 	add	r2, r4, r5
    7f64:	e3810001 	orr	r0, r1, #1
    7f68:	e3855001 	orr	r5, r5, #1
    7f6c:	e5845004 	str	r5, [r4, #4]
    7f70:	e5832014 	str	r2, [r3, #20]
    7f74:	e5832010 	str	r2, [r3, #16]
    7f78:	e582800c 	str	r8, [r2, #12]
    7f7c:	e9820101 	stmib	r2, {r0, r8}
    7f80:	e7821001 	str	r1, [r2, r1]
    7f84:	e1a00006 	mov	r0, r6
    7f88:	eb000253 	bl	88dc <__malloc_unlock>
    7f8c:	e2844008 	add	r4, r4, #8
    7f90:	eafffed5 	b	7aec <_malloc_r+0x9c>
    7f94:	e2844001 	add	r4, r4, #1
    7f98:	e3140003 	tst	r4, #3
    7f9c:	e28cc008 	add	r12, r12, #8
    7fa0:	1affff1b 	bne	7c14 <_malloc_r+0x1c4>
    7fa4:	e31e0003 	tst	lr, #3
    7fa8:	e24a3008 	sub	r3, r10, #8
    7fac:	0a000062 	beq	813c <_malloc_r+0x6ec>
    7fb0:	e59aa000 	ldr	r10, [r10]
    7fb4:	e15a0003 	cmp	r10, r3
    7fb8:	e24ee001 	sub	lr, lr, #1
    7fbc:	0afffff8 	beq	7fa4 <_malloc_r+0x554>
    7fc0:	e5973004 	ldr	r3, [r7, #4]
    7fc4:	e1a00080 	lsl	r0, r0, #1
    7fc8:	e1500003 	cmp	r0, r3
    7fcc:	8affff3e 	bhi	7ccc <_malloc_r+0x27c>
    7fd0:	e3500000 	cmp	r0, #0
    7fd4:	0affff3c 	beq	7ccc <_malloc_r+0x27c>
    7fd8:	e1130000 	tst	r3, r0
    7fdc:	0a00005a 	beq	814c <_malloc_r+0x6fc>
    7fe0:	e1a0e004 	mov	lr, r4
    7fe4:	eaffff07 	b	7c08 <_malloc_r+0x1b8>
    7fe8:	e2843008 	add	r3, r4, #8
    7fec:	e5944014 	ldr	r4, [r4, #20]
    7ff0:	e1530004 	cmp	r3, r4
    7ff4:	028ee002 	addeq	lr, lr, #2
    7ff8:	0afffed5 	beq	7b54 <_malloc_r+0x104>
    7ffc:	eafffead 	b	7ab8 <_malloc_r+0x68>
    8000:	e0831001 	add	r1, r3, r1
    8004:	e5910004 	ldr	r0, [r1, #4]
    8008:	e1a04003 	mov	r4, r3
    800c:	e5b42008 	ldr	r2, [r4, #8]!
    8010:	e593300c 	ldr	r3, [r3, #12]
    8014:	e3800001 	orr	r0, r0, #1
    8018:	e5810004 	str	r0, [r1, #4]
    801c:	e582300c 	str	r3, [r2, #12]
    8020:	e5832008 	str	r2, [r3, #8]
    8024:	e1a00006 	mov	r0, r6
    8028:	eb00022b 	bl	88dc <__malloc_unlock>
    802c:	eafffeae 	b	7aec <_malloc_r+0x9c>
    8030:	e1a0a322 	lsr	r10, r2, #6
    8034:	e28aa038 	add	r10, r10, #56	; 0x38
    8038:	e1a0008a 	lsl	r0, r10, #1
    803c:	eaffffb4 	b	7f14 <_malloc_r+0x4c4>
    8040:	e1540007 	cmp	r4, r7
    8044:	0affff3d 	beq	7d40 <_malloc_r+0x2f0>
    8048:	e59f3110 	ldr	r3, [pc, #272]	; 8160 <_malloc_r+0x710>
    804c:	e5934008 	ldr	r4, [r3, #8]
    8050:	e5943004 	ldr	r3, [r4, #4]
    8054:	e3c33003 	bic	r3, r3, #3
    8058:	eaffff78 	b	7e40 <_malloc_r+0x3f0>
    805c:	e35e0f55 	cmp	lr, #340	; 0x154
    8060:	8a00000f 	bhi	80a4 <_malloc_r+0x654>
    8064:	e1a0e7a5 	lsr	lr, r5, #15
    8068:	e28ee077 	add	lr, lr, #119	; 0x77
    806c:	e1a0108e 	lsl	r1, lr, #1
    8070:	eafffea5 	b	7b0c <_malloc_r+0xbc>
    8074:	e59c2004 	ldr	r2, [r12, #4]
    8078:	e1a0a14a 	asr	r10, r10, #2
    807c:	e3a01001 	mov	r1, #1
    8080:	e1821a11 	orr	r1, r2, r1, lsl r10
    8084:	e1a02003 	mov	r2, r3
    8088:	e58c1004 	str	r1, [r12, #4]
    808c:	eaffffae 	b	7f4c <_malloc_r+0x4fc>
    8090:	e3a03001 	mov	r3, #1
    8094:	e5883004 	str	r3, [r8, #4]
    8098:	e1a04008 	mov	r4, r8
    809c:	e3a03000 	mov	r3, #0
    80a0:	eaffff66 	b	7e40 <_malloc_r+0x3f0>
    80a4:	e59f30bc 	ldr	r3, [pc, #188]	; 8168 <_malloc_r+0x718>
    80a8:	e15e0003 	cmp	lr, r3
    80ac:	91a0e925 	lsrls	lr, r5, #18
    80b0:	928ee07c 	addls	lr, lr, #124	; 0x7c
    80b4:	91a0108e 	lslls	r1, lr, #1
    80b8:	83a010fc 	movhi	r1, #252	; 0xfc
    80bc:	83a0e07e 	movhi	lr, #126	; 0x7e
    80c0:	eafffe91 	b	7b0c <_malloc_r+0xbc>
    80c4:	e5974008 	ldr	r4, [r7, #8]
    80c8:	e5943004 	ldr	r3, [r4, #4]
    80cc:	e3c33003 	bic	r3, r3, #3
    80d0:	eaffff5a 	b	7e40 <_malloc_r+0x3f0>
    80d4:	e1b01a02 	lsls	r1, r2, #20
    80d8:	1affff1d 	bne	7d54 <_malloc_r+0x304>
    80dc:	e5972008 	ldr	r2, [r7, #8]
    80e0:	e08b100a 	add	r1, r11, r10
    80e4:	e3811001 	orr	r1, r1, #1
    80e8:	e5821004 	str	r1, [r2, #4]
    80ec:	eaffff46 	b	7e0c <_malloc_r+0x3bc>
    80f0:	e1a00006 	mov	r0, r6
    80f4:	e2841008 	add	r1, r4, #8
    80f8:	ebfffbaf 	bl	6fbc <_free_r>
    80fc:	e59f3060 	ldr	r3, [pc, #96]	; 8164 <_malloc_r+0x714>
    8100:	e5933004 	ldr	r3, [r3, #4]
    8104:	eaffff40 	b	7e0c <_malloc_r+0x3bc>
    8108:	e3530f55 	cmp	r3, #340	; 0x154
    810c:	91a0a7a2 	lsrls	r10, r2, #15
    8110:	928aa077 	addls	r10, r10, #119	; 0x77
    8114:	91a0008a 	lslls	r0, r10, #1
    8118:	9affff7d 	bls	7f14 <_malloc_r+0x4c4>
    811c:	e59f1044 	ldr	r1, [pc, #68]	; 8168 <_malloc_r+0x718>
    8120:	e1530001 	cmp	r3, r1
    8124:	91a0a922 	lsrls	r10, r2, #18
    8128:	928aa07c 	addls	r10, r10, #124	; 0x7c
    812c:	91a0008a 	lslls	r0, r10, #1
    8130:	83a000fc 	movhi	r0, #252	; 0xfc
    8134:	83a0a07e 	movhi	r10, #126	; 0x7e
    8138:	eaffff75 	b	7f14 <_malloc_r+0x4c4>
    813c:	e5973004 	ldr	r3, [r7, #4]
    8140:	e1c33000 	bic	r3, r3, r0
    8144:	e5873004 	str	r3, [r7, #4]
    8148:	eaffff9d 	b	7fc4 <_malloc_r+0x574>
    814c:	e1a00080 	lsl	r0, r0, #1
    8150:	e1130000 	tst	r3, r0
    8154:	e2844004 	add	r4, r4, #4
    8158:	1affffa0 	bne	7fe0 <_malloc_r+0x590>
    815c:	eafffffa 	b	814c <_malloc_r+0x6fc>
    8160:	000140b0 	.word	0x000140b0
    8164:	00014520 	.word	0x00014520
    8168:	00000554 	.word	0x00000554

0000816c <_mbrtowc_r>:
    816c:	e92d45f0 	push	{r4, r5, r6, r7, r8, r10, lr}
    8170:	e2526000 	subs	r6, r2, #0
    8174:	e24dd00c 	sub	sp, sp, #12
    8178:	e1a07003 	mov	r7, r3
    817c:	e1a04000 	mov	r4, r0
    8180:	e1a08001 	mov	r8, r1
    8184:	e59d5028 	ldr	r5, [sp, #40]	; 0x28
    8188:	e59f306c 	ldr	r3, [pc, #108]	; 81fc <_mbrtowc_r+0x90>
    818c:	0a000010 	beq	81d4 <_mbrtowc_r+0x68>
    8190:	e593a000 	ldr	r10, [r3]
    8194:	ebfffdbd 	bl	7890 <__locale_charset>
    8198:	e1a01008 	mov	r1, r8
    819c:	e88d0021 	stm	sp, {r0, r5}
    81a0:	e1a02006 	mov	r2, r6
    81a4:	e1a00004 	mov	r0, r4
    81a8:	e1a03007 	mov	r3, r7
    81ac:	e1a0e00f 	mov	lr, pc
    81b0:	e12fff1a 	bx	r10
    81b4:	e3700001 	cmn	r0, #1
    81b8:	03a03000 	moveq	r3, #0
    81bc:	05853000 	streq	r3, [r5]
    81c0:	03a0308a 	moveq	r3, #138	; 0x8a
    81c4:	05843000 	streq	r3, [r4]
    81c8:	e28dd00c 	add	sp, sp, #12
    81cc:	e8bd45f0 	pop	{r4, r5, r6, r7, r8, r10, lr}
    81d0:	e12fff1e 	bx	lr
    81d4:	e5937000 	ldr	r7, [r3]
    81d8:	ebfffdac 	bl	7890 <__locale_charset>
    81dc:	e1a01006 	mov	r1, r6
    81e0:	e88d0021 	stm	sp, {r0, r5}
    81e4:	e59f2014 	ldr	r2, [pc, #20]	; 8200 <_mbrtowc_r+0x94>
    81e8:	e1a00004 	mov	r0, r4
    81ec:	e3a03001 	mov	r3, #1
    81f0:	e1a0e00f 	mov	lr, pc
    81f4:	e12fff17 	bx	r7
    81f8:	eaffffed 	b	81b4 <_mbrtowc_r+0x48>
    81fc:	000144c0 	.word	0x000144c0
    8200:	00013800 	.word	0x00013800

00008204 <mbrtowc>:
    8204:	e92d47f0 	push	{r4, r5, r6, r7, r8, r9, r10, lr}
    8208:	e2516000 	subs	r6, r1, #0
    820c:	e1a04003 	mov	r4, r3
    8210:	e24dd008 	sub	sp, sp, #8
    8214:	e59f5084 	ldr	r5, [pc, #132]	; 82a0 <mbrtowc+0x9c>
    8218:	e1a08000 	mov	r8, r0
    821c:	e1a07002 	mov	r7, r2
    8220:	e59f307c 	ldr	r3, [pc, #124]	; 82a4 <mbrtowc+0xa0>
    8224:	0a000012 	beq	8274 <mbrtowc+0x70>
    8228:	e593a000 	ldr	r10, [r3]
    822c:	e5959000 	ldr	r9, [r5]
    8230:	ebfffd96 	bl	7890 <__locale_charset>
    8234:	e1a01008 	mov	r1, r8
    8238:	e88d0011 	stm	sp, {r0, r4}
    823c:	e1a02006 	mov	r2, r6
    8240:	e1a00009 	mov	r0, r9
    8244:	e1a03007 	mov	r3, r7
    8248:	e1a0e00f 	mov	lr, pc
    824c:	e12fff1a 	bx	r10
    8250:	e3700001 	cmn	r0, #1
    8254:	03a02000 	moveq	r2, #0
    8258:	05953000 	ldreq	r3, [r5]
    825c:	05842000 	streq	r2, [r4]
    8260:	03a0208a 	moveq	r2, #138	; 0x8a
    8264:	05832000 	streq	r2, [r3]
    8268:	e28dd008 	add	sp, sp, #8
    826c:	e8bd47f0 	pop	{r4, r5, r6, r7, r8, r9, r10, lr}
    8270:	e12fff1e 	bx	lr
    8274:	e5937000 	ldr	r7, [r3]
    8278:	e5958000 	ldr	r8, [r5]
    827c:	ebfffd83 	bl	7890 <__locale_charset>
    8280:	e1a01006 	mov	r1, r6
    8284:	e88d0011 	stm	sp, {r0, r4}
    8288:	e59f2018 	ldr	r2, [pc, #24]	; 82a8 <mbrtowc+0xa4>
    828c:	e1a00008 	mov	r0, r8
    8290:	e3a03001 	mov	r3, #1
    8294:	e1a0e00f 	mov	lr, pc
    8298:	e12fff17 	bx	r7
    829c:	eaffffeb 	b	8250 <mbrtowc+0x4c>
    82a0:	00013c00 	.word	0x00013c00
    82a4:	000144c0 	.word	0x000144c0
    82a8:	00013800 	.word	0x00013800

000082ac <__ascii_mbtowc>:
    82ac:	e3510000 	cmp	r1, #0
    82b0:	e24dd008 	sub	sp, sp, #8
    82b4:	028d1004 	addeq	r1, sp, #4
    82b8:	e3520000 	cmp	r2, #0
    82bc:	0a000008 	beq	82e4 <__ascii_mbtowc+0x38>
    82c0:	e3530000 	cmp	r3, #0
    82c4:	0a000008 	beq	82ec <__ascii_mbtowc+0x40>
    82c8:	e5d23000 	ldrb	r3, [r2]
    82cc:	e5813000 	str	r3, [r1]
    82d0:	e5d20000 	ldrb	r0, [r2]
    82d4:	e2900000 	adds	r0, r0, #0
    82d8:	13a00001 	movne	r0, #1
    82dc:	e28dd008 	add	sp, sp, #8
    82e0:	e12fff1e 	bx	lr
    82e4:	e1a00002 	mov	r0, r2
    82e8:	eafffffb 	b	82dc <__ascii_mbtowc+0x30>
    82ec:	e3e00001 	mvn	r0, #1
    82f0:	eafffff9 	b	82dc <__ascii_mbtowc+0x30>

000082f4 <_mbtowc_r>:
    82f4:	e92d41f0 	push	{r4, r5, r6, r7, r8, lr}
    82f8:	e1a06003 	mov	r6, r3
    82fc:	e59f3040 	ldr	r3, [pc, #64]	; 8344 <_mbtowc_r+0x50>
    8300:	e24dd008 	sub	sp, sp, #8
    8304:	e1a05000 	mov	r5, r0
    8308:	e1a08001 	mov	r8, r1
    830c:	e1a07002 	mov	r7, r2
    8310:	e5934000 	ldr	r4, [r3]
    8314:	ebfffd5d 	bl	7890 <__locale_charset>
    8318:	e59d3020 	ldr	r3, [sp, #32]
    831c:	e1a01008 	mov	r1, r8
    8320:	e88d0009 	stm	sp, {r0, r3}
    8324:	e1a02007 	mov	r2, r7
    8328:	e1a00005 	mov	r0, r5
    832c:	e1a03006 	mov	r3, r6
    8330:	e1a0e00f 	mov	lr, pc
    8334:	e12fff14 	bx	r4
    8338:	e28dd008 	add	sp, sp, #8
    833c:	e8bd41f0 	pop	{r4, r5, r6, r7, r8, lr}
    8340:	e12fff1e 	bx	lr
    8344:	000144c0 	.word	0x000144c0

00008348 <memchr>:
    8348:	e3100003 	tst	r0, #3
    834c:	e92d0070 	push	{r4, r5, r6}
    8350:	e20110ff 	and	r1, r1, #255	; 0xff
    8354:	0a00003c 	beq	844c <memchr+0x104>
    8358:	e3520000 	cmp	r2, #0
    835c:	e242c001 	sub	r12, r2, #1
    8360:	0a00003b 	beq	8454 <memchr+0x10c>
    8364:	e5d03000 	ldrb	r3, [r0]
    8368:	e1530001 	cmp	r3, r1
    836c:	0a00001f 	beq	83f0 <memchr+0xa8>
    8370:	e2803001 	add	r3, r0, #1
    8374:	ea000006 	b	8394 <memchr+0x4c>
    8378:	e35c0000 	cmp	r12, #0
    837c:	0a00001d 	beq	83f8 <memchr+0xb0>
    8380:	e5d02000 	ldrb	r2, [r0]
    8384:	e1520001 	cmp	r2, r1
    8388:	e2833001 	add	r3, r3, #1
    838c:	e24cc001 	sub	r12, r12, #1
    8390:	0a000016 	beq	83f0 <memchr+0xa8>
    8394:	e3130003 	tst	r3, #3
    8398:	e1a00003 	mov	r0, r3
    839c:	1afffff5 	bne	8378 <memchr+0x30>
    83a0:	e35c0003 	cmp	r12, #3
    83a4:	8a000015 	bhi	8400 <memchr+0xb8>
    83a8:	e35c0000 	cmp	r12, #0
    83ac:	e24c4001 	sub	r4, r12, #1
    83b0:	0a000010 	beq	83f8 <memchr+0xb0>
    83b4:	e5d03000 	ldrb	r3, [r0]
    83b8:	e1530001 	cmp	r3, r1
    83bc:	0a00000b 	beq	83f0 <memchr+0xa8>
    83c0:	e2802001 	add	r2, r0, #1
    83c4:	e3a03000 	mov	r3, #0
    83c8:	ea000004 	b	83e0 <memchr+0x98>
    83cc:	e5d0c000 	ldrb	r12, [r0]
    83d0:	e15c0001 	cmp	r12, r1
    83d4:	e2822001 	add	r2, r2, #1
    83d8:	e2833001 	add	r3, r3, #1
    83dc:	0a000003 	beq	83f0 <memchr+0xa8>
    83e0:	e1540003 	cmp	r4, r3
    83e4:	e1a00002 	mov	r0, r2
    83e8:	1afffff7 	bne	83cc <memchr+0x84>
    83ec:	e3a00000 	mov	r0, #0
    83f0:	e8bd0070 	pop	{r4, r5, r6}
    83f4:	e12fff1e 	bx	lr
    83f8:	e1a0000c 	mov	r0, r12
    83fc:	eafffffb 	b	83f0 <memchr+0xa8>
    8400:	e1816401 	orr	r6, r1, r1, lsl #8
    8404:	e1866806 	orr	r6, r6, r6, lsl #16
    8408:	e5903000 	ldr	r3, [r0]
    840c:	e59f4048 	ldr	r4, [pc, #72]	; 845c <memchr+0x114>
    8410:	e0263003 	eor	r3, r6, r3
    8414:	e0834004 	add	r4, r3, r4
    8418:	e59f2040 	ldr	r2, [pc, #64]	; 8460 <memchr+0x118>
    841c:	e1c44003 	bic	r4, r4, r3
    8420:	e0042002 	and	r2, r4, r2
    8424:	e3520000 	cmp	r2, #0
    8428:	e1a05000 	mov	r5, r0
    842c:	e2800004 	add	r0, r0, #4
    8430:	1a000003 	bne	8444 <memchr+0xfc>
    8434:	e24cc004 	sub	r12, r12, #4
    8438:	e35c0003 	cmp	r12, #3
    843c:	8afffff1 	bhi	8408 <memchr+0xc0>
    8440:	eaffffd8 	b	83a8 <memchr+0x60>
    8444:	e1a00005 	mov	r0, r5
    8448:	eaffffd6 	b	83a8 <memchr+0x60>
    844c:	e1a0c002 	mov	r12, r2
    8450:	eaffffd2 	b	83a0 <memchr+0x58>
    8454:	e1a00002 	mov	r0, r2
    8458:	eaffffe4 	b	83f0 <memchr+0xa8>
    845c:	fefefeff 	.word	0xfefefeff
    8460:	80808080 	.word	0x80808080

00008464 <memcpy>:
    8464:	e3520003 	cmp	r2, #3
    8468:	e92d01f0 	push	{r4, r5, r6, r7, r8}
    846c:	8a000009 	bhi	8498 <memcpy+0x34>
    8470:	e3520000 	cmp	r2, #0
    8474:	0a000005 	beq	8490 <memcpy+0x2c>
    8478:	e3a03000 	mov	r3, #0
    847c:	e7d1c003 	ldrb	r12, [r1, r3]
    8480:	e7c0c003 	strb	r12, [r0, r3]
    8484:	e2833001 	add	r3, r3, #1
    8488:	e1530002 	cmp	r3, r2
    848c:	1afffffa 	bne	847c <memcpy+0x18>
    8490:	e8bd01f0 	pop	{r4, r5, r6, r7, r8}
    8494:	e12fff1e 	bx	lr
    8498:	e3100003 	tst	r0, #3
    849c:	e0802002 	add	r2, r0, r2
    84a0:	0a00000b 	beq	84d4 <memcpy+0x70>
    84a4:	e280c001 	add	r12, r0, #1
    84a8:	e2814001 	add	r4, r1, #1
    84ac:	e20c3003 	and	r3, r12, #3
    84b0:	e5545001 	ldrb	r5, [r4, #-1]
    84b4:	e3530000 	cmp	r3, #0
    84b8:	e1a01004 	mov	r1, r4
    84bc:	e1a0300c 	mov	r3, r12
    84c0:	e54c5001 	strb	r5, [r12, #-1]
    84c4:	e2844001 	add	r4, r4, #1
    84c8:	e28cc001 	add	r12, r12, #1
    84cc:	1afffff6 	bne	84ac <memcpy+0x48>
    84d0:	ea000000 	b	84d8 <memcpy+0x74>
    84d4:	e1a03000 	mov	r3, r0
    84d8:	e211c003 	ands	r12, r1, #3
    84dc:	1a00004f 	bne	8620 <memcpy+0x1bc>
    84e0:	e063c002 	rsb	r12, r3, r2
    84e4:	e35c003f 	cmp	r12, #63	; 0x3f
    84e8:	da000024 	ble	8580 <memcpy+0x11c>
    84ec:	e591c000 	ldr	r12, [r1]
    84f0:	e583c000 	str	r12, [r3]
    84f4:	e591c004 	ldr	r12, [r1, #4]
    84f8:	e583c004 	str	r12, [r3, #4]
    84fc:	e591c008 	ldr	r12, [r1, #8]
    8500:	e583c008 	str	r12, [r3, #8]
    8504:	e591c00c 	ldr	r12, [r1, #12]
    8508:	e583c00c 	str	r12, [r3, #12]
    850c:	e591c010 	ldr	r12, [r1, #16]
    8510:	e583c010 	str	r12, [r3, #16]
    8514:	e591c014 	ldr	r12, [r1, #20]
    8518:	e583c014 	str	r12, [r3, #20]
    851c:	e591c018 	ldr	r12, [r1, #24]
    8520:	e583c018 	str	r12, [r3, #24]
    8524:	e591c01c 	ldr	r12, [r1, #28]
    8528:	e583c01c 	str	r12, [r3, #28]
    852c:	e591c020 	ldr	r12, [r1, #32]
    8530:	e583c020 	str	r12, [r3, #32]
    8534:	e591c024 	ldr	r12, [r1, #36]	; 0x24
    8538:	e583c024 	str	r12, [r3, #36]	; 0x24
    853c:	e591c028 	ldr	r12, [r1, #40]	; 0x28
    8540:	e583c028 	str	r12, [r3, #40]	; 0x28
    8544:	e591c02c 	ldr	r12, [r1, #44]	; 0x2c
    8548:	e583c02c 	str	r12, [r3, #44]	; 0x2c
    854c:	e591c030 	ldr	r12, [r1, #48]	; 0x30
    8550:	e583c030 	str	r12, [r3, #48]	; 0x30
    8554:	e591c034 	ldr	r12, [r1, #52]	; 0x34
    8558:	e583c034 	str	r12, [r3, #52]	; 0x34
    855c:	e591c038 	ldr	r12, [r1, #56]	; 0x38
    8560:	e583c038 	str	r12, [r3, #56]	; 0x38
    8564:	e591c03c 	ldr	r12, [r1, #60]	; 0x3c
    8568:	e2833040 	add	r3, r3, #64	; 0x40
    856c:	e503c004 	str	r12, [r3, #-4]
    8570:	e063c002 	rsb	r12, r3, r2
    8574:	e35c003f 	cmp	r12, #63	; 0x3f
    8578:	e2811040 	add	r1, r1, #64	; 0x40
    857c:	caffffda 	bgt	84ec <memcpy+0x88>
    8580:	e35c000f 	cmp	r12, #15
    8584:	da00000c 	ble	85bc <memcpy+0x158>
    8588:	e591c000 	ldr	r12, [r1]
    858c:	e583c000 	str	r12, [r3]
    8590:	e591c004 	ldr	r12, [r1, #4]
    8594:	e583c004 	str	r12, [r3, #4]
    8598:	e591c008 	ldr	r12, [r1, #8]
    859c:	e583c008 	str	r12, [r3, #8]
    85a0:	e591c00c 	ldr	r12, [r1, #12]
    85a4:	e2833010 	add	r3, r3, #16
    85a8:	e503c004 	str	r12, [r3, #-4]
    85ac:	e063c002 	rsb	r12, r3, r2
    85b0:	e35c000f 	cmp	r12, #15
    85b4:	e2811010 	add	r1, r1, #16
    85b8:	cafffff2 	bgt	8588 <memcpy+0x124>
    85bc:	e35c0003 	cmp	r12, #3
    85c0:	da00000a 	ble	85f0 <memcpy+0x18c>
    85c4:	e283c004 	add	r12, r3, #4
    85c8:	e2814004 	add	r4, r1, #4
    85cc:	e06c3002 	rsb	r3, r12, r2
    85d0:	e5145004 	ldr	r5, [r4, #-4]
    85d4:	e3530003 	cmp	r3, #3
    85d8:	e1a01004 	mov	r1, r4
    85dc:	e1a0300c 	mov	r3, r12
    85e0:	e50c5004 	str	r5, [r12, #-4]
    85e4:	e2844004 	add	r4, r4, #4
    85e8:	e28cc004 	add	r12, r12, #4
    85ec:	cafffff6 	bgt	85cc <memcpy+0x168>
    85f0:	e1520003 	cmp	r2, r3
    85f4:	82833001 	addhi	r3, r3, #1
    85f8:	82811001 	addhi	r1, r1, #1
    85fc:	82822001 	addhi	r2, r2, #1
    8600:	9affffa2 	bls	8490 <memcpy+0x2c>
    8604:	e551c001 	ldrb	r12, [r1, #-1]
    8608:	e2833001 	add	r3, r3, #1
    860c:	e1530002 	cmp	r3, r2
    8610:	e543c002 	strb	r12, [r3, #-2]
    8614:	e2811001 	add	r1, r1, #1
    8618:	1afffff9 	bne	8604 <memcpy+0x1a0>
    861c:	eaffff9b 	b	8490 <memcpy+0x2c>
    8620:	e0635002 	rsb	r5, r3, r2
    8624:	e06c4001 	rsb	r4, r12, r1
    8628:	e3550003 	cmp	r5, #3
    862c:	e5945000 	ldr	r5, [r4]
    8630:	daffffee 	ble	85f0 <memcpy+0x18c>
    8634:	e26c6004 	rsb	r6, r12, #4
    8638:	e1a0718c 	lsl	r7, r12, #3
    863c:	e1a06186 	lsl	r6, r6, #3
    8640:	e283c004 	add	r12, r3, #4
    8644:	e1a08735 	lsr	r8, r5, r7
    8648:	e5b45004 	ldr	r5, [r4, #4]!
    864c:	e1888615 	orr	r8, r8, r5, lsl r6
    8650:	e06c3002 	rsb	r3, r12, r2
    8654:	e3530003 	cmp	r3, #3
    8658:	e50c8004 	str	r8, [r12, #-4]
    865c:	e1a0300c 	mov	r3, r12
    8660:	e2811004 	add	r1, r1, #4
    8664:	e28cc004 	add	r12, r12, #4
    8668:	cafffff5 	bgt	8644 <memcpy+0x1e0>
    866c:	eaffffdf 	b	85f0 <memcpy+0x18c>

00008670 <memmove>:
    8670:	e1500001 	cmp	r0, r1
    8674:	e92d00f0 	push	{r4, r5, r6, r7}
    8678:	9a00000e 	bls	86b8 <memmove+0x48>
    867c:	e081c002 	add	r12, r1, r2
    8680:	e150000c 	cmp	r0, r12
    8684:	2a00000b 	bcs	86b8 <memmove+0x48>
    8688:	e3520000 	cmp	r2, #0
    868c:	e0803002 	add	r3, r0, r2
    8690:	e2422001 	sub	r2, r2, #1
    8694:	0a000005 	beq	86b0 <memmove+0x40>
    8698:	e1a0100c 	mov	r1, r12
    869c:	e571c001 	ldrb	r12, [r1, #-1]!
    86a0:	e2422001 	sub	r2, r2, #1
    86a4:	e3720001 	cmn	r2, #1
    86a8:	e563c001 	strb	r12, [r3, #-1]!
    86ac:	1afffffa 	bne	869c <memmove+0x2c>
    86b0:	e8bd00f0 	pop	{r4, r5, r6, r7}
    86b4:	e12fff1e 	bx	lr
    86b8:	e352000f 	cmp	r2, #15
    86bc:	8a000009 	bhi	86e8 <memmove+0x78>
    86c0:	e1a03000 	mov	r3, r0
    86c4:	e3520000 	cmp	r2, #0
    86c8:	0afffff8 	beq	86b0 <memmove+0x40>
    86cc:	e2411001 	sub	r1, r1, #1
    86d0:	e0832002 	add	r2, r3, r2
    86d4:	e5f1c001 	ldrb	r12, [r1, #1]!
    86d8:	e4c3c001 	strb	r12, [r3], #1
    86dc:	e1530002 	cmp	r3, r2
    86e0:	1afffffb 	bne	86d4 <memmove+0x64>
    86e4:	eafffff1 	b	86b0 <memmove+0x40>
    86e8:	e1813000 	orr	r3, r1, r0
    86ec:	e3130003 	tst	r3, #3
    86f0:	1a000027 	bne	8794 <memmove+0x124>
    86f4:	e1a0c001 	mov	r12, r1
    86f8:	e1a03000 	mov	r3, r0
    86fc:	e1a04002 	mov	r4, r2
    8700:	e59c5000 	ldr	r5, [r12]
    8704:	e5835000 	str	r5, [r3]
    8708:	e59c5004 	ldr	r5, [r12, #4]
    870c:	e5835004 	str	r5, [r3, #4]
    8710:	e59c5008 	ldr	r5, [r12, #8]
    8714:	e5835008 	str	r5, [r3, #8]
    8718:	e2444010 	sub	r4, r4, #16
    871c:	e59c500c 	ldr	r5, [r12, #12]
    8720:	e354000f 	cmp	r4, #15
    8724:	e583500c 	str	r5, [r3, #12]
    8728:	e28cc010 	add	r12, r12, #16
    872c:	e2833010 	add	r3, r3, #16
    8730:	8afffff2 	bhi	8700 <memmove+0x90>
    8734:	e2424010 	sub	r4, r2, #16
    8738:	e3c4400f 	bic	r4, r4, #15
    873c:	e202c00f 	and	r12, r2, #15
    8740:	e2844010 	add	r4, r4, #16
    8744:	e35c0003 	cmp	r12, #3
    8748:	e0803004 	add	r3, r0, r4
    874c:	e0811004 	add	r1, r1, r4
    8750:	9a000011 	bls	879c <memmove+0x12c>
    8754:	e24cc004 	sub	r12, r12, #4
    8758:	e1a0712c 	lsr	r7, r12, #2
    875c:	e0816107 	add	r6, r1, r7, lsl #2
    8760:	e1a0c001 	mov	r12, r1
    8764:	e2866004 	add	r6, r6, #4
    8768:	e1a04003 	mov	r4, r3
    876c:	e49c5004 	ldr	r5, [r12], #4
    8770:	e15c0006 	cmp	r12, r6
    8774:	e4845004 	str	r5, [r4], #4
    8778:	1afffffb 	bne	876c <memmove+0xfc>
    877c:	e287c001 	add	r12, r7, #1
    8780:	e1a0c10c 	lsl	r12, r12, #2
    8784:	e2022003 	and	r2, r2, #3
    8788:	e081100c 	add	r1, r1, r12
    878c:	e083300c 	add	r3, r3, r12
    8790:	eaffffcb 	b	86c4 <memmove+0x54>
    8794:	e1a03000 	mov	r3, r0
    8798:	eaffffcb 	b	86cc <memmove+0x5c>
    879c:	e1a0200c 	mov	r2, r12
    87a0:	eaffffc7 	b	86c4 <memmove+0x54>

000087a4 <memset>:
    87a4:	e3520003 	cmp	r2, #3
    87a8:	e52d4004 	push	{r4}		; (str r4, [sp, #-4]!)
    87ac:	e20110ff 	and	r1, r1, #255	; 0xff
    87b0:	8a000008 	bhi	87d8 <memset+0x34>
    87b4:	e3520000 	cmp	r2, #0
    87b8:	0a000004 	beq	87d0 <memset+0x2c>
    87bc:	e1a03000 	mov	r3, r0
    87c0:	e0822000 	add	r2, r2, r0
    87c4:	e4c31001 	strb	r1, [r3], #1
    87c8:	e1530002 	cmp	r3, r2
    87cc:	1afffffc 	bne	87c4 <memset+0x20>
    87d0:	e8bd0010 	ldmfd	sp!, {r4}
    87d4:	e12fff1e 	bx	lr
    87d8:	e3100003 	tst	r0, #3
    87dc:	e0802002 	add	r2, r0, r2
    87e0:	0a000007 	beq	8804 <memset+0x60>
    87e4:	e280c001 	add	r12, r0, #1
    87e8:	e20c3003 	and	r3, r12, #3
    87ec:	e3530000 	cmp	r3, #0
    87f0:	e54c1001 	strb	r1, [r12, #-1]
    87f4:	e1a0300c 	mov	r3, r12
    87f8:	e28cc001 	add	r12, r12, #1
    87fc:	1afffff9 	bne	87e8 <memset+0x44>
    8800:	ea000000 	b	8808 <memset+0x64>
    8804:	e1a03000 	mov	r3, r0
    8808:	e0634002 	rsb	r4, r3, r2
    880c:	e081c401 	add	r12, r1, r1, lsl #8
    8810:	e354003f 	cmp	r4, #63	; 0x3f
    8814:	e08cc80c 	add	r12, r12, r12, lsl #16
    8818:	da00001a 	ble	8888 <memset+0xe4>
    881c:	e583c000 	str	r12, [r3]
    8820:	e583c004 	str	r12, [r3, #4]
    8824:	e583c008 	str	r12, [r3, #8]
    8828:	e583c00c 	str	r12, [r3, #12]
    882c:	e583c010 	str	r12, [r3, #16]
    8830:	e583c014 	str	r12, [r3, #20]
    8834:	e583c018 	str	r12, [r3, #24]
    8838:	e583c01c 	str	r12, [r3, #28]
    883c:	e583c020 	str	r12, [r3, #32]
    8840:	e583c024 	str	r12, [r3, #36]	; 0x24
    8844:	e583c028 	str	r12, [r3, #40]	; 0x28
    8848:	e583c02c 	str	r12, [r3, #44]	; 0x2c
    884c:	e583c030 	str	r12, [r3, #48]	; 0x30
    8850:	e583c034 	str	r12, [r3, #52]	; 0x34
    8854:	e583c038 	str	r12, [r3, #56]	; 0x38
    8858:	e583c03c 	str	r12, [r3, #60]	; 0x3c
    885c:	e2833040 	add	r3, r3, #64	; 0x40
    8860:	e0634002 	rsb	r4, r3, r2
    8864:	e354003f 	cmp	r4, #63	; 0x3f
    8868:	caffffeb 	bgt	881c <memset+0x78>
    886c:	ea000005 	b	8888 <memset+0xe4>
    8870:	e583c000 	str	r12, [r3]
    8874:	e583c004 	str	r12, [r3, #4]
    8878:	e583c008 	str	r12, [r3, #8]
    887c:	e583c00c 	str	r12, [r3, #12]
    8880:	e2833010 	add	r3, r3, #16
    8884:	e0634002 	rsb	r4, r3, r2
    8888:	e354000f 	cmp	r4, #15
    888c:	cafffff7 	bgt	8870 <memset+0xcc>
    8890:	e3540003 	cmp	r4, #3
    8894:	da000006 	ble	88b4 <memset+0x110>
    8898:	e2834004 	add	r4, r3, #4
    889c:	e0643002 	rsb	r3, r4, r2
    88a0:	e3530003 	cmp	r3, #3
    88a4:	e504c004 	str	r12, [r4, #-4]
    88a8:	e1a03004 	mov	r3, r4
    88ac:	e2844004 	add	r4, r4, #4
    88b0:	cafffff9 	bgt	889c <memset+0xf8>
    88b4:	e1520003 	cmp	r2, r3
    88b8:	9affffc4 	bls	87d0 <memset+0x2c>
    88bc:	e2833001 	add	r3, r3, #1
    88c0:	e2822001 	add	r2, r2, #1
    88c4:	e5431001 	strb	r1, [r3, #-1]
    88c8:	e2833001 	add	r3, r3, #1
    88cc:	e1530002 	cmp	r3, r2
    88d0:	1afffffb 	bne	88c4 <memset+0x120>
    88d4:	eaffffbd 	b	87d0 <memset+0x2c>

000088d8 <__malloc_lock>:
    88d8:	e12fff1e 	bx	lr

000088dc <__malloc_unlock>:
    88dc:	e12fff1e 	bx	lr

000088e0 <_Balloc>:
    88e0:	e590304c 	ldr	r3, [r0, #76]	; 0x4c
    88e4:	e3530000 	cmp	r3, #0
    88e8:	e92d4070 	push	{r4, r5, r6, lr}
    88ec:	e1a05000 	mov	r5, r0
    88f0:	e1a04001 	mov	r4, r1
    88f4:	0a000009 	beq	8920 <_Balloc+0x40>
    88f8:	e7930104 	ldr	r0, [r3, r4, lsl #2]
    88fc:	e3500000 	cmp	r0, #0
    8900:	0a00000f 	beq	8944 <_Balloc+0x64>
    8904:	e5902000 	ldr	r2, [r0]
    8908:	e7832104 	str	r2, [r3, r4, lsl #2]
    890c:	e3a03000 	mov	r3, #0
    8910:	e5803010 	str	r3, [r0, #16]
    8914:	e580300c 	str	r3, [r0, #12]
    8918:	e8bd4070 	pop	{r4, r5, r6, lr}
    891c:	e12fff1e 	bx	lr
    8920:	e3a01004 	mov	r1, #4
    8924:	e3a02021 	mov	r2, #33	; 0x21
    8928:	eb001b9f 	bl	f7ac <_calloc_r>
    892c:	e3500000 	cmp	r0, #0
    8930:	e1a03000 	mov	r3, r0
    8934:	e585004c 	str	r0, [r5, #76]	; 0x4c
    8938:	1affffee 	bne	88f8 <_Balloc+0x18>
    893c:	e3a00000 	mov	r0, #0
    8940:	eafffff4 	b	8918 <_Balloc+0x38>
    8944:	e3a01001 	mov	r1, #1
    8948:	e1a06411 	lsl	r6, r1, r4
    894c:	e2862005 	add	r2, r6, #5
    8950:	e1a00005 	mov	r0, r5
    8954:	e1a02102 	lsl	r2, r2, #2
    8958:	eb001b93 	bl	f7ac <_calloc_r>
    895c:	e3500000 	cmp	r0, #0
    8960:	0afffff5 	beq	893c <_Balloc+0x5c>
    8964:	e9800050 	stmib	r0, {r4, r6}
    8968:	eaffffe7 	b	890c <_Balloc+0x2c>

0000896c <_Bfree>:
    896c:	e3510000 	cmp	r1, #0
    8970:	1590304c 	ldrne	r3, [r0, #76]	; 0x4c
    8974:	15912004 	ldrne	r2, [r1, #4]
    8978:	17930102 	ldrne	r0, [r3, r2, lsl #2]
    897c:	15810000 	strne	r0, [r1]
    8980:	17831102 	strne	r1, [r3, r2, lsl #2]
    8984:	e12fff1e 	bx	lr

00008988 <__multadd>:
    8988:	e92d45f0 	push	{r4, r5, r6, r7, r8, r10, lr}
    898c:	e5917010 	ldr	r7, [r1, #16]
    8990:	e24dd00c 	sub	sp, sp, #12
    8994:	e1a08001 	mov	r8, r1
    8998:	e1a0a000 	mov	r10, r0
    899c:	e2814014 	add	r4, r1, #20
    89a0:	e3a0c000 	mov	r12, #0
    89a4:	e5946000 	ldr	r6, [r4]
    89a8:	e1a05806 	lsl	r5, r6, #16
    89ac:	e1a05825 	lsr	r5, r5, #16
    89b0:	e0253592 	mla	r5, r2, r5, r3
    89b4:	e1a03826 	lsr	r3, r6, #16
    89b8:	e0030392 	mul	r3, r2, r3
    89bc:	e1a01805 	lsl	r1, r5, #16
    89c0:	e0833825 	add	r3, r3, r5, lsr #16
    89c4:	e1a01821 	lsr	r1, r1, #16
    89c8:	e28cc001 	add	r12, r12, #1
    89cc:	e0811803 	add	r1, r1, r3, lsl #16
    89d0:	e157000c 	cmp	r7, r12
    89d4:	e1a03823 	lsr	r3, r3, #16
    89d8:	e4841004 	str	r1, [r4], #4
    89dc:	cafffff0 	bgt	89a4 <__multadd+0x1c>
    89e0:	e3530000 	cmp	r3, #0
    89e4:	0a000006 	beq	8a04 <__multadd+0x7c>
    89e8:	e5982008 	ldr	r2, [r8, #8]
    89ec:	e1570002 	cmp	r7, r2
    89f0:	aa000007 	bge	8a14 <__multadd+0x8c>
    89f4:	e0882107 	add	r2, r8, r7, lsl #2
    89f8:	e2877001 	add	r7, r7, #1
    89fc:	e5823014 	str	r3, [r2, #20]
    8a00:	e5887010 	str	r7, [r8, #16]
    8a04:	e1a00008 	mov	r0, r8
    8a08:	e28dd00c 	add	sp, sp, #12
    8a0c:	e8bd45f0 	pop	{r4, r5, r6, r7, r8, r10, lr}
    8a10:	e12fff1e 	bx	lr
    8a14:	e5981004 	ldr	r1, [r8, #4]
    8a18:	e1a0000a 	mov	r0, r10
    8a1c:	e2811001 	add	r1, r1, #1
    8a20:	e58d3004 	str	r3, [sp, #4]
    8a24:	ebffffad 	bl	88e0 <_Balloc>
    8a28:	e5982010 	ldr	r2, [r8, #16]
    8a2c:	e2822002 	add	r2, r2, #2
    8a30:	e288100c 	add	r1, r8, #12
    8a34:	e1a04000 	mov	r4, r0
    8a38:	e1a02102 	lsl	r2, r2, #2
    8a3c:	e280000c 	add	r0, r0, #12
    8a40:	ebfffe87 	bl	8464 <memcpy>
    8a44:	e5981004 	ldr	r1, [r8, #4]
    8a48:	e59a204c 	ldr	r2, [r10, #76]	; 0x4c
    8a4c:	e7920101 	ldr	r0, [r2, r1, lsl #2]
    8a50:	e59d3004 	ldr	r3, [sp, #4]
    8a54:	e5880000 	str	r0, [r8]
    8a58:	e7828101 	str	r8, [r2, r1, lsl #2]
    8a5c:	e1a08004 	mov	r8, r4
    8a60:	eaffffe3 	b	89f4 <__multadd+0x6c>

00008a64 <__s2b>:
    8a64:	e92d45f8 	push	{r3, r4, r5, r6, r7, r8, r10, lr}
    8a68:	e283c008 	add	r12, r3, #8
    8a6c:	e1a07003 	mov	r7, r3
    8a70:	e59f30d8 	ldr	r3, [pc, #216]	; 8b50 <__s2b+0xec>
    8a74:	e0c3e39c 	smull	lr, r3, r12, r3
    8a78:	e1a0cfcc 	asr	r12, r12, #31
    8a7c:	e06c30c3 	rsb	r3, r12, r3, asr #1
    8a80:	e3530001 	cmp	r3, #1
    8a84:	e1a05000 	mov	r5, r0
    8a88:	e1a04001 	mov	r4, r1
    8a8c:	e1a08002 	mov	r8, r2
    8a90:	da00002c 	ble	8b48 <__s2b+0xe4>
    8a94:	e3a0c001 	mov	r12, #1
    8a98:	e3a01000 	mov	r1, #0
    8a9c:	e1a0c08c 	lsl	r12, r12, #1
    8aa0:	e153000c 	cmp	r3, r12
    8aa4:	e2811001 	add	r1, r1, #1
    8aa8:	cafffffb 	bgt	8a9c <__s2b+0x38>
    8aac:	e1a00005 	mov	r0, r5
    8ab0:	ebffff8a 	bl	88e0 <_Balloc>
    8ab4:	e59d3020 	ldr	r3, [sp, #32]
    8ab8:	e3580009 	cmp	r8, #9
    8abc:	e5803014 	str	r3, [r0, #20]
    8ac0:	e3a03001 	mov	r3, #1
    8ac4:	e1a01000 	mov	r1, r0
    8ac8:	e5803010 	str	r3, [r0, #16]
    8acc:	d284400a 	addle	r4, r4, #10
    8ad0:	d3a08009 	movle	r8, #9
    8ad4:	da00000c 	ble	8b0c <__s2b+0xa8>
    8ad8:	e284a009 	add	r10, r4, #9
    8adc:	e1a0600a 	mov	r6, r10
    8ae0:	e0844008 	add	r4, r4, r8
    8ae4:	e4d63001 	ldrb	r3, [r6], #1
    8ae8:	e1a00005 	mov	r0, r5
    8aec:	e3a0200a 	mov	r2, #10
    8af0:	e2433030 	sub	r3, r3, #48	; 0x30
    8af4:	ebffffa3 	bl	8988 <__multadd>
    8af8:	e1560004 	cmp	r6, r4
    8afc:	e1a01000 	mov	r1, r0
    8b00:	1afffff7 	bne	8ae4 <__s2b+0x80>
    8b04:	e08a4008 	add	r4, r10, r8
    8b08:	e2444008 	sub	r4, r4, #8
    8b0c:	e1570008 	cmp	r7, r8
    8b10:	da000009 	ble	8b3c <__s2b+0xd8>
    8b14:	e0687007 	rsb	r7, r8, r7
    8b18:	e0847007 	add	r7, r4, r7
    8b1c:	e4d43001 	ldrb	r3, [r4], #1
    8b20:	e1a00005 	mov	r0, r5
    8b24:	e3a0200a 	mov	r2, #10
    8b28:	e2433030 	sub	r3, r3, #48	; 0x30
    8b2c:	ebffff95 	bl	8988 <__multadd>
    8b30:	e1540007 	cmp	r4, r7
    8b34:	e1a01000 	mov	r1, r0
    8b38:	1afffff7 	bne	8b1c <__s2b+0xb8>
    8b3c:	e1a00001 	mov	r0, r1
    8b40:	e8bd45f8 	pop	{r3, r4, r5, r6, r7, r8, r10, lr}
    8b44:	e12fff1e 	bx	lr
    8b48:	e3a01000 	mov	r1, #0
    8b4c:	eaffffd6 	b	8aac <__s2b+0x48>
    8b50:	38e38e39 	.word	0x38e38e39

00008b54 <__hi0bits>:
    8b54:	e1b02820 	lsrs	r2, r0, #16
    8b58:	e1a03000 	mov	r3, r0
    8b5c:	01a03800 	lsleq	r3, r0, #16
    8b60:	13a00000 	movne	r0, #0
    8b64:	03a00010 	moveq	r0, #16
    8b68:	e31304ff 	tst	r3, #-16777216	; 0xff000000
    8b6c:	01a03403 	lsleq	r3, r3, #8
    8b70:	02800008 	addeq	r0, r0, #8
    8b74:	e313020f 	tst	r3, #-268435456	; 0xf0000000
    8b78:	01a03203 	lsleq	r3, r3, #4
    8b7c:	02800004 	addeq	r0, r0, #4
    8b80:	e3130103 	tst	r3, #-1073741824	; 0xc0000000
    8b84:	01a03103 	lsleq	r3, r3, #2
    8b88:	02800002 	addeq	r0, r0, #2
    8b8c:	e3530000 	cmp	r3, #0
    8b90:	b12fff1e 	bxlt	lr
    8b94:	e3130101 	tst	r3, #1073741824	; 0x40000000
    8b98:	12800001 	addne	r0, r0, #1
    8b9c:	03a00020 	moveq	r0, #32
    8ba0:	e12fff1e 	bx	lr

00008ba4 <__lo0bits>:
    8ba4:	e5903000 	ldr	r3, [r0]
    8ba8:	e1a02000 	mov	r2, r0
    8bac:	e2130007 	ands	r0, r3, #7
    8bb0:	0a000009 	beq	8bdc <__lo0bits+0x38>
    8bb4:	e3130001 	tst	r3, #1
    8bb8:	1a00001c 	bne	8c30 <__lo0bits+0x8c>
    8bbc:	e3130002 	tst	r3, #2
    8bc0:	11a030a3 	lsrne	r3, r3, #1
    8bc4:	01a03123 	lsreq	r3, r3, #2
    8bc8:	13a00001 	movne	r0, #1
    8bcc:	15823000 	strne	r3, [r2]
    8bd0:	05823000 	streq	r3, [r2]
    8bd4:	03a00002 	moveq	r0, #2
    8bd8:	e12fff1e 	bx	lr
    8bdc:	e1b01803 	lsls	r1, r3, #16
    8be0:	01a03823 	lsreq	r3, r3, #16
    8be4:	03a00010 	moveq	r0, #16
    8be8:	e31300ff 	tst	r3, #255	; 0xff
    8bec:	01a03423 	lsreq	r3, r3, #8
    8bf0:	02800008 	addeq	r0, r0, #8
    8bf4:	e313000f 	tst	r3, #15
    8bf8:	01a03223 	lsreq	r3, r3, #4
    8bfc:	02800004 	addeq	r0, r0, #4
    8c00:	e3130003 	tst	r3, #3
    8c04:	01a03123 	lsreq	r3, r3, #2
    8c08:	02800002 	addeq	r0, r0, #2
    8c0c:	e3130001 	tst	r3, #1
    8c10:	1a000004 	bne	8c28 <__lo0bits+0x84>
    8c14:	e1b030a3 	lsrs	r3, r3, #1
    8c18:	1a000001 	bne	8c24 <__lo0bits+0x80>
    8c1c:	e3a00020 	mov	r0, #32
    8c20:	e12fff1e 	bx	lr
    8c24:	e2800001 	add	r0, r0, #1
    8c28:	e5823000 	str	r3, [r2]
    8c2c:	e12fff1e 	bx	lr
    8c30:	e3a00000 	mov	r0, #0
    8c34:	e12fff1e 	bx	lr

00008c38 <__i2b>:
    8c38:	e92d4010 	push	{r4, lr}
    8c3c:	e1a04001 	mov	r4, r1
    8c40:	e3a01001 	mov	r1, #1
    8c44:	ebffff25 	bl	88e0 <_Balloc>
    8c48:	e3a02001 	mov	r2, #1
    8c4c:	e5804014 	str	r4, [r0, #20]
    8c50:	e5802010 	str	r2, [r0, #16]
    8c54:	e8bd4010 	pop	{r4, lr}
    8c58:	e12fff1e 	bx	lr

00008c5c <__multiply>:
    8c5c:	e92d4ff0 	push	{r4, r5, r6, r7, r8, r9, r10, r11, lr}
    8c60:	e5918010 	ldr	r8, [r1, #16]
    8c64:	e592a010 	ldr	r10, [r2, #16]
    8c68:	e158000a 	cmp	r8, r10
    8c6c:	e24dd014 	sub	sp, sp, #20
    8c70:	e1a06001 	mov	r6, r1
    8c74:	e1a04002 	mov	r4, r2
    8c78:	aa000004 	bge	8c90 <__multiply+0x34>
    8c7c:	e1a02008 	mov	r2, r8
    8c80:	e1a06004 	mov	r6, r4
    8c84:	e1a0800a 	mov	r8, r10
    8c88:	e1a04001 	mov	r4, r1
    8c8c:	e1a0a002 	mov	r10, r2
    8c90:	e5963008 	ldr	r3, [r6, #8]
    8c94:	e088500a 	add	r5, r8, r10
    8c98:	e5961004 	ldr	r1, [r6, #4]
    8c9c:	e1550003 	cmp	r5, r3
    8ca0:	c2811001 	addgt	r1, r1, #1
    8ca4:	ebffff0d 	bl	88e0 <_Balloc>
    8ca8:	e0807105 	add	r7, r0, r5, lsl #2
    8cac:	e2803014 	add	r3, r0, #20
    8cb0:	e2877014 	add	r7, r7, #20
    8cb4:	e1530007 	cmp	r3, r7
    8cb8:	e58d0004 	str	r0, [sp, #4]
    8cbc:	33a00000 	movcc	r0, #0
    8cc0:	2a000002 	bcs	8cd0 <__multiply+0x74>
    8cc4:	e4830004 	str	r0, [r3], #4
    8cc8:	e1570003 	cmp	r7, r3
    8ccc:	8afffffc 	bhi	8cc4 <__multiply+0x68>
    8cd0:	e084a10a 	add	r10, r4, r10, lsl #2
    8cd4:	e28aa014 	add	r10, r10, #20
    8cd8:	e2844014 	add	r4, r4, #20
    8cdc:	e086c108 	add	r12, r6, r8, lsl #2
    8ce0:	e154000a 	cmp	r4, r10
    8ce4:	e2863014 	add	r3, r6, #20
    8ce8:	e28cc014 	add	r12, r12, #20
    8cec:	2a000041 	bcs	8df8 <__multiply+0x19c>
    8cf0:	e59d2004 	ldr	r2, [sp, #4]
    8cf4:	e58d7008 	str	r7, [sp, #8]
    8cf8:	e58d500c 	str	r5, [sp, #12]
    8cfc:	e2826018 	add	r6, r2, #24
    8d00:	e1a0700a 	mov	r7, r10
    8d04:	e1a05003 	mov	r5, r3
    8d08:	e4948004 	ldr	r8, [r4], #4
    8d0c:	e1a0a808 	lsl	r10, r8, #16
    8d10:	e1b0a82a 	lsrs	r10, r10, #16
    8d14:	0a000017 	beq	8d78 <__multiply+0x11c>
    8d18:	e1a02005 	mov	r2, r5
    8d1c:	e2463004 	sub	r3, r6, #4
    8d20:	e3a08000 	mov	r8, #0
    8d24:	e4920004 	ldr	r0, [r2], #4
    8d28:	e5931000 	ldr	r1, [r3]
    8d2c:	e1a0b800 	lsl	r11, r0, #16
    8d30:	e1a09801 	lsl	r9, r1, #16
    8d34:	e1a0b82b 	lsr	r11, r11, #16
    8d38:	e1a09829 	lsr	r9, r9, #16
    8d3c:	e0299b9a 	mla	r9, r10, r11, r9
    8d40:	e1a01821 	lsr	r1, r1, #16
    8d44:	e1a00820 	lsr	r0, r0, #16
    8d48:	e020109a 	mla	r0, r10, r0, r1
    8d4c:	e0898008 	add	r8, r9, r8
    8d50:	e1a01808 	lsl	r1, r8, #16
    8d54:	e1a01821 	lsr	r1, r1, #16
    8d58:	e0808828 	add	r8, r0, r8, lsr #16
    8d5c:	e1811808 	orr	r1, r1, r8, lsl #16
    8d60:	e15c0002 	cmp	r12, r2
    8d64:	e1a08828 	lsr	r8, r8, #16
    8d68:	e4831004 	str	r1, [r3], #4
    8d6c:	8affffec 	bhi	8d24 <__multiply+0xc8>
    8d70:	e5838000 	str	r8, [r3]
    8d74:	e5148004 	ldr	r8, [r4, #-4]
    8d78:	e1b08828 	lsrs	r8, r8, #16
    8d7c:	0a000018 	beq	8de4 <__multiply+0x188>
    8d80:	e516a004 	ldr	r10, [r6, #-4]
    8d84:	e1a02005 	mov	r2, r5
    8d88:	e1a03006 	mov	r3, r6
    8d8c:	e1a0100a 	mov	r1, r10
    8d90:	e3a09000 	mov	r9, #0
    8d94:	e1d200b0 	ldrh	r0, [r2]
    8d98:	e1a01821 	lsr	r1, r1, #16
    8d9c:	e0211098 	mla	r1, r8, r0, r1
    8da0:	e1a0a80a 	lsl	r10, r10, #16
    8da4:	e0819009 	add	r9, r1, r9
    8da8:	e1a0a82a 	lsr	r10, r10, #16
    8dac:	e18aa809 	orr	r10, r10, r9, lsl #16
    8db0:	e503a004 	str	r10, [r3, #-4]
    8db4:	e1a0b003 	mov	r11, r3
    8db8:	e4931004 	ldr	r1, [r3], #4
    8dbc:	e492a004 	ldr	r10, [r2], #4
    8dc0:	e1a00801 	lsl	r0, r1, #16
    8dc4:	e1a0a82a 	lsr	r10, r10, #16
    8dc8:	e1a00820 	lsr	r0, r0, #16
    8dcc:	e02a0a98 	mla	r10, r8, r10, r0
    8dd0:	e15c0002 	cmp	r12, r2
    8dd4:	e08aa829 	add	r10, r10, r9, lsr #16
    8dd8:	e1a0982a 	lsr	r9, r10, #16
    8ddc:	8affffec 	bhi	8d94 <__multiply+0x138>
    8de0:	e58ba000 	str	r10, [r11]
    8de4:	e1570004 	cmp	r7, r4
    8de8:	e2866004 	add	r6, r6, #4
    8dec:	8affffc5 	bhi	8d08 <__multiply+0xac>
    8df0:	e59d7008 	ldr	r7, [sp, #8]
    8df4:	e59d500c 	ldr	r5, [sp, #12]
    8df8:	e3550000 	cmp	r5, #0
    8dfc:	da000009 	ble	8e28 <__multiply+0x1cc>
    8e00:	e5173004 	ldr	r3, [r7, #-4]
    8e04:	e3530000 	cmp	r3, #0
    8e08:	e2477004 	sub	r7, r7, #4
    8e0c:	0a000003 	beq	8e20 <__multiply+0x1c4>
    8e10:	ea000004 	b	8e28 <__multiply+0x1cc>
    8e14:	e5373004 	ldr	r3, [r7, #-4]!
    8e18:	e3530000 	cmp	r3, #0
    8e1c:	1a000001 	bne	8e28 <__multiply+0x1cc>
    8e20:	e2555001 	subs	r5, r5, #1
    8e24:	1afffffa 	bne	8e14 <__multiply+0x1b8>
    8e28:	e59d3004 	ldr	r3, [sp, #4]
    8e2c:	e5835010 	str	r5, [r3, #16]
    8e30:	e1a00003 	mov	r0, r3
    8e34:	e28dd014 	add	sp, sp, #20
    8e38:	e8bd4ff0 	pop	{r4, r5, r6, r7, r8, r9, r10, r11, lr}
    8e3c:	e12fff1e 	bx	lr

00008e40 <__pow5mult>:
    8e40:	e2123003 	ands	r3, r2, #3
    8e44:	e92d41f0 	push	{r4, r5, r6, r7, r8, lr}
    8e48:	e1a04002 	mov	r4, r2
    8e4c:	e1a08000 	mov	r8, r0
    8e50:	e1a07001 	mov	r7, r1
    8e54:	1a000025 	bne	8ef0 <__pow5mult+0xb0>
    8e58:	e1b04144 	asrs	r4, r4, #2
    8e5c:	0a000018 	beq	8ec4 <__pow5mult+0x84>
    8e60:	e5986048 	ldr	r6, [r8, #72]	; 0x48
    8e64:	e3560000 	cmp	r6, #0
    8e68:	1a000006 	bne	8e88 <__pow5mult+0x48>
    8e6c:	ea000026 	b	8f0c <__pow5mult+0xcc>
    8e70:	e1b040c4 	asrs	r4, r4, #1
    8e74:	0a000012 	beq	8ec4 <__pow5mult+0x84>
    8e78:	e5965000 	ldr	r5, [r6]
    8e7c:	e3550000 	cmp	r5, #0
    8e80:	11a06005 	movne	r6, r5
    8e84:	0a000011 	beq	8ed0 <__pow5mult+0x90>
    8e88:	e3140001 	tst	r4, #1
    8e8c:	0afffff7 	beq	8e70 <__pow5mult+0x30>
    8e90:	e1a01007 	mov	r1, r7
    8e94:	e1a02006 	mov	r2, r6
    8e98:	e1a00008 	mov	r0, r8
    8e9c:	ebffff6e 	bl	8c5c <__multiply>
    8ea0:	e3570000 	cmp	r7, #0
    8ea4:	15972004 	ldrne	r2, [r7, #4]
    8ea8:	1598304c 	ldrne	r3, [r8, #76]	; 0x4c
    8eac:	17931102 	ldrne	r1, [r3, r2, lsl #2]
    8eb0:	15871000 	strne	r1, [r7]
    8eb4:	17837102 	strne	r7, [r3, r2, lsl #2]
    8eb8:	e1b040c4 	asrs	r4, r4, #1
    8ebc:	e1a07000 	mov	r7, r0
    8ec0:	1affffec 	bne	8e78 <__pow5mult+0x38>
    8ec4:	e1a00007 	mov	r0, r7
    8ec8:	e8bd41f0 	pop	{r4, r5, r6, r7, r8, lr}
    8ecc:	e12fff1e 	bx	lr
    8ed0:	e1a01006 	mov	r1, r6
    8ed4:	e1a02006 	mov	r2, r6
    8ed8:	e1a00008 	mov	r0, r8
    8edc:	ebffff5e 	bl	8c5c <__multiply>
    8ee0:	e5860000 	str	r0, [r6]
    8ee4:	e5805000 	str	r5, [r0]
    8ee8:	e1a06000 	mov	r6, r0
    8eec:	eaffffe5 	b	8e88 <__pow5mult+0x48>
    8ef0:	e59f2034 	ldr	r2, [pc, #52]	; 8f2c <__pow5mult+0xec>
    8ef4:	e2433001 	sub	r3, r3, #1
    8ef8:	e7922103 	ldr	r2, [r2, r3, lsl #2]
    8efc:	e3a03000 	mov	r3, #0
    8f00:	ebfffea0 	bl	8988 <__multadd>
    8f04:	e1a07000 	mov	r7, r0
    8f08:	eaffffd2 	b	8e58 <__pow5mult+0x18>
    8f0c:	e1a00008 	mov	r0, r8
    8f10:	e59f1018 	ldr	r1, [pc, #24]	; 8f30 <__pow5mult+0xf0>
    8f14:	ebffff47 	bl	8c38 <__i2b>
    8f18:	e3a03000 	mov	r3, #0
    8f1c:	e5880048 	str	r0, [r8, #72]	; 0x48
    8f20:	e1a06000 	mov	r6, r0
    8f24:	e5803000 	str	r3, [r0]
    8f28:	eaffffd6 	b	8e88 <__pow5mult+0x48>
    8f2c:	000139c0 	.word	0x000139c0
    8f30:	00000271 	.word	0x00000271

00008f34 <__lshift>:
    8f34:	e92d47f0 	push	{r4, r5, r6, r7, r8, r9, r10, lr}
    8f38:	e591a010 	ldr	r10, [r1, #16]
    8f3c:	e1a042c2 	asr	r4, r2, #5
    8f40:	e5913008 	ldr	r3, [r1, #8]
    8f44:	e084a00a 	add	r10, r4, r10
    8f48:	e28a5001 	add	r5, r10, #1
    8f4c:	e1550003 	cmp	r5, r3
    8f50:	e1a07001 	mov	r7, r1
    8f54:	e1a09002 	mov	r9, r2
    8f58:	e1a08000 	mov	r8, r0
    8f5c:	e5911004 	ldr	r1, [r1, #4]
    8f60:	da000003 	ble	8f74 <__lshift+0x40>
    8f64:	e1a03083 	lsl	r3, r3, #1
    8f68:	e1550003 	cmp	r5, r3
    8f6c:	e2811001 	add	r1, r1, #1
    8f70:	cafffffb 	bgt	8f64 <__lshift+0x30>
    8f74:	e1a00008 	mov	r0, r8
    8f78:	ebfffe58 	bl	88e0 <_Balloc>
    8f7c:	e3540000 	cmp	r4, #0
    8f80:	e280c014 	add	r12, r0, #20
    8f84:	da000007 	ble	8fa8 <__lshift+0x74>
    8f88:	e3a03000 	mov	r3, #0
    8f8c:	e1a06003 	mov	r6, r3
    8f90:	e2833001 	add	r3, r3, #1
    8f94:	e1530004 	cmp	r3, r4
    8f98:	e48c6004 	str	r6, [r12], #4
    8f9c:	1afffffb 	bne	8f90 <__lshift+0x5c>
    8fa0:	e0803103 	add	r3, r0, r3, lsl #2
    8fa4:	e283c014 	add	r12, r3, #20
    8fa8:	e5972010 	ldr	r2, [r7, #16]
    8fac:	e219901f 	ands	r9, r9, #31
    8fb0:	e0872102 	add	r2, r7, r2, lsl #2
    8fb4:	e2874014 	add	r4, r7, #20
    8fb8:	e2822014 	add	r2, r2, #20
    8fbc:	0a000014 	beq	9014 <__lshift+0xe0>
    8fc0:	e2693020 	rsb	r3, r9, #32
    8fc4:	e3a01000 	mov	r1, #0
    8fc8:	e5946000 	ldr	r6, [r4]
    8fcc:	e1811916 	orr	r1, r1, r6, lsl r9
    8fd0:	e48c1004 	str	r1, [r12], #4
    8fd4:	e4941004 	ldr	r1, [r4], #4
    8fd8:	e1520004 	cmp	r2, r4
    8fdc:	e1a01331 	lsr	r1, r1, r3
    8fe0:	8afffff8 	bhi	8fc8 <__lshift+0x94>
    8fe4:	e3510000 	cmp	r1, #0
    8fe8:	e58c1000 	str	r1, [r12]
    8fec:	128a5002 	addne	r5, r10, #2
    8ff0:	e598304c 	ldr	r3, [r8, #76]	; 0x4c
    8ff4:	e5972004 	ldr	r2, [r7, #4]
    8ff8:	e7931102 	ldr	r1, [r3, r2, lsl #2]
    8ffc:	e2455001 	sub	r5, r5, #1
    9000:	e5805010 	str	r5, [r0, #16]
    9004:	e5871000 	str	r1, [r7]
    9008:	e7837102 	str	r7, [r3, r2, lsl #2]
    900c:	e8bd47f0 	pop	{r4, r5, r6, r7, r8, r9, r10, lr}
    9010:	e12fff1e 	bx	lr
    9014:	e4943004 	ldr	r3, [r4], #4
    9018:	e1520004 	cmp	r2, r4
    901c:	e48c3004 	str	r3, [r12], #4
    9020:	9afffff2 	bls	8ff0 <__lshift+0xbc>
    9024:	e4943004 	ldr	r3, [r4], #4
    9028:	e1520004 	cmp	r2, r4
    902c:	e48c3004 	str	r3, [r12], #4
    9030:	8afffff7 	bhi	9014 <__lshift+0xe0>
    9034:	eaffffed 	b	8ff0 <__lshift+0xbc>

00009038 <__mcmp>:
    9038:	e52d4004 	push	{r4}		; (str r4, [sp, #-4]!)
    903c:	e5913010 	ldr	r3, [r1, #16]
    9040:	e1a04000 	mov	r4, r0
    9044:	e5900010 	ldr	r0, [r0, #16]
    9048:	e0500003 	subs	r0, r0, r3
    904c:	1a00000c 	bne	9084 <__mcmp+0x4c>
    9050:	e2833004 	add	r3, r3, #4
    9054:	e1a02103 	lsl	r2, r3, #2
    9058:	e0843002 	add	r3, r4, r2
    905c:	e0811002 	add	r1, r1, r2
    9060:	e2844014 	add	r4, r4, #20
    9064:	e2833004 	add	r3, r3, #4
    9068:	e2811004 	add	r1, r1, #4
    906c:	e5332004 	ldr	r2, [r3, #-4]!
    9070:	e531c004 	ldr	r12, [r1, #-4]!
    9074:	e152000c 	cmp	r2, r12
    9078:	1a000003 	bne	908c <__mcmp+0x54>
    907c:	e1540003 	cmp	r4, r3
    9080:	3afffff9 	bcc	906c <__mcmp+0x34>
    9084:	e8bd0010 	ldmfd	sp!, {r4}
    9088:	e12fff1e 	bx	lr
    908c:	e15c0002 	cmp	r12, r2
    9090:	93a00001 	movls	r0, #1
    9094:	83e00000 	mvnhi	r0, #0
    9098:	eafffff9 	b	9084 <__mcmp+0x4c>

0000909c <__mdiff>:
    909c:	e92d47f0 	push	{r4, r5, r6, r7, r8, r9, r10, lr}
    90a0:	e1a06001 	mov	r6, r1
    90a4:	e1a05000 	mov	r5, r0
    90a8:	e1a01002 	mov	r1, r2
    90ac:	e1a00006 	mov	r0, r6
    90b0:	e1a04002 	mov	r4, r2
    90b4:	ebffffdf 	bl	9038 <__mcmp>
    90b8:	e2507000 	subs	r7, r0, #0
    90bc:	0a000042 	beq	91cc <__mdiff+0x130>
    90c0:	b1a03006 	movlt	r3, r6
    90c4:	b1a06004 	movlt	r6, r4
    90c8:	e5961004 	ldr	r1, [r6, #4]
    90cc:	e1a00005 	mov	r0, r5
    90d0:	b1a04003 	movlt	r4, r3
    90d4:	a3a09000 	movge	r9, #0
    90d8:	b3a09001 	movlt	r9, #1
    90dc:	ebfffdff 	bl	88e0 <_Balloc>
    90e0:	e5967010 	ldr	r7, [r6, #16]
    90e4:	e594a010 	ldr	r10, [r4, #16]
    90e8:	e0868107 	add	r8, r6, r7, lsl #2
    90ec:	e084a10a 	add	r10, r4, r10, lsl #2
    90f0:	e580900c 	str	r9, [r0, #12]
    90f4:	e2888014 	add	r8, r8, #20
    90f8:	e28aa014 	add	r10, r10, #20
    90fc:	e2866014 	add	r6, r6, #20
    9100:	e2842014 	add	r2, r4, #20
    9104:	e2801014 	add	r1, r0, #20
    9108:	e3a05000 	mov	r5, #0
    910c:	e496c004 	ldr	r12, [r6], #4
    9110:	e4924004 	ldr	r4, [r2], #4
    9114:	e1a0380c 	lsl	r3, r12, #16
    9118:	e0855823 	add	r5, r5, r3, lsr #16
    911c:	e1a09804 	lsl	r9, r4, #16
    9120:	e0453829 	sub	r3, r5, r9, lsr #16
    9124:	e1a05824 	lsr	r5, r4, #16
    9128:	e065582c 	rsb	r5, r5, r12, lsr #16
    912c:	e1a04803 	lsl	r4, r3, #16
    9130:	e0855843 	add	r5, r5, r3, asr #16
    9134:	e1a04824 	lsr	r4, r4, #16
    9138:	e1a03001 	mov	r3, r1
    913c:	e1844805 	orr	r4, r4, r5, lsl #16
    9140:	e4834004 	str	r4, [r3], #4
    9144:	e15a0002 	cmp	r10, r2
    9148:	e1a0c006 	mov	r12, r6
    914c:	e1a05845 	asr	r5, r5, #16
    9150:	e1a01003 	mov	r1, r3
    9154:	8affffec 	bhi	910c <__mdiff+0x70>
    9158:	e1580006 	cmp	r8, r6
    915c:	9a000010 	bls	91a4 <__mdiff+0x108>
    9160:	e49c2004 	ldr	r2, [r12], #4
    9164:	e1a04802 	lsl	r4, r2, #16
    9168:	e0855824 	add	r5, r5, r4, lsr #16
    916c:	e1a04805 	lsl	r4, r5, #16
    9170:	e1a02822 	lsr	r2, r2, #16
    9174:	e0825845 	add	r5, r2, r5, asr #16
    9178:	e1a04824 	lsr	r4, r4, #16
    917c:	e1844805 	orr	r4, r4, r5, lsl #16
    9180:	e158000c 	cmp	r8, r12
    9184:	e1a05845 	asr	r5, r5, #16
    9188:	e4834004 	str	r4, [r3], #4
    918c:	8afffff3 	bhi	9160 <__mdiff+0xc4>
    9190:	e1e03006 	mvn	r3, r6
    9194:	e0833008 	add	r3, r3, r8
    9198:	e3c33003 	bic	r3, r3, #3
    919c:	e2833004 	add	r3, r3, #4
    91a0:	e0813003 	add	r3, r1, r3
    91a4:	e3540000 	cmp	r4, #0
    91a8:	e2433004 	sub	r3, r3, #4
    91ac:	1a000003 	bne	91c0 <__mdiff+0x124>
    91b0:	e5332004 	ldr	r2, [r3, #-4]!
    91b4:	e3520000 	cmp	r2, #0
    91b8:	e2477001 	sub	r7, r7, #1
    91bc:	0afffffb 	beq	91b0 <__mdiff+0x114>
    91c0:	e5807010 	str	r7, [r0, #16]
    91c4:	e8bd47f0 	pop	{r4, r5, r6, r7, r8, r9, r10, lr}
    91c8:	e12fff1e 	bx	lr
    91cc:	e1a00005 	mov	r0, r5
    91d0:	e1a01007 	mov	r1, r7
    91d4:	ebfffdc1 	bl	88e0 <_Balloc>
    91d8:	e3a03001 	mov	r3, #1
    91dc:	e5803010 	str	r3, [r0, #16]
    91e0:	e5807014 	str	r7, [r0, #20]
    91e4:	eafffff6 	b	91c4 <__mdiff+0x128>

000091e8 <__ulp>:
    91e8:	e59f3058 	ldr	r3, [pc, #88]	; 9248 <__ulp+0x60>
    91ec:	e0013003 	and	r3, r1, r3
    91f0:	e243350d 	sub	r3, r3, #54525952	; 0x3400000
    91f4:	e3530000 	cmp	r3, #0
    91f8:	da000002 	ble	9208 <__ulp+0x20>
    91fc:	e1a01003 	mov	r1, r3
    9200:	e3a00000 	mov	r0, #0
    9204:	e12fff1e 	bx	lr
    9208:	e2633000 	rsb	r3, r3, #0
    920c:	e1a03a43 	asr	r3, r3, #20
    9210:	e3530013 	cmp	r3, #19
    9214:	da000007 	ble	9238 <__ulp+0x50>
    9218:	e3530032 	cmp	r3, #50	; 0x32
    921c:	d2633033 	rsble	r3, r3, #51	; 0x33
    9220:	d3a02001 	movle	r2, #1
    9224:	d1a03312 	lslle	r3, r2, r3
    9228:	c3a03001 	movgt	r3, #1
    922c:	e3a01000 	mov	r1, #0
    9230:	e1a00003 	mov	r0, r3
    9234:	e12fff1e 	bx	lr
    9238:	e3a02702 	mov	r2, #524288	; 0x80000
    923c:	e1a01352 	asr	r1, r2, r3
    9240:	e3a00000 	mov	r0, #0
    9244:	e12fff1e 	bx	lr
    9248:	7ff00000 	.word	0x7ff00000

0000924c <__b2d>:
    924c:	e92d41f0 	push	{r4, r5, r6, r7, r8, lr}
    9250:	e5906010 	ldr	r6, [r0, #16]
    9254:	e2866004 	add	r6, r6, #4
    9258:	e0806106 	add	r6, r0, r6, lsl #2
    925c:	e1a04006 	mov	r4, r6
    9260:	e4945004 	ldr	r5, [r4], #4
    9264:	e1a03000 	mov	r3, r0
    9268:	e1a00005 	mov	r0, r5
    926c:	e1a08001 	mov	r8, r1
    9270:	e2837014 	add	r7, r3, #20
    9274:	ebfffe36 	bl	8b54 <__hi0bits>
    9278:	e2603020 	rsb	r3, r0, #32
    927c:	e350000a 	cmp	r0, #10
    9280:	e1a0c006 	mov	r12, r6
    9284:	e5883000 	str	r3, [r8]
    9288:	ca00000d 	bgt	92c4 <__b2d+0x78>
    928c:	e260100b 	rsb	r1, r0, #11
    9290:	e1a0c135 	lsr	r12, r5, r1
    9294:	e1570006 	cmp	r7, r6
    9298:	e38cc5ff 	orr	r12, r12, #1069547520	; 0x3fc00000
    929c:	e38c3603 	orr	r3, r12, #3145728	; 0x300000
    92a0:	3514c008 	ldrcc	r12, [r4, #-8]
    92a4:	31a0113c 	lsrcc	r1, r12, r1
    92a8:	23a01000 	movcs	r1, #0
    92ac:	e2800015 	add	r0, r0, #21
    92b0:	e1812015 	orr	r2, r1, r5, lsl r0
    92b4:	e1a00002 	mov	r0, r2
    92b8:	e1a01003 	mov	r1, r3
    92bc:	e8bd41f0 	pop	{r4, r5, r6, r7, r8, lr}
    92c0:	e12fff1e 	bx	lr
    92c4:	e1570006 	cmp	r7, r6
    92c8:	3246c004 	subcc	r12, r6, #4
    92cc:	35141008 	ldrcc	r1, [r4, #-8]
    92d0:	23a01000 	movcs	r1, #0
    92d4:	e250400b 	subs	r4, r0, #11
    92d8:	0a00000a 	beq	9308 <__b2d+0xbc>
    92dc:	e1a05415 	lsl	r5, r5, r4
    92e0:	e15c0007 	cmp	r12, r7
    92e4:	e38555ff 	orr	r5, r5, #1069547520	; 0x3fc00000
    92e8:	851cc004 	ldrhi	r12, [r12, #-4]
    92ec:	e260002b 	rsb	r0, r0, #43	; 0x2b
    92f0:	e3855603 	orr	r5, r5, #3145728	; 0x300000
    92f4:	e1853031 	orr	r3, r5, r1, lsr r0
    92f8:	81a0003c 	lsrhi	r0, r12, r0
    92fc:	93a00000 	movls	r0, #0
    9300:	e1802411 	orr	r2, r0, r1, lsl r4
    9304:	eaffffea 	b	92b4 <__b2d+0x68>
    9308:	e38555ff 	orr	r5, r5, #1069547520	; 0x3fc00000
    930c:	e3853603 	orr	r3, r5, #3145728	; 0x300000
    9310:	e1a02001 	mov	r2, r1
    9314:	eaffffe6 	b	92b4 <__b2d+0x68>

00009318 <__d2b>:
    9318:	e92d45f0 	push	{r4, r5, r6, r7, r8, r10, lr}
    931c:	e3a01001 	mov	r1, #1
    9320:	e24dd00c 	sub	sp, sp, #12
    9324:	e1a04002 	mov	r4, r2
    9328:	e1a05003 	mov	r5, r3
    932c:	e59d8028 	ldr	r8, [sp, #40]	; 0x28
    9330:	e59d702c 	ldr	r7, [sp, #44]	; 0x2c
    9334:	ebfffd69 	bl	88e0 <_Balloc>
    9338:	e3c53102 	bic	r3, r5, #-2147483648	; 0x80000000
    933c:	e3c524ff 	bic	r2, r5, #-16777216	; 0xff000000
    9340:	e1b0aa23 	lsrs	r10, r3, #20
    9344:	e3c2260f 	bic	r2, r2, #15728640	; 0xf00000
    9348:	13822601 	orrne	r2, r2, #1048576	; 0x100000
    934c:	e3540000 	cmp	r4, #0
    9350:	e1a06000 	mov	r6, r0
    9354:	e58d2004 	str	r2, [sp, #4]
    9358:	0a000020 	beq	93e0 <__d2b+0xc8>
    935c:	e28d0008 	add	r0, sp, #8
    9360:	e5204008 	str	r4, [r0, #-8]!
    9364:	e1a0000d 	mov	r0, sp
    9368:	ebfffe0d 	bl	8ba4 <__lo0bits>
    936c:	e3500000 	cmp	r0, #0
    9370:	e59d3004 	ldr	r3, [sp, #4]
    9374:	159d1000 	ldrne	r1, [sp]
    9378:	12602020 	rsbne	r2, r0, #32
    937c:	11812213 	orrne	r2, r1, r3, lsl r2
    9380:	11a03033 	lsrne	r3, r3, r0
    9384:	059d2000 	ldreq	r2, [sp]
    9388:	15862014 	strne	r2, [r6, #20]
    938c:	158d3004 	strne	r3, [sp, #4]
    9390:	05862014 	streq	r2, [r6, #20]
    9394:	e3530000 	cmp	r3, #0
    9398:	03a04001 	moveq	r4, #1
    939c:	13a04002 	movne	r4, #2
    93a0:	e35a0000 	cmp	r10, #0
    93a4:	e5863018 	str	r3, [r6, #24]
    93a8:	e5864010 	str	r4, [r6, #16]
    93ac:	1a000014 	bne	9404 <__d2b+0xec>
    93b0:	e2400e43 	sub	r0, r0, #1072	; 0x430
    93b4:	e2403002 	sub	r3, r0, #2
    93b8:	e0862104 	add	r2, r6, r4, lsl #2
    93bc:	e5920010 	ldr	r0, [r2, #16]
    93c0:	e5883000 	str	r3, [r8]
    93c4:	ebfffde2 	bl	8b54 <__hi0bits>
    93c8:	e0600284 	rsb	r0, r0, r4, lsl #5
    93cc:	e5870000 	str	r0, [r7]
    93d0:	e1a00006 	mov	r0, r6
    93d4:	e28dd00c 	add	sp, sp, #12
    93d8:	e8bd45f0 	pop	{r4, r5, r6, r7, r8, r10, lr}
    93dc:	e12fff1e 	bx	lr
    93e0:	e28d0004 	add	r0, sp, #4
    93e4:	ebfffdee 	bl	8ba4 <__lo0bits>
    93e8:	e59d3004 	ldr	r3, [sp, #4]
    93ec:	e3a04001 	mov	r4, #1
    93f0:	e35a0000 	cmp	r10, #0
    93f4:	e5863014 	str	r3, [r6, #20]
    93f8:	e5864010 	str	r4, [r6, #16]
    93fc:	e2800020 	add	r0, r0, #32
    9400:	0affffea 	beq	93b0 <__d2b+0x98>
    9404:	e24aae43 	sub	r10, r10, #1072	; 0x430
    9408:	e24aa003 	sub	r10, r10, #3
    940c:	e08aa000 	add	r10, r10, r0
    9410:	e2600035 	rsb	r0, r0, #53	; 0x35
    9414:	e588a000 	str	r10, [r8]
    9418:	e5870000 	str	r0, [r7]
    941c:	eaffffeb 	b	93d0 <__d2b+0xb8>

00009420 <__ratio>:
    9420:	e92d40f0 	push	{r4, r5, r6, r7, lr}
    9424:	e24dd00c 	sub	sp, sp, #12
    9428:	e1a06001 	mov	r6, r1
    942c:	e1a0100d 	mov	r1, sp
    9430:	e1a07000 	mov	r7, r0
    9434:	ebffff84 	bl	924c <__b2d>
    9438:	e1a05001 	mov	r5, r1
    943c:	e1a04000 	mov	r4, r0
    9440:	e28d1004 	add	r1, sp, #4
    9444:	e1a00006 	mov	r0, r6
    9448:	ebffff7f 	bl	924c <__b2d>
    944c:	e597c010 	ldr	r12, [r7, #16]
    9450:	e1a03001 	mov	r3, r1
    9454:	e1a02000 	mov	r2, r0
    9458:	e59d1004 	ldr	r1, [sp, #4]
    945c:	e5960010 	ldr	r0, [r6, #16]
    9460:	e59de000 	ldr	lr, [sp]
    9464:	e060c00c 	rsb	r12, r0, r12
    9468:	e061100e 	rsb	r1, r1, lr
    946c:	e081c28c 	add	r12, r1, r12, lsl #5
    9470:	e35c0000 	cmp	r12, #0
    9474:	e1a01005 	mov	r1, r5
    9478:	c0851a0c 	addgt	r1, r5, r12, lsl #20
    947c:	e1a07003 	mov	r7, r3
    9480:	c1a04004 	movgt	r4, r4
    9484:	c1a05001 	movgt	r5, r1
    9488:	d0437a0c 	suble	r7, r3, r12, lsl #20
    948c:	e1a06002 	mov	r6, r2
    9490:	d1a03007 	movle	r3, r7
    9494:	d1a02002 	movle	r2, r2
    9498:	e1a00004 	mov	r0, r4
    949c:	e1a01005 	mov	r1, r5
    94a0:	ebffddc1 	bl	bac <__aeabi_ddiv>
    94a4:	e28dd00c 	add	sp, sp, #12
    94a8:	e8bd40f0 	pop	{r4, r5, r6, r7, lr}
    94ac:	e12fff1e 	bx	lr

000094b0 <_mprec_log10>:
    94b0:	e3500017 	cmp	r0, #23
    94b4:	e92d4010 	push	{r4, lr}
    94b8:	e1a04000 	mov	r4, r0
    94bc:	da000008 	ble	94e4 <_mprec_log10+0x34>
    94c0:	e59f1030 	ldr	r1, [pc, #48]	; 94f8 <_mprec_log10+0x48>
    94c4:	e3a00000 	mov	r0, #0
    94c8:	e3a02000 	mov	r2, #0
    94cc:	e59f3028 	ldr	r3, [pc, #40]	; 94fc <_mprec_log10+0x4c>
    94d0:	ebffdd11 	bl	91c <__aeabi_dmul>
    94d4:	e2544001 	subs	r4, r4, #1
    94d8:	1afffffa 	bne	94c8 <_mprec_log10+0x18>
    94dc:	e8bd4010 	pop	{r4, lr}
    94e0:	e12fff1e 	bx	lr
    94e4:	e59f3014 	ldr	r3, [pc, #20]	; 9500 <_mprec_log10+0x50>
    94e8:	e0834180 	add	r4, r3, r0, lsl #3
    94ec:	e2841010 	add	r1, r4, #16
    94f0:	e8910003 	ldm	r1, {r0, r1}
    94f4:	eafffff8 	b	94dc <_mprec_log10+0x2c>
    94f8:	3ff00000 	.word	0x3ff00000
    94fc:	40240000 	.word	0x40240000
    9500:	000139c0 	.word	0x000139c0

00009504 <__copybits>:
    9504:	e92d0030 	push	{r4, r5}
    9508:	e5924010 	ldr	r4, [r2, #16]
    950c:	e2411001 	sub	r1, r1, #1
    9510:	e0824104 	add	r4, r2, r4, lsl #2
    9514:	e1a052c1 	asr	r5, r1, #5
    9518:	e2823014 	add	r3, r2, #20
    951c:	e2844014 	add	r4, r4, #20
    9520:	e2855001 	add	r5, r5, #1
    9524:	e1530004 	cmp	r3, r4
    9528:	e0805105 	add	r5, r0, r5, lsl #2
    952c:	2a000009 	bcs	9558 <__copybits+0x54>
    9530:	e1a01000 	mov	r1, r0
    9534:	e493c004 	ldr	r12, [r3], #4
    9538:	e1540003 	cmp	r4, r3
    953c:	e481c004 	str	r12, [r1], #4
    9540:	8afffffb 	bhi	9534 <__copybits+0x30>
    9544:	e0623004 	rsb	r3, r2, r4
    9548:	e2433015 	sub	r3, r3, #21
    954c:	e3c33003 	bic	r3, r3, #3
    9550:	e2833004 	add	r3, r3, #4
    9554:	e0800003 	add	r0, r0, r3
    9558:	e1550000 	cmp	r5, r0
    955c:	9a000003 	bls	9570 <__copybits+0x6c>
    9560:	e3a03000 	mov	r3, #0
    9564:	e4803004 	str	r3, [r0], #4
    9568:	e1550000 	cmp	r5, r0
    956c:	8afffffc 	bhi	9564 <__copybits+0x60>
    9570:	e8bd0030 	pop	{r4, r5}
    9574:	e12fff1e 	bx	lr

00009578 <__any_on>:
    9578:	e590c010 	ldr	r12, [r0, #16]
    957c:	e1a032c1 	asr	r3, r1, #5
    9580:	e15c0003 	cmp	r12, r3
    9584:	e52d4004 	push	{r4}		; (str r4, [sp, #-4]!)
    9588:	e2802014 	add	r2, r0, #20
    958c:	b1a0300c 	movlt	r3, r12
    9590:	ba000000 	blt	9598 <__any_on+0x20>
    9594:	ca00000f 	bgt	95d8 <__any_on+0x60>
    9598:	e2833004 	add	r3, r3, #4
    959c:	e0800103 	add	r0, r0, r3, lsl #2
    95a0:	e2803004 	add	r3, r0, #4
    95a4:	e1520003 	cmp	r2, r3
    95a8:	2a000012 	bcs	95f8 <__any_on+0x80>
    95ac:	e5133004 	ldr	r3, [r3, #-4]
    95b0:	e3530000 	cmp	r3, #0
    95b4:	1a000004 	bne	95cc <__any_on+0x54>
    95b8:	e1520000 	cmp	r2, r0
    95bc:	2a00000d 	bcs	95f8 <__any_on+0x80>
    95c0:	e5303004 	ldr	r3, [r0, #-4]!
    95c4:	e3530000 	cmp	r3, #0
    95c8:	0afffffa 	beq	95b8 <__any_on+0x40>
    95cc:	e3a00001 	mov	r0, #1
    95d0:	e8bd0010 	ldmfd	sp!, {r4}
    95d4:	e12fff1e 	bx	lr
    95d8:	e211101f 	ands	r1, r1, #31
    95dc:	0affffed 	beq	9598 <__any_on+0x20>
    95e0:	e080c103 	add	r12, r0, r3, lsl #2
    95e4:	e59cc014 	ldr	r12, [r12, #20]
    95e8:	e1a0413c 	lsr	r4, r12, r1
    95ec:	e15c0114 	cmp	r12, r4, lsl r1
    95f0:	1afffff5 	bne	95cc <__any_on+0x54>
    95f4:	eaffffe7 	b	9598 <__any_on+0x20>
    95f8:	e3a00000 	mov	r0, #0
    95fc:	eafffff3 	b	95d0 <__any_on+0x58>

00009600 <_realloc_r>:
    9600:	e92d4ff0 	push	{r4, r5, r6, r7, r8, r9, r10, r11, lr}
    9604:	e2514000 	subs	r4, r1, #0
    9608:	e24dd00c 	sub	sp, sp, #12
    960c:	e1a08000 	mov	r8, r0
    9610:	e1a0b002 	mov	r11, r2
    9614:	0a0000d1 	beq	9960 <_realloc_r+0x360>
    9618:	ebfffcae 	bl	88d8 <__malloc_lock>
    961c:	e28b500b 	add	r5, r11, #11
    9620:	e3550016 	cmp	r5, #22
    9624:	83c55007 	bichi	r5, r5, #7
    9628:	93a01010 	movls	r1, #16
    962c:	81a06fa5 	lsrhi	r6, r5, #31
    9630:	93a06000 	movls	r6, #0
    9634:	91a05001 	movls	r5, r1
    9638:	e5143004 	ldr	r3, [r4, #-4]
    963c:	81a01005 	movhi	r1, r5
    9640:	e155000b 	cmp	r5, r11
    9644:	33866001 	orrcc	r6, r6, #1
    9648:	e3560000 	cmp	r6, #0
    964c:	e3c37003 	bic	r7, r3, #3
    9650:	13a0300c 	movne	r3, #12
    9654:	e244a008 	sub	r10, r4, #8
    9658:	15883000 	strne	r3, [r8]
    965c:	13a06000 	movne	r6, #0
    9660:	1a00000f 	bne	96a4 <_realloc_r+0xa4>
    9664:	e1570001 	cmp	r7, r1
    9668:	ba000011 	blt	96b4 <_realloc_r+0xb4>
    966c:	e1a06007 	mov	r6, r7
    9670:	e0652006 	rsb	r2, r5, r6
    9674:	e352000f 	cmp	r2, #15
    9678:	e2033001 	and	r3, r3, #1
    967c:	8a00005e 	bhi	97fc <_realloc_r+0x1fc>
    9680:	e1833006 	orr	r3, r3, r6
    9684:	e58a3004 	str	r3, [r10, #4]
    9688:	e08aa006 	add	r10, r10, r6
    968c:	e59a3004 	ldr	r3, [r10, #4]
    9690:	e3833001 	orr	r3, r3, #1
    9694:	e58a3004 	str	r3, [r10, #4]
    9698:	e1a00008 	mov	r0, r8
    969c:	ebfffc8e 	bl	88dc <__malloc_unlock>
    96a0:	e1a06004 	mov	r6, r4
    96a4:	e1a00006 	mov	r0, r6
    96a8:	e28dd00c 	add	sp, sp, #12
    96ac:	e8bd4ff0 	pop	{r4, r5, r6, r7, r8, r9, r10, r11, lr}
    96b0:	e12fff1e 	bx	lr
    96b4:	e59f24b4 	ldr	r2, [pc, #1204]	; 9b70 <_realloc_r+0x570>
    96b8:	e592c008 	ldr	r12, [r2, #8]
    96bc:	e08a0007 	add	r0, r10, r7
    96c0:	e15c0000 	cmp	r12, r0
    96c4:	0a0000a9 	beq	9970 <_realloc_r+0x370>
    96c8:	e590e004 	ldr	lr, [r0, #4]
    96cc:	e3ce9001 	bic	r9, lr, #1
    96d0:	e0809009 	add	r9, r0, r9
    96d4:	e5999004 	ldr	r9, [r9, #4]
    96d8:	e3190001 	tst	r9, #1
    96dc:	11a0e006 	movne	lr, r6
    96e0:	11a0000e 	movne	r0, lr
    96e4:	0a00003b 	beq	97d8 <_realloc_r+0x1d8>
    96e8:	e3130001 	tst	r3, #1
    96ec:	1a00004f 	bne	9830 <_realloc_r+0x230>
    96f0:	e5149008 	ldr	r9, [r4, #-8]
    96f4:	e069900a 	rsb	r9, r9, r10
    96f8:	e5993004 	ldr	r3, [r9, #4]
    96fc:	e3500000 	cmp	r0, #0
    9700:	e3c33003 	bic	r3, r3, #3
    9704:	0a000067 	beq	98a8 <_realloc_r+0x2a8>
    9708:	e150000c 	cmp	r0, r12
    970c:	e083c007 	add	r12, r3, r7
    9710:	0a0000ce 	beq	9a50 <_realloc_r+0x450>
    9714:	e08e600c 	add	r6, lr, r12
    9718:	e1560001 	cmp	r6, r1
    971c:	ba000062 	blt	98ac <_realloc_r+0x2ac>
    9720:	e2802008 	add	r2, r0, #8
    9724:	e892000c 	ldm	r2, {r2, r3}
    9728:	e5832008 	str	r2, [r3, #8]
    972c:	e582300c 	str	r3, [r2, #12]
    9730:	e1a0a009 	mov	r10, r9
    9734:	e599300c 	ldr	r3, [r9, #12]
    9738:	e5ba1008 	ldr	r1, [r10, #8]!
    973c:	e2472004 	sub	r2, r7, #4
    9740:	e3520024 	cmp	r2, #36	; 0x24
    9744:	e581300c 	str	r3, [r1, #12]
    9748:	e5831008 	str	r1, [r3, #8]
    974c:	8a0000fa 	bhi	9b3c <_realloc_r+0x53c>
    9750:	e3520013 	cmp	r2, #19
    9754:	91a0300a 	movls	r3, r10
    9758:	9a000014 	bls	97b0 <_realloc_r+0x1b0>
    975c:	e5943000 	ldr	r3, [r4]
    9760:	e5893008 	str	r3, [r9, #8]
    9764:	e5943004 	ldr	r3, [r4, #4]
    9768:	e352001b 	cmp	r2, #27
    976c:	e589300c 	str	r3, [r9, #12]
    9770:	92844008 	addls	r4, r4, #8
    9774:	92893010 	addls	r3, r9, #16
    9778:	9a00000c 	bls	97b0 <_realloc_r+0x1b0>
    977c:	e5943008 	ldr	r3, [r4, #8]
    9780:	e5893010 	str	r3, [r9, #16]
    9784:	e594300c 	ldr	r3, [r4, #12]
    9788:	e5893014 	str	r3, [r9, #20]
    978c:	e3520024 	cmp	r2, #36	; 0x24
    9790:	05943010 	ldreq	r3, [r4, #16]
    9794:	05893018 	streq	r3, [r9, #24]
    9798:	05942014 	ldreq	r2, [r4, #20]
    979c:	0589201c 	streq	r2, [r9, #28]
    97a0:	12893018 	addne	r3, r9, #24
    97a4:	12844010 	addne	r4, r4, #16
    97a8:	02893020 	addeq	r3, r9, #32
    97ac:	02844018 	addeq	r4, r4, #24
    97b0:	e5942000 	ldr	r2, [r4]
    97b4:	e5832000 	str	r2, [r3]
    97b8:	e5942004 	ldr	r2, [r4, #4]
    97bc:	e5832004 	str	r2, [r3, #4]
    97c0:	e5942008 	ldr	r2, [r4, #8]
    97c4:	e5832008 	str	r2, [r3, #8]
    97c8:	e1a0400a 	mov	r4, r10
    97cc:	e5993004 	ldr	r3, [r9, #4]
    97d0:	e1a0a009 	mov	r10, r9
    97d4:	eaffffa5 	b	9670 <_realloc_r+0x70>
    97d8:	e3cee003 	bic	lr, lr, #3
    97dc:	e08e6007 	add	r6, lr, r7
    97e0:	e1560001 	cmp	r6, r1
    97e4:	baffffbf 	blt	96e8 <_realloc_r+0xe8>
    97e8:	e2801008 	add	r1, r0, #8
    97ec:	e8910006 	ldm	r1, {r1, r2}
    97f0:	e581200c 	str	r2, [r1, #12]
    97f4:	e5821008 	str	r1, [r2, #8]
    97f8:	eaffff9c 	b	9670 <_realloc_r+0x70>
    97fc:	e08a1005 	add	r1, r10, r5
    9800:	e3820001 	orr	r0, r2, #1
    9804:	e1835005 	orr	r5, r3, r5
    9808:	e58a5004 	str	r5, [r10, #4]
    980c:	e5810004 	str	r0, [r1, #4]
    9810:	e0812002 	add	r2, r1, r2
    9814:	e5923004 	ldr	r3, [r2, #4]
    9818:	e3833001 	orr	r3, r3, #1
    981c:	e5823004 	str	r3, [r2, #4]
    9820:	e1a00008 	mov	r0, r8
    9824:	e2811008 	add	r1, r1, #8
    9828:	ebfff5e3 	bl	6fbc <_free_r>
    982c:	eaffff99 	b	9698 <_realloc_r+0x98>
    9830:	e1a00008 	mov	r0, r8
    9834:	e1a0100b 	mov	r1, r11
    9838:	ebfff884 	bl	7a50 <_malloc_r>
    983c:	e2506000 	subs	r6, r0, #0
    9840:	0a000015 	beq	989c <_realloc_r+0x29c>
    9844:	e5143004 	ldr	r3, [r4, #-4]
    9848:	e3c32001 	bic	r2, r3, #1
    984c:	e2461008 	sub	r1, r6, #8
    9850:	e08a2002 	add	r2, r10, r2
    9854:	e1510002 	cmp	r1, r2
    9858:	0a0000b3 	beq	9b2c <_realloc_r+0x52c>
    985c:	e2472004 	sub	r2, r7, #4
    9860:	e3520024 	cmp	r2, #36	; 0x24
    9864:	8a000076 	bhi	9a44 <_realloc_r+0x444>
    9868:	e3520013 	cmp	r2, #19
    986c:	91a03006 	movls	r3, r6
    9870:	91a02004 	movls	r2, r4
    9874:	8a000052 	bhi	99c4 <_realloc_r+0x3c4>
    9878:	e5921000 	ldr	r1, [r2]
    987c:	e5831000 	str	r1, [r3]
    9880:	e5921004 	ldr	r1, [r2, #4]
    9884:	e5831004 	str	r1, [r3, #4]
    9888:	e5922008 	ldr	r2, [r2, #8]
    988c:	e5832008 	str	r2, [r3, #8]
    9890:	e1a00008 	mov	r0, r8
    9894:	e1a01004 	mov	r1, r4
    9898:	ebfff5c7 	bl	6fbc <_free_r>
    989c:	e1a00008 	mov	r0, r8
    98a0:	ebfffc0d 	bl	88dc <__malloc_unlock>
    98a4:	eaffff7e 	b	96a4 <_realloc_r+0xa4>
    98a8:	e083c007 	add	r12, r3, r7
    98ac:	e15c0001 	cmp	r12, r1
    98b0:	baffffde 	blt	9830 <_realloc_r+0x230>
    98b4:	e1a06009 	mov	r6, r9
    98b8:	e599300c 	ldr	r3, [r9, #12]
    98bc:	e5b61008 	ldr	r1, [r6, #8]!
    98c0:	e2472004 	sub	r2, r7, #4
    98c4:	e3520024 	cmp	r2, #36	; 0x24
    98c8:	e581300c 	str	r3, [r1, #12]
    98cc:	e5831008 	str	r1, [r3, #8]
    98d0:	8a000051 	bhi	9a1c <_realloc_r+0x41c>
    98d4:	e3520013 	cmp	r2, #19
    98d8:	91a03006 	movls	r3, r6
    98dc:	9a000014 	bls	9934 <_realloc_r+0x334>
    98e0:	e5943000 	ldr	r3, [r4]
    98e4:	e5893008 	str	r3, [r9, #8]
    98e8:	e5943004 	ldr	r3, [r4, #4]
    98ec:	e352001b 	cmp	r2, #27
    98f0:	e589300c 	str	r3, [r9, #12]
    98f4:	92844008 	addls	r4, r4, #8
    98f8:	92893010 	addls	r3, r9, #16
    98fc:	9a00000c 	bls	9934 <_realloc_r+0x334>
    9900:	e5943008 	ldr	r3, [r4, #8]
    9904:	e5893010 	str	r3, [r9, #16]
    9908:	e594300c 	ldr	r3, [r4, #12]
    990c:	e5893014 	str	r3, [r9, #20]
    9910:	e3520024 	cmp	r2, #36	; 0x24
    9914:	05943010 	ldreq	r3, [r4, #16]
    9918:	05893018 	streq	r3, [r9, #24]
    991c:	05942014 	ldreq	r2, [r4, #20]
    9920:	0589201c 	streq	r2, [r9, #28]
    9924:	12893018 	addne	r3, r9, #24
    9928:	12844010 	addne	r4, r4, #16
    992c:	02893020 	addeq	r3, r9, #32
    9930:	02844018 	addeq	r4, r4, #24
    9934:	e5942000 	ldr	r2, [r4]
    9938:	e5832000 	str	r2, [r3]
    993c:	e5942004 	ldr	r2, [r4, #4]
    9940:	e5832004 	str	r2, [r3, #4]
    9944:	e5942008 	ldr	r2, [r4, #8]
    9948:	e5832008 	str	r2, [r3, #8]
    994c:	e1a04006 	mov	r4, r6
    9950:	e5993004 	ldr	r3, [r9, #4]
    9954:	e1a0600c 	mov	r6, r12
    9958:	e1a0a009 	mov	r10, r9
    995c:	eaffff43 	b	9670 <_realloc_r+0x70>
    9960:	e1a01002 	mov	r1, r2
    9964:	ebfff839 	bl	7a50 <_malloc_r>
    9968:	e1a06000 	mov	r6, r0
    996c:	eaffff4c 	b	96a4 <_realloc_r+0xa4>
    9970:	e59ce004 	ldr	lr, [r12, #4]
    9974:	e3cee003 	bic	lr, lr, #3
    9978:	e08e0007 	add	r0, lr, r7
    997c:	e2856010 	add	r6, r5, #16
    9980:	e1500006 	cmp	r0, r6
    9984:	b1a0000c 	movlt	r0, r12
    9988:	baffff56 	blt	96e8 <_realloc_r+0xe8>
    998c:	e0653000 	rsb	r3, r5, r0
    9990:	e08aa005 	add	r10, r10, r5
    9994:	e3833001 	orr	r3, r3, #1
    9998:	e58a3004 	str	r3, [r10, #4]
    999c:	e5143004 	ldr	r3, [r4, #-4]
    99a0:	e2033001 	and	r3, r3, #1
    99a4:	e1855003 	orr	r5, r5, r3
    99a8:	e59f31c0 	ldr	r3, [pc, #448]	; 9b70 <_realloc_r+0x570>
    99ac:	e5045004 	str	r5, [r4, #-4]
    99b0:	e1a00008 	mov	r0, r8
    99b4:	e583a008 	str	r10, [r3, #8]
    99b8:	e1a06004 	mov	r6, r4
    99bc:	ebfffbc6 	bl	88dc <__malloc_unlock>
    99c0:	eaffff37 	b	96a4 <_realloc_r+0xa4>
    99c4:	e5943000 	ldr	r3, [r4]
    99c8:	e5863000 	str	r3, [r6]
    99cc:	e5943004 	ldr	r3, [r4, #4]
    99d0:	e352001b 	cmp	r2, #27
    99d4:	e5863004 	str	r3, [r6, #4]
    99d8:	92842008 	addls	r2, r4, #8
    99dc:	92863008 	addls	r3, r6, #8
    99e0:	9affffa4 	bls	9878 <_realloc_r+0x278>
    99e4:	e5943008 	ldr	r3, [r4, #8]
    99e8:	e5863008 	str	r3, [r6, #8]
    99ec:	e594300c 	ldr	r3, [r4, #12]
    99f0:	e586300c 	str	r3, [r6, #12]
    99f4:	e3520024 	cmp	r2, #36	; 0x24
    99f8:	05943010 	ldreq	r3, [r4, #16]
    99fc:	05863010 	streq	r3, [r6, #16]
    9a00:	05942014 	ldreq	r2, [r4, #20]
    9a04:	12863010 	addne	r3, r6, #16
    9a08:	05862014 	streq	r2, [r6, #20]
    9a0c:	12842010 	addne	r2, r4, #16
    9a10:	02863018 	addeq	r3, r6, #24
    9a14:	02842018 	addeq	r2, r4, #24
    9a18:	eaffff96 	b	9878 <_realloc_r+0x278>
    9a1c:	e1a01004 	mov	r1, r4
    9a20:	e1a00006 	mov	r0, r6
    9a24:	e58dc004 	str	r12, [sp, #4]
    9a28:	ebfffb10 	bl	8670 <memmove>
    9a2c:	e59dc004 	ldr	r12, [sp, #4]
    9a30:	e1a04006 	mov	r4, r6
    9a34:	e5993004 	ldr	r3, [r9, #4]
    9a38:	e1a0600c 	mov	r6, r12
    9a3c:	e1a0a009 	mov	r10, r9
    9a40:	eaffff0a 	b	9670 <_realloc_r+0x70>
    9a44:	e1a01004 	mov	r1, r4
    9a48:	ebfffb08 	bl	8670 <memmove>
    9a4c:	eaffff8f 	b	9890 <_realloc_r+0x290>
    9a50:	e08e300c 	add	r3, lr, r12
    9a54:	e2850010 	add	r0, r5, #16
    9a58:	e1530000 	cmp	r3, r0
    9a5c:	baffff92 	blt	98ac <_realloc_r+0x2ac>
    9a60:	e1a06009 	mov	r6, r9
    9a64:	e599100c 	ldr	r1, [r9, #12]
    9a68:	e5b60008 	ldr	r0, [r6, #8]!
    9a6c:	e2472004 	sub	r2, r7, #4
    9a70:	e3520024 	cmp	r2, #36	; 0x24
    9a74:	e580100c 	str	r1, [r0, #12]
    9a78:	e5810008 	str	r0, [r1, #8]
    9a7c:	8a000035 	bhi	9b58 <_realloc_r+0x558>
    9a80:	e3520013 	cmp	r2, #19
    9a84:	91a02006 	movls	r2, r6
    9a88:	9a000014 	bls	9ae0 <_realloc_r+0x4e0>
    9a8c:	e5941000 	ldr	r1, [r4]
    9a90:	e5891008 	str	r1, [r9, #8]
    9a94:	e5941004 	ldr	r1, [r4, #4]
    9a98:	e352001b 	cmp	r2, #27
    9a9c:	e589100c 	str	r1, [r9, #12]
    9aa0:	92892010 	addls	r2, r9, #16
    9aa4:	92844008 	addls	r4, r4, #8
    9aa8:	9a00000c 	bls	9ae0 <_realloc_r+0x4e0>
    9aac:	e5941008 	ldr	r1, [r4, #8]
    9ab0:	e5891010 	str	r1, [r9, #16]
    9ab4:	e594100c 	ldr	r1, [r4, #12]
    9ab8:	e5891014 	str	r1, [r9, #20]
    9abc:	e3520024 	cmp	r2, #36	; 0x24
    9ac0:	05942010 	ldreq	r2, [r4, #16]
    9ac4:	05892018 	streq	r2, [r9, #24]
    9ac8:	05941014 	ldreq	r1, [r4, #20]
    9acc:	0589101c 	streq	r1, [r9, #28]
    9ad0:	12892018 	addne	r2, r9, #24
    9ad4:	12844010 	addne	r4, r4, #16
    9ad8:	02892020 	addeq	r2, r9, #32
    9adc:	02844018 	addeq	r4, r4, #24
    9ae0:	e5941000 	ldr	r1, [r4]
    9ae4:	e5821000 	str	r1, [r2]
    9ae8:	e5941004 	ldr	r1, [r4, #4]
    9aec:	e5821004 	str	r1, [r2, #4]
    9af0:	e5941008 	ldr	r1, [r4, #8]
    9af4:	e5821008 	str	r1, [r2, #8]
    9af8:	e0653003 	rsb	r3, r5, r3
    9afc:	e0892005 	add	r2, r9, r5
    9b00:	e3833001 	orr	r3, r3, #1
    9b04:	e5823004 	str	r3, [r2, #4]
    9b08:	e5993004 	ldr	r3, [r9, #4]
    9b0c:	e2033001 	and	r3, r3, #1
    9b10:	e1855003 	orr	r5, r5, r3
    9b14:	e59f3054 	ldr	r3, [pc, #84]	; 9b70 <_realloc_r+0x570>
    9b18:	e5895004 	str	r5, [r9, #4]
    9b1c:	e1a00008 	mov	r0, r8
    9b20:	e5832008 	str	r2, [r3, #8]
    9b24:	ebfffb6c 	bl	88dc <__malloc_unlock>
    9b28:	eafffedd 	b	96a4 <_realloc_r+0xa4>
    9b2c:	e5166004 	ldr	r6, [r6, #-4]
    9b30:	e3c66003 	bic	r6, r6, #3
    9b34:	e0866007 	add	r6, r6, r7
    9b38:	eafffecc 	b	9670 <_realloc_r+0x70>
    9b3c:	e1a01004 	mov	r1, r4
    9b40:	e1a0000a 	mov	r0, r10
    9b44:	ebfffac9 	bl	8670 <memmove>
    9b48:	e1a0400a 	mov	r4, r10
    9b4c:	e5993004 	ldr	r3, [r9, #4]
    9b50:	e1a0a009 	mov	r10, r9
    9b54:	eafffec5 	b	9670 <_realloc_r+0x70>
    9b58:	e1a00006 	mov	r0, r6
    9b5c:	e1a01004 	mov	r1, r4
    9b60:	e58d3004 	str	r3, [sp, #4]
    9b64:	ebfffac1 	bl	8670 <memmove>
    9b68:	e59d3004 	ldr	r3, [sp, #4]
    9b6c:	eaffffe1 	b	9af8 <_realloc_r+0x4f8>
    9b70:	000140b0 	.word	0x000140b0

00009b74 <lflush>:
    9b74:	e92d4008 	push	{r3, lr}
    9b78:	e1d030bc 	ldrh	r3, [r0, #12]
    9b7c:	e2033009 	and	r3, r3, #9
    9b80:	e3530009 	cmp	r3, #9
    9b84:	13a00000 	movne	r0, #0
    9b88:	0a000001 	beq	9b94 <lflush+0x20>
    9b8c:	e8bd4008 	pop	{r3, lr}
    9b90:	e12fff1e 	bx	lr
    9b94:	ebfff368 	bl	693c <fflush>
    9b98:	eafffffb 	b	9b8c <lflush+0x18>

00009b9c <__srefill_r>:
    9b9c:	e92d4038 	push	{r3, r4, r5, lr}
    9ba0:	e2505000 	subs	r5, r0, #0
    9ba4:	e1a04001 	mov	r4, r1
    9ba8:	0a000002 	beq	9bb8 <__srefill_r+0x1c>
    9bac:	e5953038 	ldr	r3, [r5, #56]	; 0x38
    9bb0:	e3530000 	cmp	r3, #0
    9bb4:	0a00003b 	beq	9ca8 <__srefill_r+0x10c>
    9bb8:	e1d430bc 	ldrh	r3, [r4, #12]
    9bbc:	e3130a02 	tst	r3, #8192	; 0x2000
    9bc0:	05942064 	ldreq	r2, [r4, #100]	; 0x64
    9bc4:	03833a02 	orreq	r3, r3, #8192	; 0x2000
    9bc8:	03c22a02 	biceq	r2, r2, #8192	; 0x2000
    9bcc:	05842064 	streq	r2, [r4, #100]	; 0x64
    9bd0:	01c430bc 	strheq	r3, [r4, #12]
    9bd4:	e3a02000 	mov	r2, #0
    9bd8:	e3130020 	tst	r3, #32
    9bdc:	e5842004 	str	r2, [r4, #4]
    9be0:	e1a02003 	mov	r2, r3
    9be4:	1a00002d 	bne	9ca0 <__srefill_r+0x104>
    9be8:	e3130004 	tst	r3, #4
    9bec:	0a000020 	beq	9c74 <__srefill_r+0xd8>
    9bf0:	e5941030 	ldr	r1, [r4, #48]	; 0x30
    9bf4:	e3510000 	cmp	r1, #0
    9bf8:	0a000009 	beq	9c24 <__srefill_r+0x88>
    9bfc:	e2843040 	add	r3, r4, #64	; 0x40
    9c00:	e1510003 	cmp	r1, r3
    9c04:	11a00005 	movne	r0, r5
    9c08:	1bfff4eb 	blne	6fbc <_free_r>
    9c0c:	e594303c 	ldr	r3, [r4, #60]	; 0x3c
    9c10:	e3a00000 	mov	r0, #0
    9c14:	e1530000 	cmp	r3, r0
    9c18:	e5840030 	str	r0, [r4, #48]	; 0x30
    9c1c:	e5843004 	str	r3, [r4, #4]
    9c20:	1a00002d 	bne	9cdc <__srefill_r+0x140>
    9c24:	e5943010 	ldr	r3, [r4, #16]
    9c28:	e3530000 	cmp	r3, #0
    9c2c:	0a000037 	beq	9d10 <__srefill_r+0x174>
    9c30:	e1d430bc 	ldrh	r3, [r4, #12]
    9c34:	e3130003 	tst	r3, #3
    9c38:	1a00001c 	bne	9cb0 <__srefill_r+0x114>
    9c3c:	e5942010 	ldr	r2, [r4, #16]
    9c40:	e1a00005 	mov	r0, r5
    9c44:	e5842000 	str	r2, [r4]
    9c48:	e594101c 	ldr	r1, [r4, #28]
    9c4c:	e5943014 	ldr	r3, [r4, #20]
    9c50:	e594c020 	ldr	r12, [r4, #32]
    9c54:	e1a0e00f 	mov	lr, pc
    9c58:	e12fff1c 	bx	r12
    9c5c:	e3500000 	cmp	r0, #0
    9c60:	e5840004 	str	r0, [r4, #4]
    9c64:	c3a00000 	movgt	r0, #0
    9c68:	da000008 	ble	9c90 <__srefill_r+0xf4>
    9c6c:	e8bd4038 	pop	{r3, r4, r5, lr}
    9c70:	e12fff1e 	bx	lr
    9c74:	e3120010 	tst	r2, #16
    9c78:	0a000028 	beq	9d20 <__srefill_r+0x184>
    9c7c:	e3120008 	tst	r2, #8
    9c80:	1a000018 	bne	9ce8 <__srefill_r+0x14c>
    9c84:	e3833004 	orr	r3, r3, #4
    9c88:	e1c430bc 	strh	r3, [r4, #12]
    9c8c:	eaffffe4 	b	9c24 <__srefill_r+0x88>
    9c90:	e1d430bc 	ldrh	r3, [r4, #12]
    9c94:	1a00000a 	bne	9cc4 <__srefill_r+0x128>
    9c98:	e3833020 	orr	r3, r3, #32
    9c9c:	e1c430bc 	strh	r3, [r4, #12]
    9ca0:	e3e00000 	mvn	r0, #0
    9ca4:	eafffff0 	b	9c6c <__srefill_r+0xd0>
    9ca8:	ebfff372 	bl	6a78 <__sinit>
    9cac:	eaffffc1 	b	9bb8 <__srefill_r+0x1c>
    9cb0:	e59f3080 	ldr	r3, [pc, #128]	; 9d38 <__srefill_r+0x19c>
    9cb4:	e59f1080 	ldr	r1, [pc, #128]	; 9d3c <__srefill_r+0x1a0>
    9cb8:	e5930000 	ldr	r0, [r3]
    9cbc:	ebfff68a 	bl	76ec <_fwalk>
    9cc0:	eaffffdd 	b	9c3c <__srefill_r+0xa0>
    9cc4:	e3833040 	orr	r3, r3, #64	; 0x40
    9cc8:	e3a02000 	mov	r2, #0
    9ccc:	e5842004 	str	r2, [r4, #4]
    9cd0:	e1c430bc 	strh	r3, [r4, #12]
    9cd4:	e3e00000 	mvn	r0, #0
    9cd8:	eaffffe3 	b	9c6c <__srefill_r+0xd0>
    9cdc:	e5943038 	ldr	r3, [r4, #56]	; 0x38
    9ce0:	e5843000 	str	r3, [r4]
    9ce4:	eaffffe0 	b	9c6c <__srefill_r+0xd0>
    9ce8:	e1a00005 	mov	r0, r5
    9cec:	e1a01004 	mov	r1, r4
    9cf0:	ebfff286 	bl	6710 <_fflush_r>
    9cf4:	e3500000 	cmp	r0, #0
    9cf8:	1affffe8 	bne	9ca0 <__srefill_r+0x104>
    9cfc:	e1d430bc 	ldrh	r3, [r4, #12]
    9d00:	e5840008 	str	r0, [r4, #8]
    9d04:	e3c33008 	bic	r3, r3, #8
    9d08:	e5840018 	str	r0, [r4, #24]
    9d0c:	eaffffdc 	b	9c84 <__srefill_r+0xe8>
    9d10:	e1a00005 	mov	r0, r5
    9d14:	e1a01004 	mov	r1, r4
    9d18:	ebfff6f5 	bl	78f4 <__smakebuf_r>
    9d1c:	eaffffc3 	b	9c30 <__srefill_r+0x94>
    9d20:	e3822040 	orr	r2, r2, #64	; 0x40
    9d24:	e3a03009 	mov	r3, #9
    9d28:	e5853000 	str	r3, [r5]
    9d2c:	e3e00000 	mvn	r0, #0
    9d30:	e1c420bc 	strh	r2, [r4, #12]
    9d34:	eaffffcc 	b	9c6c <__srefill_r+0xd0>
    9d38:	00013804 	.word	0x00013804
    9d3c:	00009b74 	.word	0x00009b74

00009d40 <__fpclassifyd>:
    9d40:	e1902001 	orrs	r2, r0, r1
    9d44:	1a000001 	bne	9d50 <__fpclassifyd+0x10>
    9d48:	e3a00002 	mov	r0, #2
    9d4c:	e12fff1e 	bx	lr
    9d50:	e2702001 	rsbs	r2, r0, #1
    9d54:	33a02000 	movcc	r2, #0
    9d58:	e3510102 	cmp	r1, #-2147483648	; 0x80000000
    9d5c:	03500000 	cmpeq	r0, #0
    9d60:	0afffff8 	beq	9d48 <__fpclassifyd+0x8>
    9d64:	e3c13102 	bic	r3, r1, #-2147483648	; 0x80000000
    9d68:	e59f1034 	ldr	r1, [pc, #52]	; 9da4 <__fpclassifyd+0x64>
    9d6c:	e2430601 	sub	r0, r3, #1048576	; 0x100000
    9d70:	e1500001 	cmp	r0, r1
    9d74:	8a000001 	bhi	9d80 <__fpclassifyd+0x40>
    9d78:	e3a00004 	mov	r0, #4
    9d7c:	e12fff1e 	bx	lr
    9d80:	e3530601 	cmp	r3, #1048576	; 0x100000
    9d84:	2a000001 	bcs	9d90 <__fpclassifyd+0x50>
    9d88:	e3a00003 	mov	r0, #3
    9d8c:	e12fff1e 	bx	lr
    9d90:	e59f0010 	ldr	r0, [pc, #16]	; 9da8 <__fpclassifyd+0x68>
    9d94:	e1530000 	cmp	r3, r0
    9d98:	13a00000 	movne	r0, #0
    9d9c:	02020001 	andeq	r0, r2, #1
    9da0:	e12fff1e 	bx	lr
    9da4:	7fdfffff 	.word	0x7fdfffff
    9da8:	7ff00000 	.word	0x7ff00000

00009dac <_sbrk_r>:
    9dac:	e92d4038 	push	{r3, r4, r5, lr}
    9db0:	e59f4030 	ldr	r4, [pc, #48]	; 9de8 <_sbrk_r+0x3c>
    9db4:	e3a03000 	mov	r3, #0
    9db8:	e1a05000 	mov	r5, r0
    9dbc:	e1a00001 	mov	r0, r1
    9dc0:	e5843000 	str	r3, [r4]
    9dc4:	eb002539 	bl	132b0 <_sbrk>
    9dc8:	e3700001 	cmn	r0, #1
    9dcc:	0a000001 	beq	9dd8 <_sbrk_r+0x2c>
    9dd0:	e8bd4038 	pop	{r3, r4, r5, lr}
    9dd4:	e12fff1e 	bx	lr
    9dd8:	e5943000 	ldr	r3, [r4]
    9ddc:	e3530000 	cmp	r3, #0
    9de0:	15853000 	strne	r3, [r5]
    9de4:	eafffff9 	b	9dd0 <_sbrk_r+0x24>
    9de8:	00014654 	.word	0x00014654

00009dec <__sccl>:
    9dec:	e92d0070 	push	{r4, r5, r6}
    9df0:	e5d14000 	ldrb	r4, [r1]
    9df4:	e354005e 	cmp	r4, #94	; 0x5e
    9df8:	13a0c000 	movne	r12, #0
    9dfc:	03a0c001 	moveq	r12, #1
    9e00:	e1a02000 	mov	r2, r0
    9e04:	05d14001 	ldrbeq	r4, [r1, #1]
    9e08:	12810001 	addne	r0, r1, #1
    9e0c:	02810002 	addeq	r0, r1, #2
    9e10:	e3a03000 	mov	r3, #0
    9e14:	e1a0100c 	mov	r1, r12
    9e18:	e7c2c003 	strb	r12, [r2, r3]
    9e1c:	e2833001 	add	r3, r3, #1
    9e20:	e3530c01 	cmp	r3, #256	; 0x100
    9e24:	1afffffb 	bne	9e18 <__sccl+0x2c>
    9e28:	e3540000 	cmp	r4, #0
    9e2c:	02400001 	subeq	r0, r0, #1
    9e30:	1221c001 	eorne	r12, r1, #1
    9e34:	0a000008 	beq	9e5c <__sccl+0x70>
    9e38:	e7c2c004 	strb	r12, [r2, r4]
    9e3c:	e2801001 	add	r1, r0, #1
    9e40:	e5513001 	ldrb	r3, [r1, #-1]
    9e44:	e353002d 	cmp	r3, #45	; 0x2d
    9e48:	0a00000a 	beq	9e78 <__sccl+0x8c>
    9e4c:	e353005d 	cmp	r3, #93	; 0x5d
    9e50:	0a000006 	beq	9e70 <__sccl+0x84>
    9e54:	e3530000 	cmp	r3, #0
    9e58:	1a000001 	bne	9e64 <__sccl+0x78>
    9e5c:	e8bd0070 	pop	{r4, r5, r6}
    9e60:	e12fff1e 	bx	lr
    9e64:	e1a04003 	mov	r4, r3
    9e68:	e1a00001 	mov	r0, r1
    9e6c:	eafffff1 	b	9e38 <__sccl+0x4c>
    9e70:	e1a00001 	mov	r0, r1
    9e74:	eafffff8 	b	9e5c <__sccl+0x70>
    9e78:	e5d05001 	ldrb	r5, [r0, #1]
    9e7c:	e355005d 	cmp	r5, #93	; 0x5d
    9e80:	13a06000 	movne	r6, #0
    9e84:	03a06001 	moveq	r6, #1
    9e88:	e1550004 	cmp	r5, r4
    9e8c:	b3866001 	orrlt	r6, r6, #1
    9e90:	e3560000 	cmp	r6, #0
    9e94:	1afffff2 	bne	9e64 <__sccl+0x78>
    9e98:	e2800002 	add	r0, r0, #2
    9e9c:	e0823004 	add	r3, r2, r4
    9ea0:	e2844001 	add	r4, r4, #1
    9ea4:	e1550004 	cmp	r5, r4
    9ea8:	e5e3c001 	strb	r12, [r3, #1]!
    9eac:	cafffffb 	bgt	9ea0 <__sccl+0xb4>
    9eb0:	e2811002 	add	r1, r1, #2
    9eb4:	eaffffe1 	b	9e40 <__sccl+0x54>

00009eb8 <nanf>:
    9eb8:	e59f0000 	ldr	r0, [pc]	; 9ec0 <nanf+0x8>
    9ebc:	e12fff1e 	bx	lr
    9ec0:	7fc00000 	.word	0x7fc00000

00009ec4 <_sprintf_r>:
    9ec4:	e92d000c 	push	{r2, r3}
    9ec8:	e92d4030 	push	{r4, r5, lr}
    9ecc:	e24dd074 	sub	sp, sp, #116	; 0x74
    9ed0:	e28dc084 	add	r12, sp, #132	; 0x84
    9ed4:	e3e0e102 	mvn	lr, #-2147483648	; 0x80000000
    9ed8:	e1a04001 	mov	r4, r1
    9edc:	e59d2080 	ldr	r2, [sp, #128]	; 0x80
    9ee0:	e1a0300c 	mov	r3, r12
    9ee4:	e58de010 	str	lr, [sp, #16]
    9ee8:	e58de01c 	str	lr, [sp, #28]
    9eec:	e28d1008 	add	r1, sp, #8
    9ef0:	e3e0e000 	mvn	lr, #0
    9ef4:	e3a05f82 	mov	r5, #520	; 0x208
    9ef8:	e1cd51b4 	strh	r5, [sp, #20]
    9efc:	e58d4008 	str	r4, [sp, #8]
    9f00:	e58d4018 	str	r4, [sp, #24]
    9f04:	e1cde1b6 	strh	lr, [sp, #22]
    9f08:	e58dc004 	str	r12, [sp, #4]
    9f0c:	eb0008f5 	bl	c2e8 <_svfprintf_r>
    9f10:	e59d3008 	ldr	r3, [sp, #8]
    9f14:	e3a02000 	mov	r2, #0
    9f18:	e5c32000 	strb	r2, [r3]
    9f1c:	e28dd074 	add	sp, sp, #116	; 0x74
    9f20:	e8bd4030 	pop	{r4, r5, lr}
    9f24:	e28dd008 	add	sp, sp, #8
    9f28:	e12fff1e 	bx	lr

00009f2c <sprintf>:
    9f2c:	e92d000e 	push	{r1, r2, r3}
    9f30:	e92d4030 	push	{r4, r5, lr}
    9f34:	e59f3060 	ldr	r3, [pc, #96]	; 9f9c <sprintf+0x70>
    9f38:	e24dd070 	sub	sp, sp, #112	; 0x70
    9f3c:	e28dc080 	add	r12, sp, #128	; 0x80
    9f40:	e3e0e102 	mvn	lr, #-2147483648	; 0x80000000
    9f44:	e1a04000 	mov	r4, r0
    9f48:	e59d207c 	ldr	r2, [sp, #124]	; 0x7c
    9f4c:	e58de010 	str	lr, [sp, #16]
    9f50:	e58de01c 	str	lr, [sp, #28]
    9f54:	e5930000 	ldr	r0, [r3]
    9f58:	e3e0e000 	mvn	lr, #0
    9f5c:	e1a0300c 	mov	r3, r12
    9f60:	e28d1008 	add	r1, sp, #8
    9f64:	e3a05f82 	mov	r5, #520	; 0x208
    9f68:	e1cd51b4 	strh	r5, [sp, #20]
    9f6c:	e58d4008 	str	r4, [sp, #8]
    9f70:	e58d4018 	str	r4, [sp, #24]
    9f74:	e1cde1b6 	strh	lr, [sp, #22]
    9f78:	e58dc004 	str	r12, [sp, #4]
    9f7c:	eb0008d9 	bl	c2e8 <_svfprintf_r>
    9f80:	e59d3008 	ldr	r3, [sp, #8]
    9f84:	e3a02000 	mov	r2, #0
    9f88:	e5c32000 	strb	r2, [r3]
    9f8c:	e28dd070 	add	sp, sp, #112	; 0x70
    9f90:	e8bd4030 	pop	{r4, r5, lr}
    9f94:	e28dd00c 	add	sp, sp, #12
    9f98:	e12fff1e 	bx	lr
    9f9c:	00013c00 	.word	0x00013c00

00009fa0 <__sread>:
    9fa0:	e92d4010 	push	{r4, lr}
    9fa4:	e1a04001 	mov	r4, r1
    9fa8:	e1d110fe 	ldrsh	r1, [r1, #14]
    9fac:	eb001a2a 	bl	1085c <_read_r>
    9fb0:	e3500000 	cmp	r0, #0
    9fb4:	a5943050 	ldrge	r3, [r4, #80]	; 0x50
    9fb8:	b1d430bc 	ldrhlt	r3, [r4, #12]
    9fbc:	a0833000 	addge	r3, r3, r0
    9fc0:	b3c33a01 	biclt	r3, r3, #4096	; 0x1000
    9fc4:	a5843050 	strge	r3, [r4, #80]	; 0x50
    9fc8:	b1c430bc 	strhlt	r3, [r4, #12]
    9fcc:	e8bd4010 	pop	{r4, lr}
    9fd0:	e12fff1e 	bx	lr

00009fd4 <__seofread>:
    9fd4:	e3a00000 	mov	r0, #0
    9fd8:	e12fff1e 	bx	lr

00009fdc <__swrite>:
    9fdc:	e92d40f8 	push	{r3, r4, r5, r6, r7, lr}
    9fe0:	e1a04001 	mov	r4, r1
    9fe4:	e1d110bc 	ldrh	r1, [r1, #12]
    9fe8:	e3110c01 	tst	r1, #256	; 0x100
    9fec:	e1a07000 	mov	r7, r0
    9ff0:	e1a06002 	mov	r6, r2
    9ff4:	e1a05003 	mov	r5, r3
    9ff8:	0a000004 	beq	a010 <__swrite+0x34>
    9ffc:	e1d410fe 	ldrsh	r1, [r4, #14]
    a000:	e3a02000 	mov	r2, #0
    a004:	e3a03002 	mov	r3, #2
    a008:	eb001a02 	bl	10818 <_lseek_r>
    a00c:	e1d410bc 	ldrh	r1, [r4, #12]
    a010:	e3c11a01 	bic	r1, r1, #4096	; 0x1000
    a014:	e1c410bc 	strh	r1, [r4, #12]
    a018:	e1a00007 	mov	r0, r7
    a01c:	e1d410fe 	ldrsh	r1, [r4, #14]
    a020:	e1a02006 	mov	r2, r6
    a024:	e1a03005 	mov	r3, r5
    a028:	eb0015ce 	bl	f768 <_write_r>
    a02c:	e8bd40f8 	pop	{r3, r4, r5, r6, r7, lr}
    a030:	e12fff1e 	bx	lr

0000a034 <__sseek>:
    a034:	e92d4010 	push	{r4, lr}
    a038:	e1a04001 	mov	r4, r1
    a03c:	e1d110fe 	ldrsh	r1, [r1, #14]
    a040:	eb0019f4 	bl	10818 <_lseek_r>
    a044:	e1d430bc 	ldrh	r3, [r4, #12]
    a048:	e3700001 	cmn	r0, #1
    a04c:	03c33a01 	biceq	r3, r3, #4096	; 0x1000
    a050:	13833a01 	orrne	r3, r3, #4096	; 0x1000
    a054:	01c430bc 	strheq	r3, [r4, #12]
    a058:	11c430bc 	strhne	r3, [r4, #12]
    a05c:	15840050 	strne	r0, [r4, #80]	; 0x50
    a060:	e8bd4010 	pop	{r4, lr}
    a064:	e12fff1e 	bx	lr

0000a068 <__sclose>:
    a068:	e92d4008 	push	{r3, lr}
    a06c:	e1d110fe 	ldrsh	r1, [r1, #14]
    a070:	eb0015f2 	bl	f840 <_close_r>
    a074:	e8bd4008 	pop	{r3, lr}
    a078:	e12fff1e 	bx	lr

0000a07c <strcmp>:
    a07c:	e0202001 	eor	r2, r0, r1
    a080:	e3120003 	tst	r2, #3
    a084:	1a000021 	bne	a110 <strcmp_unaligned>
    a088:	e2102003 	ands	r2, r0, #3
    a08c:	e3c00003 	bic	r0, r0, #3
    a090:	e3c11003 	bic	r1, r1, #3
    a094:	e490c004 	ldr	r12, [r0], #4
    a098:	04913004 	ldreq	r3, [r1], #4
    a09c:	0a000006 	beq	a0bc <strcmp+0x40>
    a0a0:	e2222003 	eor	r2, r2, #3
    a0a4:	e1a02182 	lsl	r2, r2, #3
    a0a8:	e3e034ff 	mvn	r3, #-16777216	; 0xff000000
    a0ac:	e1a02233 	lsr	r2, r3, r2
    a0b0:	e4913004 	ldr	r3, [r1], #4
    a0b4:	e18cc002 	orr	r12, r12, r2
    a0b8:	e1833002 	orr	r3, r3, r2
    a0bc:	e52d4004 	push	{r4}		; (str r4, [sp, #-4]!)
    a0c0:	e3a04001 	mov	r4, #1
    a0c4:	e1844404 	orr	r4, r4, r4, lsl #8
    a0c8:	e1844804 	orr	r4, r4, r4, lsl #16
    a0cc:	e04c2004 	sub	r2, r12, r4
    a0d0:	e15c0003 	cmp	r12, r3
    a0d4:	01c2200c 	biceq	r2, r2, r12
    a0d8:	01120384 	tsteq	r2, r4, lsl #7
    a0dc:	0490c004 	ldreq	r12, [r0], #4
    a0e0:	04913004 	ldreq	r3, [r1], #4
    a0e4:	0afffff8 	beq	a0cc <strcmp+0x50>
    a0e8:	e1a00c0c 	lsl	r0, r12, #24
    a0ec:	e1a0c42c 	lsr	r12, r12, #8
    a0f0:	e3500001 	cmp	r0, #1
    a0f4:	21500c03 	cmpcs	r0, r3, lsl #24
    a0f8:	01a03423 	lsreq	r3, r3, #8
    a0fc:	0afffff9 	beq	a0e8 <strcmp+0x6c>
    a100:	e20330ff 	and	r3, r3, #255	; 0xff
    a104:	e0630c20 	rsb	r0, r3, r0, lsr #24
    a108:	e49d4004 	pop	{r4}		; (ldr r4, [sp], #4)
    a10c:	e12fff1e 	bx	lr

0000a110 <strcmp_unaligned>:
    a110:	e3100003 	tst	r0, #3
    a114:	0a000006 	beq	a134 <strcmp_unaligned+0x24>
    a118:	e4d02001 	ldrb	r2, [r0], #1
    a11c:	e4d13001 	ldrb	r3, [r1], #1
    a120:	e3520001 	cmp	r2, #1
    a124:	21520003 	cmpcs	r2, r3
    a128:	0afffff8 	beq	a110 <strcmp_unaligned>
    a12c:	e0420003 	sub	r0, r2, r3
    a130:	e12fff1e 	bx	lr
    a134:	e52d5004 	push	{r5}		; (str r5, [sp, #-4]!)
    a138:	e52d4004 	push	{r4}		; (str r4, [sp, #-4]!)
    a13c:	e3a02001 	mov	r2, #1
    a140:	e1822402 	orr	r2, r2, r2, lsl #8
    a144:	e1822802 	orr	r2, r2, r2, lsl #16
    a148:	e201c003 	and	r12, r1, #3
    a14c:	e3c11003 	bic	r1, r1, #3
    a150:	e4904004 	ldr	r4, [r0], #4
    a154:	e4915004 	ldr	r5, [r1], #4
    a158:	e35c0002 	cmp	r12, #2
    a15c:	0a000017 	beq	a1c0 <strcmp_unaligned+0xb0>
    a160:	8a00002d 	bhi	a21c <strcmp_unaligned+0x10c>
    a164:	e3c4c4ff 	bic	r12, r4, #-16777216	; 0xff000000
    a168:	e15c0425 	cmp	r12, r5, lsr #8
    a16c:	e0443002 	sub	r3, r4, r2
    a170:	e1c33004 	bic	r3, r3, r4
    a174:	1a000007 	bne	a198 <strcmp_unaligned+0x88>
    a178:	e0133382 	ands	r3, r3, r2, lsl #7
    a17c:	04915004 	ldreq	r5, [r1], #4
    a180:	1a000006 	bne	a1a0 <strcmp_unaligned+0x90>
    a184:	e02cc004 	eor	r12, r12, r4
    a188:	e15c0c05 	cmp	r12, r5, lsl #24
    a18c:	1a000008 	bne	a1b4 <strcmp_unaligned+0xa4>
    a190:	e4904004 	ldr	r4, [r0], #4
    a194:	eafffff2 	b	a164 <strcmp_unaligned+0x54>
    a198:	e1a05425 	lsr	r5, r5, #8
    a19c:	ea000037 	b	a280 <strcmp_unaligned+0x170>
    a1a0:	e3d334ff 	bics	r3, r3, #-16777216	; 0xff000000
    a1a4:	1a000031 	bne	a270 <strcmp_unaligned+0x160>
    a1a8:	e5d15000 	ldrb	r5, [r1]
    a1ac:	e1a0cc24 	lsr	r12, r4, #24
    a1b0:	ea000032 	b	a280 <strcmp_unaligned+0x170>
    a1b4:	e1a0cc24 	lsr	r12, r4, #24
    a1b8:	e20550ff 	and	r5, r5, #255	; 0xff
    a1bc:	ea00002f 	b	a280 <strcmp_unaligned+0x170>
    a1c0:	e1a0c804 	lsl	r12, r4, #16
    a1c4:	e0443002 	sub	r3, r4, r2
    a1c8:	e1a0c82c 	lsr	r12, r12, #16
    a1cc:	e1c33004 	bic	r3, r3, r4
    a1d0:	e15c0825 	cmp	r12, r5, lsr #16
    a1d4:	1a00000e 	bne	a214 <strcmp_unaligned+0x104>
    a1d8:	e0133382 	ands	r3, r3, r2, lsl #7
    a1dc:	04915004 	ldreq	r5, [r1], #4
    a1e0:	1a000004 	bne	a1f8 <strcmp_unaligned+0xe8>
    a1e4:	e02cc004 	eor	r12, r12, r4
    a1e8:	e15c0805 	cmp	r12, r5, lsl #16
    a1ec:	1a000006 	bne	a20c <strcmp_unaligned+0xfc>
    a1f0:	e4904004 	ldr	r4, [r0], #4
    a1f4:	eafffff1 	b	a1c0 <strcmp_unaligned+0xb0>
    a1f8:	e1b03803 	lsls	r3, r3, #16
    a1fc:	1a00001b 	bne	a270 <strcmp_unaligned+0x160>
    a200:	e1d150b0 	ldrh	r5, [r1]
    a204:	e1a0c824 	lsr	r12, r4, #16
    a208:	ea00001c 	b	a280 <strcmp_unaligned+0x170>
    a20c:	e1a05805 	lsl	r5, r5, #16
    a210:	e1a0c824 	lsr	r12, r4, #16
    a214:	e1a05825 	lsr	r5, r5, #16
    a218:	ea000018 	b	a280 <strcmp_unaligned+0x170>
    a21c:	e204c0ff 	and	r12, r4, #255	; 0xff
    a220:	e15c0c25 	cmp	r12, r5, lsr #24
    a224:	e0443002 	sub	r3, r4, r2
    a228:	e1c33004 	bic	r3, r3, r4
    a22c:	1a000007 	bne	a250 <strcmp_unaligned+0x140>
    a230:	e0133382 	ands	r3, r3, r2, lsl #7
    a234:	04915004 	ldreq	r5, [r1], #4
    a238:	1a000006 	bne	a258 <strcmp_unaligned+0x148>
    a23c:	e02cc004 	eor	r12, r12, r4
    a240:	e15c0405 	cmp	r12, r5, lsl #8
    a244:	1a000006 	bne	a264 <strcmp_unaligned+0x154>
    a248:	e4904004 	ldr	r4, [r0], #4
    a24c:	eafffff2 	b	a21c <strcmp_unaligned+0x10c>
    a250:	e1a05c25 	lsr	r5, r5, #24
    a254:	ea000009 	b	a280 <strcmp_unaligned+0x170>
    a258:	e31400ff 	tst	r4, #255	; 0xff
    a25c:	0a000003 	beq	a270 <strcmp_unaligned+0x160>
    a260:	e4915004 	ldr	r5, [r1], #4
    a264:	e1a0c424 	lsr	r12, r4, #8
    a268:	e3c554ff 	bic	r5, r5, #-16777216	; 0xff000000
    a26c:	ea000003 	b	a280 <strcmp_unaligned+0x170>
    a270:	e3a00000 	mov	r0, #0
    a274:	e49d4004 	pop	{r4}		; (ldr r4, [sp], #4)
    a278:	e49d5004 	pop	{r5}		; (ldr r5, [sp], #4)
    a27c:	e12fff1e 	bx	lr
    a280:	e20c20ff 	and	r2, r12, #255	; 0xff
    a284:	e20500ff 	and	r0, r5, #255	; 0xff
    a288:	e3500001 	cmp	r0, #1
    a28c:	21500002 	cmpcs	r0, r2
    a290:	01a0c42c 	lsreq	r12, r12, #8
    a294:	01a05425 	lsreq	r5, r5, #8
    a298:	0afffff8 	beq	a280 <strcmp_unaligned+0x170>
    a29c:	e0420000 	sub	r0, r2, r0
    a2a0:	e49d4004 	pop	{r4}		; (ldr r4, [sp], #4)
    a2a4:	e49d5004 	pop	{r5}		; (ldr r5, [sp], #4)
    a2a8:	e12fff1e 	bx	lr
    a2ac:	00000000 	andeq	r0, r0, r0

0000a2b0 <_strtod_r>:
    a2b0:	e92d4ff0 	push	{r4, r5, r6, r7, r8, r9, r10, r11, lr}
    a2b4:	e24dd074 	sub	sp, sp, #116	; 0x74
    a2b8:	e1a05001 	mov	r5, r1
    a2bc:	e58d105c 	str	r1, [sp, #92]	; 0x5c
    a2c0:	e1a0b000 	mov	r11, r0
    a2c4:	e3a01000 	mov	r1, #0
    a2c8:	e3a00000 	mov	r0, #0
    a2cc:	e58d0018 	str	r0, [sp, #24]
    a2d0:	e58d101c 	str	r1, [sp, #28]
    a2d4:	e58d2040 	str	r2, [sp, #64]	; 0x40
    a2d8:	e1a02005 	mov	r2, r5
    a2dc:	e1a01002 	mov	r1, r2
    a2e0:	e4d23001 	ldrb	r3, [r2], #1
    a2e4:	e353002d 	cmp	r3, #45	; 0x2d
    a2e8:	979ff103 	ldrls	pc, [pc, r3, lsl #2]
    a2ec:	ea00006d 	b	a4a8 <_strtod_r+0x1f8>
    a2f0:	0000a464 	.word	0x0000a464
    a2f4:	0000a4a8 	.word	0x0000a4a8
    a2f8:	0000a4a8 	.word	0x0000a4a8
    a2fc:	0000a4a8 	.word	0x0000a4a8
    a300:	0000a4a8 	.word	0x0000a4a8
    a304:	0000a4a8 	.word	0x0000a4a8
    a308:	0000a4a8 	.word	0x0000a4a8
    a30c:	0000a4a8 	.word	0x0000a4a8
    a310:	0000a4a8 	.word	0x0000a4a8
    a314:	0000a45c 	.word	0x0000a45c
    a318:	0000a45c 	.word	0x0000a45c
    a31c:	0000a45c 	.word	0x0000a45c
    a320:	0000a45c 	.word	0x0000a45c
    a324:	0000a45c 	.word	0x0000a45c
    a328:	0000a4a8 	.word	0x0000a4a8
    a32c:	0000a4a8 	.word	0x0000a4a8
    a330:	0000a4a8 	.word	0x0000a4a8
    a334:	0000a4a8 	.word	0x0000a4a8
    a338:	0000a4a8 	.word	0x0000a4a8
    a33c:	0000a4a8 	.word	0x0000a4a8
    a340:	0000a4a8 	.word	0x0000a4a8
    a344:	0000a4a8 	.word	0x0000a4a8
    a348:	0000a4a8 	.word	0x0000a4a8
    a34c:	0000a4a8 	.word	0x0000a4a8
    a350:	0000a4a8 	.word	0x0000a4a8
    a354:	0000a4a8 	.word	0x0000a4a8
    a358:	0000a4a8 	.word	0x0000a4a8
    a35c:	0000a4a8 	.word	0x0000a4a8
    a360:	0000a4a8 	.word	0x0000a4a8
    a364:	0000a4a8 	.word	0x0000a4a8
    a368:	0000a4a8 	.word	0x0000a4a8
    a36c:	0000a4a8 	.word	0x0000a4a8
    a370:	0000a45c 	.word	0x0000a45c
    a374:	0000a4a8 	.word	0x0000a4a8
    a378:	0000a4a8 	.word	0x0000a4a8
    a37c:	0000a4a8 	.word	0x0000a4a8
    a380:	0000a4a8 	.word	0x0000a4a8
    a384:	0000a4a8 	.word	0x0000a4a8
    a388:	0000a4a8 	.word	0x0000a4a8
    a38c:	0000a4a8 	.word	0x0000a4a8
    a390:	0000a4a8 	.word	0x0000a4a8
    a394:	0000a4a8 	.word	0x0000a4a8
    a398:	0000a4a8 	.word	0x0000a4a8
    a39c:	0000a450 	.word	0x0000a450
    a3a0:	0000a4a8 	.word	0x0000a4a8
    a3a4:	0000a3a8 	.word	0x0000a3a8
    a3a8:	e3a04001 	mov	r4, #1
    a3ac:	e58d4048 	str	r4, [sp, #72]	; 0x48
    a3b0:	e2818001 	add	r8, r1, #1
    a3b4:	e58d805c 	str	r8, [sp, #92]	; 0x5c
    a3b8:	e5d13001 	ldrb	r3, [r1, #1]
    a3bc:	e3530000 	cmp	r3, #0
    a3c0:	01a09003 	moveq	r9, r3
    a3c4:	01a0a009 	moveq	r10, r9
    a3c8:	0a000027 	beq	a46c <_strtod_r+0x1bc>
    a3cc:	e3530030 	cmp	r3, #48	; 0x30
    a3d0:	13a04000 	movne	r4, #0
    a3d4:	158d4028 	strne	r4, [sp, #40]	; 0x28
    a3d8:	0a000039 	beq	a4c4 <_strtod_r+0x214>
    a3dc:	e353002f 	cmp	r3, #47	; 0x2f
    a3e0:	e3a0c000 	mov	r12, #0
    a3e4:	e1a06003 	mov	r6, r3
    a3e8:	da000046 	ble	a508 <_strtod_r+0x258>
    a3ec:	e3530039 	cmp	r3, #57	; 0x39
    a3f0:	ca000044 	bgt	a508 <_strtod_r+0x258>
    a3f4:	e2882001 	add	r2, r8, #1
    a3f8:	e1a0700c 	mov	r7, r12
    a3fc:	e1a0400c 	mov	r4, r12
    a400:	ea00000b 	b	a434 <_strtod_r+0x184>
    a404:	e0877107 	add	r7, r7, r7, lsl #2
    a408:	e0837087 	add	r7, r3, r7, lsl #1
    a40c:	e2477030 	sub	r7, r7, #48	; 0x30
    a410:	e58d205c 	str	r2, [sp, #92]	; 0x5c
    a414:	e1a0a002 	mov	r10, r2
    a418:	e4d23001 	ldrb	r3, [r2], #1
    a41c:	e353002f 	cmp	r3, #47	; 0x2f
    a420:	e2844001 	add	r4, r4, #1
    a424:	e1a06003 	mov	r6, r3
    a428:	da000039 	ble	a514 <_strtod_r+0x264>
    a42c:	e3530039 	cmp	r3, #57	; 0x39
    a430:	ca000037 	bgt	a514 <_strtod_r+0x264>
    a434:	e3540008 	cmp	r4, #8
    a438:	dafffff1 	ble	a404 <_strtod_r+0x154>
    a43c:	e354000f 	cmp	r4, #15
    a440:	d08cc10c 	addle	r12, r12, r12, lsl #2
    a444:	d083c08c 	addle	r12, r3, r12, lsl #1
    a448:	d24cc030 	suble	r12, r12, #48	; 0x30
    a44c:	eaffffef 	b	a410 <_strtod_r+0x160>
    a450:	e3a04000 	mov	r4, #0
    a454:	e58d4048 	str	r4, [sp, #72]	; 0x48
    a458:	eaffffd4 	b	a3b0 <_strtod_r+0x100>
    a45c:	e58d205c 	str	r2, [sp, #92]	; 0x5c
    a460:	eaffff9d 	b	a2dc <_strtod_r+0x2c>
    a464:	e3a09000 	mov	r9, #0
    a468:	e1a0a009 	mov	r10, r9
    a46c:	e3a04000 	mov	r4, #0
    a470:	e58d505c 	str	r5, [sp, #92]	; 0x5c
    a474:	e58d4048 	str	r4, [sp, #72]	; 0x48
    a478:	e59d4040 	ldr	r4, [sp, #64]	; 0x40
    a47c:	e3540000 	cmp	r4, #0
    a480:	159d305c 	ldrne	r3, [sp, #92]	; 0x5c
    a484:	e59d5048 	ldr	r5, [sp, #72]	; 0x48
    a488:	15843000 	strne	r3, [r4]
    a48c:	e3550000 	cmp	r5, #0
    a490:	128aa102 	addne	r10, r10, #-2147483648	; 0x80000000
    a494:	e1a00009 	mov	r0, r9
    a498:	e1a0100a 	mov	r1, r10
    a49c:	e28dd074 	add	sp, sp, #116	; 0x74
    a4a0:	e8bd4ff0 	pop	{r4, r5, r6, r7, r8, r9, r10, r11, lr}
    a4a4:	e12fff1e 	bx	lr
    a4a8:	e3a04000 	mov	r4, #0
    a4ac:	e3530030 	cmp	r3, #48	; 0x30
    a4b0:	e58d4048 	str	r4, [sp, #72]	; 0x48
    a4b4:	13a04000 	movne	r4, #0
    a4b8:	e1a08001 	mov	r8, r1
    a4bc:	158d4028 	strne	r4, [sp, #40]	; 0x28
    a4c0:	1affffc5 	bne	a3dc <_strtod_r+0x12c>
    a4c4:	e5d83001 	ldrb	r3, [r8, #1]
    a4c8:	e3530058 	cmp	r3, #88	; 0x58
    a4cc:	0a00032a 	beq	b17c <_strtod_r+0xecc>
    a4d0:	e3530078 	cmp	r3, #120	; 0x78
    a4d4:	0a000328 	beq	b17c <_strtod_r+0xecc>
    a4d8:	e2888001 	add	r8, r8, #1
    a4dc:	e58d805c 	str	r8, [sp, #92]	; 0x5c
    a4e0:	e5d83000 	ldrb	r3, [r8]
    a4e4:	e3530030 	cmp	r3, #48	; 0x30
    a4e8:	0afffffa 	beq	a4d8 <_strtod_r+0x228>
    a4ec:	e3530000 	cmp	r3, #0
    a4f0:	13a04001 	movne	r4, #1
    a4f4:	158d4028 	strne	r4, [sp, #40]	; 0x28
    a4f8:	1affffb7 	bne	a3dc <_strtod_r+0x12c>
    a4fc:	e1a09003 	mov	r9, r3
    a500:	e1a0a003 	mov	r10, r3
    a504:	eaffffdb 	b	a478 <_strtod_r+0x1c8>
    a508:	e1a0a008 	mov	r10, r8
    a50c:	e1a0700c 	mov	r7, r12
    a510:	e1a0400c 	mov	r4, r12
    a514:	e1a0000b 	mov	r0, r11
    a518:	e58dc014 	str	r12, [sp, #20]
    a51c:	ebfff4e7 	bl	78c0 <_localeconv_r>
    a520:	e5909000 	ldr	r9, [r0]
    a524:	e1a0000b 	mov	r0, r11
    a528:	ebfff4e4 	bl	78c0 <_localeconv_r>
    a52c:	e5900000 	ldr	r0, [r0]
    a530:	ebffdb48 	bl	1258 <strlen>
    a534:	e1a01009 	mov	r1, r9
    a538:	e1a02000 	mov	r2, r0
    a53c:	e1a0000a 	mov	r0, r10
    a540:	eb00193d 	bl	10a3c <strncmp>
    a544:	e250a000 	subs	r10, r0, #0
    a548:	e59dc014 	ldr	r12, [sp, #20]
    a54c:	0a0000ce 	beq	a88c <_strtod_r+0x5dc>
    a550:	e3a03000 	mov	r3, #0
    a554:	e58d4024 	str	r4, [sp, #36]	; 0x24
    a558:	e58d302c 	str	r3, [sp, #44]	; 0x2c
    a55c:	e1a0a003 	mov	r10, r3
    a560:	e3c62020 	bic	r2, r6, #32
    a564:	e3520045 	cmp	r2, #69	; 0x45
    a568:	1a000040 	bne	a670 <_strtod_r+0x3c0>
    a56c:	e28d0024 	add	r0, sp, #36	; 0x24
    a570:	e8900003 	ldm	r0, {r0, r1}
    a574:	e1802003 	orr	r2, r0, r3
    a578:	e1921001 	orrs	r1, r2, r1
    a57c:	0a0000b3 	beq	a850 <_strtod_r+0x5a0>
    a580:	e59d505c 	ldr	r5, [sp, #92]	; 0x5c
    a584:	e2852001 	add	r2, r5, #1
    a588:	e58d205c 	str	r2, [sp, #92]	; 0x5c
    a58c:	e5d56001 	ldrb	r6, [r5, #1]
    a590:	e356002b 	cmp	r6, #43	; 0x2b
    a594:	0a00033e 	beq	b294 <_strtod_r+0xfe4>
    a598:	e356002d 	cmp	r6, #45	; 0x2d
    a59c:	13a00000 	movne	r0, #0
    a5a0:	158d0030 	strne	r0, [sp, #48]	; 0x30
    a5a4:	0a000243 	beq	aeb8 <_strtod_r+0xc08>
    a5a8:	e2462030 	sub	r2, r6, #48	; 0x30
    a5ac:	e3520009 	cmp	r2, #9
    a5b0:	858d505c 	strhi	r5, [sp, #92]	; 0x5c
    a5b4:	83a09000 	movhi	r9, #0
    a5b8:	8a00002d 	bhi	a674 <_strtod_r+0x3c4>
    a5bc:	e3560030 	cmp	r6, #48	; 0x30
    a5c0:	1a000006 	bne	a5e0 <_strtod_r+0x330>
    a5c4:	e59d205c 	ldr	r2, [sp, #92]	; 0x5c
    a5c8:	e2821001 	add	r1, r2, #1
    a5cc:	e58d105c 	str	r1, [sp, #92]	; 0x5c
    a5d0:	e5d26001 	ldrb	r6, [r2, #1]
    a5d4:	e3560030 	cmp	r6, #48	; 0x30
    a5d8:	e1a02001 	mov	r2, r1
    a5dc:	0afffff9 	beq	a5c8 <_strtod_r+0x318>
    a5e0:	e2462031 	sub	r2, r6, #49	; 0x31
    a5e4:	e3520008 	cmp	r2, #8
    a5e8:	8a000020 	bhi	a670 <_strtod_r+0x3c0>
    a5ec:	e59d905c 	ldr	r9, [sp, #92]	; 0x5c
    a5f0:	e2892001 	add	r2, r9, #1
    a5f4:	e58d205c 	str	r2, [sp, #92]	; 0x5c
    a5f8:	e2461030 	sub	r1, r6, #48	; 0x30
    a5fc:	e5d96001 	ldrb	r6, [r9, #1]
    a600:	e356002f 	cmp	r6, #47	; 0x2f
    a604:	da00000e 	ble	a644 <_strtod_r+0x394>
    a608:	e3560039 	cmp	r6, #57	; 0x39
    a60c:	ca00000c 	bgt	a644 <_strtod_r+0x394>
    a610:	e1a00002 	mov	r0, r2
    a614:	ea000002 	b	a624 <_strtod_r+0x374>
    a618:	e3560039 	cmp	r6, #57	; 0x39
    a61c:	e1a00002 	mov	r0, r2
    a620:	ca000007 	bgt	a644 <_strtod_r+0x394>
    a624:	e2822001 	add	r2, r2, #1
    a628:	e58d205c 	str	r2, [sp, #92]	; 0x5c
    a62c:	e0811101 	add	r1, r1, r1, lsl #2
    a630:	e0861081 	add	r1, r6, r1, lsl #1
    a634:	e5d06001 	ldrb	r6, [r0, #1]
    a638:	e356002f 	cmp	r6, #47	; 0x2f
    a63c:	e2411030 	sub	r1, r1, #48	; 0x30
    a640:	cafffff4 	bgt	a618 <_strtod_r+0x368>
    a644:	e0692002 	rsb	r2, r9, r2
    a648:	e3520008 	cmp	r2, #8
    a64c:	e59f9e44 	ldr	r9, [pc, #3652]	; b498 <_strtod_r+0x11e8>
    a650:	ca000002 	bgt	a660 <_strtod_r+0x3b0>
    a654:	e1510009 	cmp	r1, r9
    a658:	b1a09001 	movlt	r9, r1
    a65c:	a1a09009 	movge	r9, r9
    a660:	e59d2030 	ldr	r2, [sp, #48]	; 0x30
    a664:	e3520000 	cmp	r2, #0
    a668:	12699000 	rsbne	r9, r9, #0
    a66c:	ea000000 	b	a674 <_strtod_r+0x3c4>
    a670:	e3a09000 	mov	r9, #0
    a674:	e59d0024 	ldr	r0, [sp, #36]	; 0x24
    a678:	e3500000 	cmp	r0, #0
    a67c:	0a000035 	beq	a758 <_strtod_r+0x4a8>
    a680:	e59d6024 	ldr	r6, [sp, #36]	; 0x24
    a684:	e59d5024 	ldr	r5, [sp, #36]	; 0x24
    a688:	e3560010 	cmp	r6, #16
    a68c:	a3a06010 	movge	r6, #16
    a690:	e3540000 	cmp	r4, #0
    a694:	11a05004 	movne	r5, r4
    a698:	e1a00007 	mov	r0, r7
    a69c:	e06aa009 	rsb	r10, r10, r9
    a6a0:	e58da028 	str	r10, [sp, #40]	; 0x28
    a6a4:	e58d5030 	str	r5, [sp, #48]	; 0x30
    a6a8:	e58dc014 	str	r12, [sp, #20]
    a6ac:	ebffd85a 	bl	81c <__aeabi_ui2d>
    a6b0:	e3560009 	cmp	r6, #9
    a6b4:	e1a02000 	mov	r2, r0
    a6b8:	e1a03001 	mov	r3, r1
    a6bc:	e58d2018 	str	r2, [sp, #24]
    a6c0:	e58d301c 	str	r3, [sp, #28]
    a6c4:	da000010 	ble	a70c <_strtod_r+0x45c>
    a6c8:	e59f3e10 	ldr	r3, [pc, #3600]	; b4e0 <_strtod_r+0x1230>
    a6cc:	e0833186 	add	r3, r3, r6, lsl #3
    a6d0:	e2433048 	sub	r3, r3, #72	; 0x48
    a6d4:	e893000c 	ldm	r3, {r2, r3}
    a6d8:	ebffd88f 	bl	91c <__aeabi_dmul>
    a6dc:	e59dc014 	ldr	r12, [sp, #20]
    a6e0:	e1a04000 	mov	r4, r0
    a6e4:	e1a0000c 	mov	r0, r12
    a6e8:	e1a05001 	mov	r5, r1
    a6ec:	ebffd84a 	bl	81c <__aeabi_ui2d>
    a6f0:	e1a02000 	mov	r2, r0
    a6f4:	e1a03001 	mov	r3, r1
    a6f8:	e1a00004 	mov	r0, r4
    a6fc:	e1a01005 	mov	r1, r5
    a700:	ebffd781 	bl	50c <__adddf3>
    a704:	e58d0018 	str	r0, [sp, #24]
    a708:	e58d101c 	str	r1, [sp, #28]
    a70c:	e59d4024 	ldr	r4, [sp, #36]	; 0x24
    a710:	e354000f 	cmp	r4, #15
    a714:	ca00007c 	bgt	a90c <_strtod_r+0x65c>
    a718:	e59d5028 	ldr	r5, [sp, #40]	; 0x28
    a71c:	e3550000 	cmp	r5, #0
    a720:	0a000056 	beq	a880 <_strtod_r+0x5d0>
    a724:	e59d4028 	ldr	r4, [sp, #40]	; 0x28
    a728:	da0003ad 	ble	b5e4 <_strtod_r+0x1334>
    a72c:	e3540016 	cmp	r4, #22
    a730:	ca00037d 	bgt	b52c <_strtod_r+0x127c>
    a734:	e59f3da4 	ldr	r3, [pc, #3492]	; b4e0 <_strtod_r+0x1230>
    a738:	e0839184 	add	r9, r3, r4, lsl #3
    a73c:	e8990003 	ldm	r9, {r0, r1}
    a740:	e28d3018 	add	r3, sp, #24
    a744:	e893000c 	ldm	r3, {r2, r3}
    a748:	ebffd873 	bl	91c <__aeabi_dmul>
    a74c:	e1a09000 	mov	r9, r0
    a750:	e1a0a001 	mov	r10, r1
    a754:	eaffff47 	b	a478 <_strtod_r+0x1c8>
    a758:	e59d4028 	ldr	r4, [sp, #40]	; 0x28
    a75c:	e1934004 	orrs	r4, r3, r4
    a760:	1a000046 	bne	a880 <_strtod_r+0x5d0>
    a764:	e59d002c 	ldr	r0, [sp, #44]	; 0x2c
    a768:	e3500000 	cmp	r0, #0
    a76c:	1a000037 	bne	a850 <_strtod_r+0x5a0>
    a770:	e2466049 	sub	r6, r6, #73	; 0x49
    a774:	e3560025 	cmp	r6, #37	; 0x25
    a778:	979ff106 	ldrls	pc, [pc, r6, lsl #2]
    a77c:	ea000033 	b	a850 <_strtod_r+0x5a0>
    a780:	0000aed0 	.word	0x0000aed0
    a784:	0000a850 	.word	0x0000a850
    a788:	0000a850 	.word	0x0000a850
    a78c:	0000a850 	.word	0x0000a850
    a790:	0000a850 	.word	0x0000a850
    a794:	0000a818 	.word	0x0000a818
    a798:	0000a850 	.word	0x0000a850
    a79c:	0000a850 	.word	0x0000a850
    a7a0:	0000a850 	.word	0x0000a850
    a7a4:	0000a850 	.word	0x0000a850
    a7a8:	0000a850 	.word	0x0000a850
    a7ac:	0000a850 	.word	0x0000a850
    a7b0:	0000a850 	.word	0x0000a850
    a7b4:	0000a850 	.word	0x0000a850
    a7b8:	0000a850 	.word	0x0000a850
    a7bc:	0000a850 	.word	0x0000a850
    a7c0:	0000a850 	.word	0x0000a850
    a7c4:	0000a850 	.word	0x0000a850
    a7c8:	0000a850 	.word	0x0000a850
    a7cc:	0000a850 	.word	0x0000a850
    a7d0:	0000a850 	.word	0x0000a850
    a7d4:	0000a850 	.word	0x0000a850
    a7d8:	0000a850 	.word	0x0000a850
    a7dc:	0000a850 	.word	0x0000a850
    a7e0:	0000a850 	.word	0x0000a850
    a7e4:	0000a850 	.word	0x0000a850
    a7e8:	0000a850 	.word	0x0000a850
    a7ec:	0000a850 	.word	0x0000a850
    a7f0:	0000a850 	.word	0x0000a850
    a7f4:	0000a850 	.word	0x0000a850
    a7f8:	0000a850 	.word	0x0000a850
    a7fc:	0000a850 	.word	0x0000a850
    a800:	0000aed0 	.word	0x0000aed0
    a804:	0000a850 	.word	0x0000a850
    a808:	0000a850 	.word	0x0000a850
    a80c:	0000a850 	.word	0x0000a850
    a810:	0000a850 	.word	0x0000a850
    a814:	0000a818 	.word	0x0000a818
    a818:	e59f0c7c 	ldr	r0, [pc, #3196]	; b49c <_strtod_r+0x11ec>
    a81c:	e59d205c 	ldr	r2, [sp, #92]	; 0x5c
    a820:	e5f01001 	ldrb	r1, [r0, #1]!
    a824:	e3510000 	cmp	r1, #0
    a828:	e1a03002 	mov	r3, r2
    a82c:	0a00000a 	beq	a85c <_strtod_r+0x5ac>
    a830:	e5d33001 	ldrb	r3, [r3, #1]
    a834:	e3530040 	cmp	r3, #64	; 0x40
    a838:	e2822001 	add	r2, r2, #1
    a83c:	da000001 	ble	a848 <_strtod_r+0x598>
    a840:	e353005a 	cmp	r3, #90	; 0x5a
    a844:	d2833020 	addle	r3, r3, #32
    a848:	e1530001 	cmp	r3, r1
    a84c:	0afffff3 	beq	a820 <_strtod_r+0x570>
    a850:	e28d9018 	add	r9, sp, #24
    a854:	e8990600 	ldm	r9, {r9, r10}
    a858:	eaffff03 	b	a46c <_strtod_r+0x1bc>
    a85c:	e2823001 	add	r3, r2, #1
    a860:	e58d305c 	str	r3, [sp, #92]	; 0x5c
    a864:	e5d23001 	ldrb	r3, [r2, #1]
    a868:	e3530028 	cmp	r3, #40	; 0x28
    a86c:	0a0003fd 	beq	b868 <_strtod_r+0x15b8>
    a870:	e59f4c28 	ldr	r4, [pc, #3112]	; b4a0 <_strtod_r+0x11f0>
    a874:	e3a05000 	mov	r5, #0
    a878:	e58d401c 	str	r4, [sp, #28]
    a87c:	e58d5018 	str	r5, [sp, #24]
    a880:	e28d9018 	add	r9, sp, #24
    a884:	e8990600 	ldm	r9, {r9, r10}
    a888:	eafffefa 	b	a478 <_strtod_r+0x1c8>
    a88c:	e1a0000b 	mov	r0, r11
    a890:	e59d605c 	ldr	r6, [sp, #92]	; 0x5c
    a894:	ebfff409 	bl	78c0 <_localeconv_r>
    a898:	e5900000 	ldr	r0, [r0]
    a89c:	ebffda6d 	bl	1258 <strlen>
    a8a0:	e0862000 	add	r2, r6, r0
    a8a4:	e58d205c 	str	r2, [sp, #92]	; 0x5c
    a8a8:	e3540000 	cmp	r4, #0
    a8ac:	e7d66000 	ldrb	r6, [r6, r0]
    a8b0:	e59dc014 	ldr	r12, [sp, #20]
    a8b4:	1a00011c 	bne	ad2c <_strtod_r+0xa7c>
    a8b8:	e3560030 	cmp	r6, #48	; 0x30
    a8bc:	1a0003a2 	bne	b74c <_strtod_r+0x149c>
    a8c0:	e2620001 	rsb	r0, r2, #1
    a8c4:	e2821001 	add	r1, r2, #1
    a8c8:	e58d105c 	str	r1, [sp, #92]	; 0x5c
    a8cc:	e5d26001 	ldrb	r6, [r2, #1]
    a8d0:	e3560030 	cmp	r6, #48	; 0x30
    a8d4:	e0803002 	add	r3, r0, r2
    a8d8:	e1a02001 	mov	r2, r1
    a8dc:	0afffff8 	beq	a8c4 <_strtod_r+0x614>
    a8e0:	e2462031 	sub	r2, r6, #49	; 0x31
    a8e4:	e3520008 	cmp	r2, #8
    a8e8:	8a00013a 	bhi	add8 <_strtod_r+0xb28>
    a8ec:	e59d805c 	ldr	r8, [sp, #92]	; 0x5c
    a8f0:	e3a00000 	mov	r0, #0
    a8f4:	e1a0a003 	mov	r10, r3
    a8f8:	e58d0024 	str	r0, [sp, #36]	; 0x24
    a8fc:	e1a09008 	mov	r9, r8
    a900:	e3a03001 	mov	r3, #1
    a904:	e2460030 	sub	r0, r6, #48	; 0x30
    a908:	ea000110 	b	ad50 <_strtod_r+0xaa0>
    a90c:	e59d5024 	ldr	r5, [sp, #36]	; 0x24
    a910:	e59d4028 	ldr	r4, [sp, #40]	; 0x28
    a914:	e0666005 	rsb	r6, r6, r5
    a918:	e0846006 	add	r6, r4, r6
    a91c:	e3560000 	cmp	r6, #0
    a920:	da0002d1 	ble	b46c <_strtod_r+0x11bc>
    a924:	e216300f 	ands	r3, r6, #15
    a928:	0a000007 	beq	a94c <_strtod_r+0x69c>
    a92c:	e59f2bac 	ldr	r2, [pc, #2988]	; b4e0 <_strtod_r+0x1230>
    a930:	e0823183 	add	r3, r2, r3, lsl #3
    a934:	e8930003 	ldm	r3, {r0, r1}
    a938:	e28d3018 	add	r3, sp, #24
    a93c:	e893000c 	ldm	r3, {r2, r3}
    a940:	ebffd7f5 	bl	91c <__aeabi_dmul>
    a944:	e58d0018 	str	r0, [sp, #24]
    a948:	e58d101c 	str	r1, [sp, #28]
    a94c:	e3d6400f 	bics	r4, r6, #15
    a950:	1a000126 	bne	adf0 <_strtod_r+0xb40>
    a954:	e28d9018 	add	r9, sp, #24
    a958:	e8990600 	ldm	r9, {r9, r10}
    a95c:	e58d402c 	str	r4, [sp, #44]	; 0x2c
    a960:	e58d7000 	str	r7, [sp]
    a964:	e1a0000b 	mov	r0, r11
    a968:	e1a01008 	mov	r1, r8
    a96c:	e59d2030 	ldr	r2, [sp, #48]	; 0x30
    a970:	e59d3024 	ldr	r3, [sp, #36]	; 0x24
    a974:	ebfff83a 	bl	8a64 <__s2b>
    a978:	e59d4028 	ldr	r4, [sp, #40]	; 0x28
    a97c:	e3540000 	cmp	r4, #0
    a980:	b59d4028 	ldrlt	r4, [sp, #40]	; 0x28
    a984:	a3a05000 	movge	r5, #0
    a988:	b2644000 	rsblt	r4, r4, #0
    a98c:	e58d0044 	str	r0, [sp, #68]	; 0x44
    a990:	a58d5034 	strge	r5, [sp, #52]	; 0x34
    a994:	b58d4034 	strlt	r4, [sp, #52]	; 0x34
    a998:	e59d5044 	ldr	r5, [sp, #68]	; 0x44
    a99c:	e59d4028 	ldr	r4, [sp, #40]	; 0x28
    a9a0:	e285500c 	add	r5, r5, #12
    a9a4:	e1c44fc4 	bic	r4, r4, r4, asr #31
    a9a8:	e58d504c 	str	r5, [sp, #76]	; 0x4c
    a9ac:	e58d4038 	str	r4, [sp, #56]	; 0x38
    a9b0:	e58d9024 	str	r9, [sp, #36]	; 0x24
    a9b4:	e58da028 	str	r10, [sp, #40]	; 0x28
    a9b8:	ea000051 	b	ab04 <_strtod_r+0x854>
    a9bc:	e59d303c 	ldr	r3, [sp, #60]	; 0x3c
    a9c0:	e3530000 	cmp	r3, #0
    a9c4:	0a000150 	beq	af0c <_strtod_r+0xc5c>
    a9c8:	e59f0ad4 	ldr	r0, [pc, #2772]	; b4a4 <_strtod_r+0x11f4>
    a9cc:	e59f5ad0 	ldr	r5, [pc, #2768]	; b4a4 <_strtod_r+0x11f4>
    a9d0:	e59dc01c 	ldr	r12, [sp, #28]
    a9d4:	e58d0030 	str	r0, [sp, #48]	; 0x30
    a9d8:	e3a04000 	mov	r4, #0
    a9dc:	e59fab08 	ldr	r10, [pc, #2824]	; b4ec <_strtod_r+0x123c>
    a9e0:	e59f3ac0 	ldr	r3, [pc, #2752]	; b4a8 <_strtod_r+0x11f8>
    a9e4:	e00ca00a 	and	r10, r12, r10
    a9e8:	e15a0003 	cmp	r10, r3
    a9ec:	0a00016a 	beq	af9c <_strtod_r+0xcec>
    a9f0:	e59d102c 	ldr	r1, [sp, #44]	; 0x2c
    a9f4:	e35a066a 	cmp	r10, #111149056	; 0x6a00000
    a9f8:	83a03000 	movhi	r3, #0
    a9fc:	93a03001 	movls	r3, #1
    aa00:	e3510000 	cmp	r1, #0
    aa04:	03a03000 	moveq	r3, #0
    aa08:	e3530000 	cmp	r3, #0
    aa0c:	0a000017 	beq	aa70 <_strtod_r+0x7c0>
    aa10:	e1a00009 	mov	r0, r9
    aa14:	e59d1030 	ldr	r1, [sp, #48]	; 0x30
    aa18:	e59f2a8c 	ldr	r2, [pc, #2700]	; b4ac <_strtod_r+0x11fc>
    aa1c:	e59f3a8c 	ldr	r3, [pc, #2700]	; b4b0 <_strtod_r+0x1200>
    aa20:	eb001e22 	bl	122b0 <__aeabi_dcmple>
    aa24:	e3500000 	cmp	r0, #0
    aa28:	0a00000e 	beq	aa68 <_strtod_r+0x7b8>
    aa2c:	e1a00009 	mov	r0, r9
    aa30:	e59d1030 	ldr	r1, [sp, #48]	; 0x30
    aa34:	eb001e46 	bl	12354 <__aeabi_d2uiz>
    aa38:	e2509000 	subs	r9, r0, #0
    aa3c:	0a0001c5 	beq	b158 <_strtod_r+0xea8>
    aa40:	ebffd775 	bl	81c <__aeabi_ui2d>
    aa44:	e58d1030 	str	r1, [sp, #48]	; 0x30
    aa48:	e1a09000 	mov	r9, r0
    aa4c:	e59d503c 	ldr	r5, [sp, #60]	; 0x3c
    aa50:	e3550000 	cmp	r5, #0
    aa54:	059d4030 	ldreq	r4, [sp, #48]	; 0x30
    aa58:	159d3030 	ldrne	r3, [sp, #48]	; 0x30
    aa5c:	02843102 	addeq	r3, r4, #-2147483648	; 0x80000000
    aa60:	e1a05003 	mov	r5, r3
    aa64:	e1a04009 	mov	r4, r9
    aa68:	e285366b 	add	r3, r5, #112197632	; 0x6b00000
    aa6c:	e06a5003 	rsb	r5, r10, r3
    aa70:	e28d0024 	add	r0, sp, #36	; 0x24
    aa74:	e8900003 	ldm	r0, {r0, r1}
    aa78:	ebfff9da 	bl	91e8 <__ulp>
    aa7c:	e1a02000 	mov	r2, r0
    aa80:	e1a03001 	mov	r3, r1
    aa84:	e1a00004 	mov	r0, r4
    aa88:	e1a01005 	mov	r1, r5
    aa8c:	ebffd7a2 	bl	91c <__aeabi_dmul>
    aa90:	e1a02000 	mov	r2, r0
    aa94:	e28d0024 	add	r0, sp, #36	; 0x24
    aa98:	e1a03001 	mov	r3, r1
    aa9c:	e8900003 	ldm	r0, {r0, r1}
    aaa0:	ebffd699 	bl	50c <__adddf3>
    aaa4:	e58d0018 	str	r0, [sp, #24]
    aaa8:	e58d101c 	str	r1, [sp, #28]
    aaac:	e58d0024 	str	r0, [sp, #36]	; 0x24
    aab0:	e58d1028 	str	r1, [sp, #40]	; 0x28
    aab4:	e59d401c 	ldr	r4, [sp, #28]
    aab8:	e59d502c 	ldr	r5, [sp, #44]	; 0x2c
    aabc:	e3550000 	cmp	r5, #0
    aac0:	1a000003 	bne	aad4 <_strtod_r+0x824>
    aac4:	e59f3a20 	ldr	r3, [pc, #2592]	; b4ec <_strtod_r+0x123c>
    aac8:	e0043003 	and	r3, r4, r3
    aacc:	e15a0003 	cmp	r10, r3
    aad0:	0a00015c 	beq	b048 <_strtod_r+0xd98>
    aad4:	e1a0000b 	mov	r0, r11
    aad8:	e59d1060 	ldr	r1, [sp, #96]	; 0x60
    aadc:	ebfff7a2 	bl	896c <_Bfree>
    aae0:	e1a0000b 	mov	r0, r11
    aae4:	e1a01007 	mov	r1, r7
    aae8:	ebfff79f 	bl	896c <_Bfree>
    aaec:	e1a0000b 	mov	r0, r11
    aaf0:	e1a01008 	mov	r1, r8
    aaf4:	ebfff79c 	bl	896c <_Bfree>
    aaf8:	e1a0000b 	mov	r0, r11
    aafc:	e1a01006 	mov	r1, r6
    ab00:	ebfff799 	bl	896c <_Bfree>
    ab04:	e59d5044 	ldr	r5, [sp, #68]	; 0x44
    ab08:	e1a0000b 	mov	r0, r11
    ab0c:	e5951004 	ldr	r1, [r5, #4]
    ab10:	ebfff772 	bl	88e0 <_Balloc>
    ab14:	e5952010 	ldr	r2, [r5, #16]
    ab18:	e2822002 	add	r2, r2, #2
    ab1c:	e59d104c 	ldr	r1, [sp, #76]	; 0x4c
    ab20:	e1a02102 	lsl	r2, r2, #2
    ab24:	e1a07000 	mov	r7, r0
    ab28:	e280000c 	add	r0, r0, #12
    ab2c:	ebfff64c 	bl	8464 <memcpy>
    ab30:	e28d1064 	add	r1, sp, #100	; 0x64
    ab34:	e28d0058 	add	r0, sp, #88	; 0x58
    ab38:	e28d2024 	add	r2, sp, #36	; 0x24
    ab3c:	e892000c 	ldm	r2, {r2, r3}
    ab40:	e88d0003 	stm	sp, {r0, r1}
    ab44:	e1a0000b 	mov	r0, r11
    ab48:	ebfff9f2 	bl	9318 <__d2b>
    ab4c:	e3a01001 	mov	r1, #1
    ab50:	e58d0060 	str	r0, [sp, #96]	; 0x60
    ab54:	e1a0000b 	mov	r0, r11
    ab58:	ebfff836 	bl	8c38 <__i2b>
    ab5c:	e59d2058 	ldr	r2, [sp, #88]	; 0x58
    ab60:	e3520000 	cmp	r2, #0
    ab64:	a59d5034 	ldrge	r5, [sp, #52]	; 0x34
    ab68:	b59d4038 	ldrlt	r4, [sp, #56]	; 0x38
    ab6c:	a0854002 	addge	r4, r5, r2
    ab70:	e59d502c 	ldr	r5, [sp, #44]	; 0x2c
    ab74:	e59d3064 	ldr	r3, [sp, #100]	; 0x64
    ab78:	e1a08000 	mov	r8, r0
    ab7c:	b0620004 	rsblt	r0, r2, r4
    ab80:	e0652002 	rsb	r2, r5, r2
    ab84:	e082c003 	add	r12, r2, r3
    ab88:	e3e01fff 	mvn	r1, #1020	; 0x3fc
    ab8c:	b59d4034 	ldrlt	r4, [sp, #52]	; 0x34
    ab90:	a59d0038 	ldrge	r0, [sp, #56]	; 0x38
    ab94:	e15c0001 	cmp	r12, r1
    ab98:	b2823e43 	addlt	r3, r2, #1072	; 0x430
    ab9c:	b2833003 	addlt	r3, r3, #3
    aba0:	a2633036 	rsbge	r3, r3, #54	; 0x36
    aba4:	e0846003 	add	r6, r4, r3
    aba8:	e0803003 	add	r3, r0, r3
    abac:	e59d002c 	ldr	r0, [sp, #44]	; 0x2c
    abb0:	e1560004 	cmp	r6, r4
    abb4:	b1a01006 	movlt	r1, r6
    abb8:	a1a01004 	movge	r1, r4
    abbc:	e0835000 	add	r5, r3, r0
    abc0:	e1510005 	cmp	r1, r5
    abc4:	b1a03001 	movlt	r3, r1
    abc8:	a1a03005 	movge	r3, r5
    abcc:	e59d1034 	ldr	r1, [sp, #52]	; 0x34
    abd0:	e3530000 	cmp	r3, #0
    abd4:	c0636006 	rsbgt	r6, r3, r6
    abd8:	c0635005 	rsbgt	r5, r3, r5
    abdc:	c0634004 	rsbgt	r4, r3, r4
    abe0:	e3510000 	cmp	r1, #0
    abe4:	0a00000d 	beq	ac20 <_strtod_r+0x970>
    abe8:	e1a02001 	mov	r2, r1
    abec:	e1a0000b 	mov	r0, r11
    abf0:	e1a01008 	mov	r1, r8
    abf4:	ebfff891 	bl	8e40 <__pow5mult>
    abf8:	e1a08000 	mov	r8, r0
    abfc:	e1a01008 	mov	r1, r8
    ac00:	e59d2060 	ldr	r2, [sp, #96]	; 0x60
    ac04:	e1a0000b 	mov	r0, r11
    ac08:	ebfff813 	bl	8c5c <__multiply>
    ac0c:	e59d1060 	ldr	r1, [sp, #96]	; 0x60
    ac10:	e1a0a000 	mov	r10, r0
    ac14:	e1a0000b 	mov	r0, r11
    ac18:	ebfff753 	bl	896c <_Bfree>
    ac1c:	e58da060 	str	r10, [sp, #96]	; 0x60
    ac20:	e3560000 	cmp	r6, #0
    ac24:	da000004 	ble	ac3c <_strtod_r+0x98c>
    ac28:	e1a0000b 	mov	r0, r11
    ac2c:	e59d1060 	ldr	r1, [sp, #96]	; 0x60
    ac30:	e1a02006 	mov	r2, r6
    ac34:	ebfff8be 	bl	8f34 <__lshift>
    ac38:	e58d0060 	str	r0, [sp, #96]	; 0x60
    ac3c:	e59d2038 	ldr	r2, [sp, #56]	; 0x38
    ac40:	e3520000 	cmp	r2, #0
    ac44:	0a000003 	beq	ac58 <_strtod_r+0x9a8>
    ac48:	e1a01007 	mov	r1, r7
    ac4c:	e1a0000b 	mov	r0, r11
    ac50:	ebfff87a 	bl	8e40 <__pow5mult>
    ac54:	e1a07000 	mov	r7, r0
    ac58:	e3550000 	cmp	r5, #0
    ac5c:	da000004 	ble	ac74 <_strtod_r+0x9c4>
    ac60:	e1a01007 	mov	r1, r7
    ac64:	e1a0000b 	mov	r0, r11
    ac68:	e1a02005 	mov	r2, r5
    ac6c:	ebfff8b0 	bl	8f34 <__lshift>
    ac70:	e1a07000 	mov	r7, r0
    ac74:	e3540000 	cmp	r4, #0
    ac78:	da000004 	ble	ac90 <_strtod_r+0x9e0>
    ac7c:	e1a01008 	mov	r1, r8
    ac80:	e1a0000b 	mov	r0, r11
    ac84:	e1a02004 	mov	r2, r4
    ac88:	ebfff8a9 	bl	8f34 <__lshift>
    ac8c:	e1a08000 	mov	r8, r0
    ac90:	e59d1060 	ldr	r1, [sp, #96]	; 0x60
    ac94:	e1a02007 	mov	r2, r7
    ac98:	e1a0000b 	mov	r0, r11
    ac9c:	ebfff8fe 	bl	909c <__mdiff>
    aca0:	e3a09000 	mov	r9, #0
    aca4:	e590400c 	ldr	r4, [r0, #12]
    aca8:	e1a01008 	mov	r1, r8
    acac:	e580900c 	str	r9, [r0, #12]
    acb0:	e1a06000 	mov	r6, r0
    acb4:	e58d403c 	str	r4, [sp, #60]	; 0x3c
    acb8:	ebfff8de 	bl	9038 <__mcmp>
    acbc:	e1500009 	cmp	r0, r9
    acc0:	ba000176 	blt	b2a0 <_strtod_r+0xff0>
    acc4:	0a0001ba 	beq	b3b4 <_strtod_r+0x1104>
    acc8:	e1a00006 	mov	r0, r6
    accc:	e1a01008 	mov	r1, r8
    acd0:	ebfff9d2 	bl	9420 <__ratio>
    acd4:	e3a02000 	mov	r2, #0
    acd8:	e3a03101 	mov	r3, #1073741824	; 0x40000000
    acdc:	e1a04000 	mov	r4, r0
    ace0:	e1a05001 	mov	r5, r1
    ace4:	eb001d71 	bl	122b0 <__aeabi_dcmple>
    ace8:	e3500000 	cmp	r0, #0
    acec:	1affff32 	bne	a9bc <_strtod_r+0x70c>
    acf0:	e59f37e0 	ldr	r3, [pc, #2016]	; b4d8 <_strtod_r+0x1228>
    acf4:	e1a00004 	mov	r0, r4
    acf8:	e1a01005 	mov	r1, r5
    acfc:	e3a02000 	mov	r2, #0
    ad00:	ebffd705 	bl	91c <__aeabi_dmul>
    ad04:	e59d503c 	ldr	r5, [sp, #60]	; 0x3c
    ad08:	e58d1030 	str	r1, [sp, #48]	; 0x30
    ad0c:	e3550000 	cmp	r5, #0
    ad10:	159d3030 	ldrne	r3, [sp, #48]	; 0x30
    ad14:	02813102 	addeq	r3, r1, #-2147483648	; 0x80000000
    ad18:	e1a09000 	mov	r9, r0
    ad1c:	e1a04000 	mov	r4, r0
    ad20:	e1a05003 	mov	r5, r3
    ad24:	e59dc01c 	ldr	r12, [sp, #28]
    ad28:	eaffff2b 	b	a9dc <_strtod_r+0x72c>
    ad2c:	e58d4024 	str	r4, [sp, #36]	; 0x24
    ad30:	e1a0300a 	mov	r3, r10
    ad34:	e2460030 	sub	r0, r6, #48	; 0x30
    ad38:	e3500009 	cmp	r0, #9
    ad3c:	83a02001 	movhi	r2, #1
    ad40:	858d202c 	strhi	r2, [sp, #44]	; 0x2c
    ad44:	8afffe05 	bhi	a560 <_strtod_r+0x2b0>
    ad48:	e59d905c 	ldr	r9, [sp, #92]	; 0x5c
    ad4c:	e2833001 	add	r3, r3, #1
    ad50:	e3500000 	cmp	r0, #0
    ad54:	0a00001b 	beq	adc8 <_strtod_r+0xb18>
    ad58:	e3530001 	cmp	r3, #1
    ad5c:	e08aa003 	add	r10, r10, r3
    ad60:	0a0002bc 	beq	b858 <_strtod_r+0x15a8>
    ad64:	e59d1024 	ldr	r1, [sp, #36]	; 0x24
    ad68:	e0816003 	add	r6, r1, r3
    ad6c:	e2466001 	sub	r6, r6, #1
    ad70:	e1a02001 	mov	r2, r1
    ad74:	e2822001 	add	r2, r2, #1
    ad78:	e2421001 	sub	r1, r2, #1
    ad7c:	e3510008 	cmp	r1, #8
    ad80:	d0877107 	addle	r7, r7, r7, lsl #2
    ad84:	d1a07087 	lslle	r7, r7, #1
    ad88:	da000002 	ble	ad98 <_strtod_r+0xae8>
    ad8c:	e3520010 	cmp	r2, #16
    ad90:	d08cc10c 	addle	r12, r12, r12, lsl #2
    ad94:	d1a0c08c 	lslle	r12, r12, #1
    ad98:	e1520006 	cmp	r2, r6
    ad9c:	1afffff4 	bne	ad74 <_strtod_r+0xac4>
    ada0:	e59d2024 	ldr	r2, [sp, #36]	; 0x24
    ada4:	e0823003 	add	r3, r2, r3
    ada8:	e2433001 	sub	r3, r3, #1
    adac:	e3530008 	cmp	r3, #8
    adb0:	e2833001 	add	r3, r3, #1
    adb4:	e58d3024 	str	r3, [sp, #36]	; 0x24
    adb8:	ca000214 	bgt	b610 <_strtod_r+0x1360>
    adbc:	e0877107 	add	r7, r7, r7, lsl #2
    adc0:	e0807087 	add	r7, r0, r7, lsl #1
    adc4:	e3a03000 	mov	r3, #0
    adc8:	e2892001 	add	r2, r9, #1
    adcc:	e58d205c 	str	r2, [sp, #92]	; 0x5c
    add0:	e5d96001 	ldrb	r6, [r9, #1]
    add4:	eaffffd6 	b	ad34 <_strtod_r+0xa84>
    add8:	e3a00000 	mov	r0, #0
    addc:	e3a01001 	mov	r1, #1
    ade0:	e58d0024 	str	r0, [sp, #36]	; 0x24
    ade4:	e1a0a000 	mov	r10, r0
    ade8:	e58d102c 	str	r1, [sp, #44]	; 0x2c
    adec:	eafffddb 	b	a560 <_strtod_r+0x2b0>
    adf0:	e3540f4d 	cmp	r4, #308	; 0x134
    adf4:	ca000193 	bgt	b448 <_strtod_r+0x1198>
    adf8:	e1a04244 	asr	r4, r4, #4
    adfc:	e3540001 	cmp	r4, #1
    ae00:	e59fa6ac 	ldr	r10, [pc, #1708]	; b4b4 <_strtod_r+0x1204>
    ae04:	da000295 	ble	b860 <_strtod_r+0x15b0>
    ae08:	e28d1018 	add	r1, sp, #24
    ae0c:	e8910003 	ldm	r1, {r0, r1}
    ae10:	e1a0600a 	mov	r6, r10
    ae14:	e3a05000 	mov	r5, #0
    ae18:	e3140001 	tst	r4, #1
    ae1c:	e1a040c4 	asr	r4, r4, #1
    ae20:	1896000c 	ldmne	r6, {r2, r3}
    ae24:	1bffd6bc 	blne	91c <__aeabi_dmul>
    ae28:	e3540001 	cmp	r4, #1
    ae2c:	e2855001 	add	r5, r5, #1
    ae30:	e2866008 	add	r6, r6, #8
    ae34:	cafffff7 	bgt	ae18 <_strtod_r+0xb68>
    ae38:	e1a02000 	mov	r2, r0
    ae3c:	e1a03001 	mov	r3, r1
    ae40:	e58d2018 	str	r2, [sp, #24]
    ae44:	e58d301c 	str	r3, [sp, #28]
    ae48:	e59d301c 	ldr	r3, [sp, #28]
    ae4c:	e2433635 	sub	r3, r3, #55574528	; 0x3500000
    ae50:	e58d301c 	str	r3, [sp, #28]
    ae54:	e08a5185 	add	r5, r10, r5, lsl #3
    ae58:	e28d3018 	add	r3, sp, #24
    ae5c:	e893000c 	ldm	r3, {r2, r3}
    ae60:	e8950003 	ldm	r5, {r0, r1}
    ae64:	ebffd6ac 	bl	91c <__aeabi_dmul>
    ae68:	e58d0018 	str	r0, [sp, #24]
    ae6c:	e58d101c 	str	r1, [sp, #28]
    ae70:	e59f3674 	ldr	r3, [pc, #1652]	; b4ec <_strtod_r+0x123c>
    ae74:	e59d201c 	ldr	r2, [sp, #28]
    ae78:	e59f1638 	ldr	r1, [pc, #1592]	; b4b8 <_strtod_r+0x1208>
    ae7c:	e0023003 	and	r3, r2, r3
    ae80:	e1530001 	cmp	r3, r1
    ae84:	8a00016f 	bhi	b448 <_strtod_r+0x1198>
    ae88:	e2411601 	sub	r1, r1, #1048576	; 0x100000
    ae8c:	e1530001 	cmp	r3, r1
    ae90:	9a00022f 	bls	b754 <_strtod_r+0x14a4>
    ae94:	e59f4620 	ldr	r4, [pc, #1568]	; b4bc <_strtod_r+0x120c>
    ae98:	e3e05000 	mvn	r5, #0
    ae9c:	e58d401c 	str	r4, [sp, #28]
    aea0:	e1a0a004 	mov	r10, r4
    aea4:	e3a04000 	mov	r4, #0
    aea8:	e58d5018 	str	r5, [sp, #24]
    aeac:	e1a09005 	mov	r9, r5
    aeb0:	e58d402c 	str	r4, [sp, #44]	; 0x2c
    aeb4:	eafffea9 	b	a960 <_strtod_r+0x6b0>
    aeb8:	e3a01001 	mov	r1, #1
    aebc:	e58d1030 	str	r1, [sp, #48]	; 0x30
    aec0:	e2852002 	add	r2, r5, #2
    aec4:	e58d205c 	str	r2, [sp, #92]	; 0x5c
    aec8:	e5d56002 	ldrb	r6, [r5, #2]
    aecc:	eafffdb5 	b	a5a8 <_strtod_r+0x2f8>
    aed0:	e59f05e8 	ldr	r0, [pc, #1512]	; b4c0 <_strtod_r+0x1210>
    aed4:	e59d205c 	ldr	r2, [sp, #92]	; 0x5c
    aed8:	e5f01001 	ldrb	r1, [r0, #1]!
    aedc:	e3510000 	cmp	r1, #0
    aee0:	e1a03002 	mov	r3, r2
    aee4:	0a000239 	beq	b7d0 <_strtod_r+0x1520>
    aee8:	e5d33001 	ldrb	r3, [r3, #1]
    aeec:	e3530040 	cmp	r3, #64	; 0x40
    aef0:	e2822001 	add	r2, r2, #1
    aef4:	da000001 	ble	af00 <_strtod_r+0xc50>
    aef8:	e353005a 	cmp	r3, #90	; 0x5a
    aefc:	d2833020 	addle	r3, r3, #32
    af00:	e1530001 	cmp	r3, r1
    af04:	0afffff3 	beq	aed8 <_strtod_r+0xc28>
    af08:	eafffe50 	b	a850 <_strtod_r+0x5a0>
    af0c:	e28d3018 	add	r3, sp, #24
    af10:	e8931008 	ldm	r3, {r3, r12}
    af14:	e3530000 	cmp	r3, #0
    af18:	1a000076 	bne	b0f8 <_strtod_r+0xe48>
    af1c:	e3cc34ff 	bic	r3, r12, #-16777216	; 0xff000000
    af20:	e3c3360f 	bic	r3, r3, #15728640	; 0xf00000
    af24:	e3530000 	cmp	r3, #0
    af28:	1a000015 	bne	af84 <_strtod_r+0xcd4>
    af2c:	e1a00004 	mov	r0, r4
    af30:	e1a01005 	mov	r1, r5
    af34:	e3a02000 	mov	r2, #0
    af38:	e59f3564 	ldr	r3, [pc, #1380]	; b4a4 <_strtod_r+0x11f4>
    af3c:	e58dc014 	str	r12, [sp, #20]
    af40:	eb001cd4 	bl	12298 <__aeabi_dcmplt>
    af44:	e3500000 	cmp	r0, #0
    af48:	e59dc014 	ldr	r12, [sp, #20]
    af4c:	1a000168 	bne	b4f4 <_strtod_r+0x1244>
    af50:	e3a02000 	mov	r2, #0
    af54:	e59f357c 	ldr	r3, [pc, #1404]	; b4d8 <_strtod_r+0x1228>
    af58:	e1a00004 	mov	r0, r4
    af5c:	e1a01005 	mov	r1, r5
    af60:	ebffd66d 	bl	91c <__aeabi_dmul>
    af64:	e59dc014 	ldr	r12, [sp, #20]
    af68:	e58d1030 	str	r1, [sp, #48]	; 0x30
    af6c:	e1a09000 	mov	r9, r0
    af70:	e1a02000 	mov	r2, r0
    af74:	e2813102 	add	r3, r1, #-2147483648	; 0x80000000
    af78:	e1a04002 	mov	r4, r2
    af7c:	e1a05003 	mov	r5, r3
    af80:	eafffe95 	b	a9dc <_strtod_r+0x72c>
    af84:	e59f1518 	ldr	r1, [pc, #1304]	; b4a4 <_strtod_r+0x11f4>
    af88:	e3a04000 	mov	r4, #0
    af8c:	e59f5530 	ldr	r5, [pc, #1328]	; b4c4 <_strtod_r+0x1214>
    af90:	e3a09000 	mov	r9, #0
    af94:	e58d1030 	str	r1, [sp, #48]	; 0x30
    af98:	eafffe8f 	b	a9dc <_strtod_r+0x72c>
    af9c:	e28d2024 	add	r2, sp, #36	; 0x24
    afa0:	e892000c 	ldm	r2, {r2, r3}
    afa4:	e24cc635 	sub	r12, r12, #55574528	; 0x3500000
    afa8:	e58dc01c 	str	r12, [sp, #28]
    afac:	e58d4008 	str	r4, [sp, #8]
    afb0:	e58d500c 	str	r5, [sp, #12]
    afb4:	e28d1018 	add	r1, sp, #24
    afb8:	e8910003 	ldm	r1, {r0, r1}
    afbc:	e1a04002 	mov	r4, r2
    afc0:	e1a05003 	mov	r5, r3
    afc4:	e58d4050 	str	r4, [sp, #80]	; 0x50
    afc8:	e58d5054 	str	r5, [sp, #84]	; 0x54
    afcc:	ebfff885 	bl	91e8 <__ulp>
    afd0:	e1a02000 	mov	r2, r0
    afd4:	e1a03001 	mov	r3, r1
    afd8:	e28d1008 	add	r1, sp, #8
    afdc:	e8910003 	ldm	r1, {r0, r1}
    afe0:	ebffd64d 	bl	91c <__aeabi_dmul>
    afe4:	e1a02000 	mov	r2, r0
    afe8:	e1a03001 	mov	r3, r1
    afec:	e28d1018 	add	r1, sp, #24
    aff0:	e8910003 	ldm	r1, {r0, r1}
    aff4:	ebffd544 	bl	50c <__adddf3>
    aff8:	e58d0018 	str	r0, [sp, #24]
    affc:	e58d101c 	str	r1, [sp, #28]
    b000:	e59f34e4 	ldr	r3, [pc, #1252]	; b4ec <_strtod_r+0x123c>
    b004:	e59d401c 	ldr	r4, [sp, #28]
    b008:	e59f24b8 	ldr	r2, [pc, #1208]	; b4c8 <_strtod_r+0x1218>
    b00c:	e0043003 	and	r3, r4, r3
    b010:	e1530002 	cmp	r3, r2
    b014:	9a000052 	bls	b164 <_strtod_r+0xeb4>
    b018:	e59f349c 	ldr	r3, [pc, #1180]	; b4bc <_strtod_r+0x120c>
    b01c:	e59d5054 	ldr	r5, [sp, #84]	; 0x54
    b020:	e1550003 	cmp	r5, r3
    b024:	0a0000fb 	beq	b418 <_strtod_r+0x1168>
    b028:	e59f148c 	ldr	r1, [pc, #1164]	; b4bc <_strtod_r+0x120c>
    b02c:	e3e02000 	mvn	r2, #0
    b030:	e58d101c 	str	r1, [sp, #28]
    b034:	e58d2018 	str	r2, [sp, #24]
    b038:	e58d2024 	str	r2, [sp, #36]	; 0x24
    b03c:	e1a04001 	mov	r4, r1
    b040:	e58d1028 	str	r1, [sp, #40]	; 0x28
    b044:	eafffea2 	b	aad4 <_strtod_r+0x824>
    b048:	e1a00009 	mov	r0, r9
    b04c:	e59d1030 	ldr	r1, [sp, #48]	; 0x30
    b050:	eb001ca8 	bl	122f8 <__aeabi_d2iz>
    b054:	ebffd5f9 	bl	840 <__aeabi_i2d>
    b058:	e1a02000 	mov	r2, r0
    b05c:	e1a03001 	mov	r3, r1
    b060:	e1a00009 	mov	r0, r9
    b064:	e59d1030 	ldr	r1, [sp, #48]	; 0x30
    b068:	ebffd526 	bl	508 <__aeabi_dsub>
    b06c:	e59d503c 	ldr	r5, [sp, #60]	; 0x3c
    b070:	e3550000 	cmp	r5, #0
    b074:	e1a09000 	mov	r9, r0
    b078:	e1a0a001 	mov	r10, r1
    b07c:	1a000026 	bne	b11c <_strtod_r+0xe6c>
    b080:	e59d2018 	ldr	r2, [sp, #24]
    b084:	e3520000 	cmp	r2, #0
    b088:	1a000023 	bne	b11c <_strtod_r+0xe6c>
    b08c:	e3c434ff 	bic	r3, r4, #-16777216	; 0xff000000
    b090:	e3c3360f 	bic	r3, r3, #15728640	; 0xf00000
    b094:	e3530000 	cmp	r3, #0
    b098:	1a00001f 	bne	b11c <_strtod_r+0xe6c>
    b09c:	e28f3ff7 	add	r3, pc, #988	; 0x3dc
    b0a0:	e893000c 	ldm	r3, {r2, r3}
    b0a4:	eb001c7b 	bl	12298 <__aeabi_dcmplt>
    b0a8:	e3500000 	cmp	r0, #0
    b0ac:	0afffe88 	beq	aad4 <_strtod_r+0x824>
    b0b0:	e28d9024 	add	r9, sp, #36	; 0x24
    b0b4:	e8990600 	ldm	r9, {r9, r10}
    b0b8:	e1a0000b 	mov	r0, r11
    b0bc:	e59d1060 	ldr	r1, [sp, #96]	; 0x60
    b0c0:	ebfff629 	bl	896c <_Bfree>
    b0c4:	e1a0000b 	mov	r0, r11
    b0c8:	e1a01007 	mov	r1, r7
    b0cc:	ebfff626 	bl	896c <_Bfree>
    b0d0:	e1a0000b 	mov	r0, r11
    b0d4:	e1a01008 	mov	r1, r8
    b0d8:	ebfff623 	bl	896c <_Bfree>
    b0dc:	e1a0000b 	mov	r0, r11
    b0e0:	e59d1044 	ldr	r1, [sp, #68]	; 0x44
    b0e4:	ebfff620 	bl	896c <_Bfree>
    b0e8:	e1a0000b 	mov	r0, r11
    b0ec:	e1a01006 	mov	r1, r6
    b0f0:	ebfff61d 	bl	896c <_Bfree>
    b0f4:	eafffcdf 	b	a478 <_strtod_r+0x1c8>
    b0f8:	e3530001 	cmp	r3, #1
    b0fc:	1affffa0 	bne	af84 <_strtod_r+0xcd4>
    b100:	e35c0000 	cmp	r12, #0
    b104:	1affff9e 	bne	af84 <_strtod_r+0xcd4>
    b108:	e3a09000 	mov	r9, #0
    b10c:	e3a03022 	mov	r3, #34	; 0x22
    b110:	e58b3000 	str	r3, [r11]
    b114:	e1a0a009 	mov	r10, r9
    b118:	eaffffe6 	b	b0b8 <_strtod_r+0xe08>
    b11c:	e1a00009 	mov	r0, r9
    b120:	e1a0100a 	mov	r1, r10
    b124:	e28f3fd7 	add	r3, pc, #860	; 0x35c
    b128:	e893000c 	ldm	r3, {r2, r3}
    b12c:	eb001c59 	bl	12298 <__aeabi_dcmplt>
    b130:	e3500000 	cmp	r0, #0
    b134:	1affffdd 	bne	b0b0 <_strtod_r+0xe00>
    b138:	e1a00009 	mov	r0, r9
    b13c:	e1a0100a 	mov	r1, r10
    b140:	e28f3fd2 	add	r3, pc, #840	; 0x348
    b144:	e893000c 	ldm	r3, {r2, r3}
    b148:	eb001c64 	bl	122e0 <__aeabi_dcmpgt>
    b14c:	e3500000 	cmp	r0, #0
    b150:	0afffe5f 	beq	aad4 <_strtod_r+0x824>
    b154:	eaffffd5 	b	b0b0 <_strtod_r+0xe00>
    b158:	e59f4344 	ldr	r4, [pc, #836]	; b4a4 <_strtod_r+0x11f4>
    b15c:	e58d4030 	str	r4, [sp, #48]	; 0x30
    b160:	eafffe39 	b	aa4c <_strtod_r+0x79c>
    b164:	e59d0018 	ldr	r0, [sp, #24]
    b168:	e2844635 	add	r4, r4, #55574528	; 0x3500000
    b16c:	e58d401c 	str	r4, [sp, #28]
    b170:	e58d0024 	str	r0, [sp, #36]	; 0x24
    b174:	e58d4028 	str	r4, [sp, #40]	; 0x28
    b178:	eafffe4e 	b	aab8 <_strtod_r+0x808>
    b17c:	e59d4048 	ldr	r4, [sp, #72]	; 0x48
    b180:	e59f5344 	ldr	r5, [pc, #836]	; b4cc <_strtod_r+0x121c>
    b184:	e28d3060 	add	r3, sp, #96	; 0x60
    b188:	e88d0018 	stm	sp, {r3, r4}
    b18c:	e1a0000b 	mov	r0, r11
    b190:	e28d105c 	add	r1, sp, #92	; 0x5c
    b194:	e1a02005 	mov	r2, r5
    b198:	e28d3064 	add	r3, sp, #100	; 0x64
    b19c:	eb0012d3 	bl	fcf0 <__gethex>
    b1a0:	e2106007 	ands	r6, r0, #7
    b1a4:	01a09006 	moveq	r9, r6
    b1a8:	e1a04000 	mov	r4, r0
    b1ac:	01a0a009 	moveq	r10, r9
    b1b0:	0afffcb0 	beq	a478 <_strtod_r+0x1c8>
    b1b4:	e3560006 	cmp	r6, #6
    b1b8:	0a0000d6 	beq	b518 <_strtod_r+0x1268>
    b1bc:	e59d2060 	ldr	r2, [sp, #96]	; 0x60
    b1c0:	e3520000 	cmp	r2, #0
    b1c4:	0a000005 	beq	b1e0 <_strtod_r+0xf30>
    b1c8:	e5951000 	ldr	r1, [r5]
    b1cc:	e28d0068 	add	r0, sp, #104	; 0x68
    b1d0:	ebfff8cb 	bl	9504 <__copybits>
    b1d4:	e1a0000b 	mov	r0, r11
    b1d8:	e59d1060 	ldr	r1, [sp, #96]	; 0x60
    b1dc:	ebfff5e2 	bl	896c <_Bfree>
    b1e0:	e59d3064 	ldr	r3, [sp, #100]	; 0x64
    b1e4:	e3560006 	cmp	r6, #6
    b1e8:	979ff106 	ldrls	pc, [pc, r6, lsl #2]
    b1ec:	ea00000a 	b	b21c <_strtod_r+0xf6c>
    b1f0:	0000b284 	.word	0x0000b284
    b1f4:	0000b260 	.word	0x0000b260
    b1f8:	0000b24c 	.word	0x0000b24c
    b1fc:	0000b238 	.word	0x0000b238
    b200:	0000b20c 	.word	0x0000b20c
    b204:	0000b260 	.word	0x0000b260
    b208:	0000b284 	.word	0x0000b284
    b20c:	e3e02102 	mvn	r2, #-2147483648	; 0x80000000
    b210:	e3e03000 	mvn	r3, #0
    b214:	e58d201c 	str	r2, [sp, #28]
    b218:	e58d3018 	str	r3, [sp, #24]
    b21c:	e3140008 	tst	r4, #8
    b220:	0afffd96 	beq	a880 <_strtod_r+0x5d0>
    b224:	e59d401c 	ldr	r4, [sp, #28]
    b228:	e3843102 	orr	r3, r4, #-2147483648	; 0x80000000
    b22c:	e59d9018 	ldr	r9, [sp, #24]
    b230:	e1a0a003 	mov	r10, r3
    b234:	eafffc8f 	b	a478 <_strtod_r+0x1c8>
    b238:	e59f02ac 	ldr	r0, [pc, #684]	; b4ec <_strtod_r+0x123c>
    b23c:	e3a01000 	mov	r1, #0
    b240:	e58d001c 	str	r0, [sp, #28]
    b244:	e58d1018 	str	r1, [sp, #24]
    b248:	eafffff3 	b	b21c <_strtod_r+0xf6c>
    b24c:	e28d1068 	add	r1, sp, #104	; 0x68
    b250:	e8910006 	ldm	r1, {r1, r2}
    b254:	e58d1018 	str	r1, [sp, #24]
    b258:	e58d201c 	str	r2, [sp, #28]
    b25c:	eaffffee 	b	b21c <_strtod_r+0xf6c>
    b260:	e2833e43 	add	r3, r3, #1072	; 0x430
    b264:	e2832003 	add	r2, r3, #3
    b268:	e59d306c 	ldr	r3, [sp, #108]	; 0x6c
    b26c:	e59d5068 	ldr	r5, [sp, #104]	; 0x68
    b270:	e3c33601 	bic	r3, r3, #1048576	; 0x100000
    b274:	e1833a02 	orr	r3, r3, r2, lsl #20
    b278:	e58d5018 	str	r5, [sp, #24]
    b27c:	e58d301c 	str	r3, [sp, #28]
    b280:	eaffffe5 	b	b21c <_strtod_r+0xf6c>
    b284:	e3a05000 	mov	r5, #0
    b288:	e58d501c 	str	r5, [sp, #28]
    b28c:	e58d5018 	str	r5, [sp, #24]
    b290:	eaffffe1 	b	b21c <_strtod_r+0xf6c>
    b294:	e3a02000 	mov	r2, #0
    b298:	e58d2030 	str	r2, [sp, #48]	; 0x30
    b29c:	eaffff07 	b	aec0 <_strtod_r+0xc10>
    b2a0:	e1540009 	cmp	r4, r9
    b2a4:	1a000027 	bne	b348 <_strtod_r+0x1098>
    b2a8:	e59d5018 	ldr	r5, [sp, #24]
    b2ac:	e1550009 	cmp	r5, r9
    b2b0:	1a000024 	bne	b348 <_strtod_r+0x1098>
    b2b4:	e59d201c 	ldr	r2, [sp, #28]
    b2b8:	e3c234ff 	bic	r3, r2, #-16777216	; 0xff000000
    b2bc:	e3c3360f 	bic	r3, r3, #15728640	; 0xf00000
    b2c0:	e1530009 	cmp	r3, r9
    b2c4:	1a00001f 	bne	b348 <_strtod_r+0x1098>
    b2c8:	e59f321c 	ldr	r3, [pc, #540]	; b4ec <_strtod_r+0x123c>
    b2cc:	e0023003 	and	r3, r2, r3
    b2d0:	e353066b 	cmp	r3, #112197632	; 0x6b00000
    b2d4:	9a00001b 	bls	b348 <_strtod_r+0x1098>
    b2d8:	e5963014 	ldr	r3, [r6, #20]
    b2dc:	e1530009 	cmp	r3, r9
    b2e0:	1a000002 	bne	b2f0 <_strtod_r+0x1040>
    b2e4:	e5963010 	ldr	r3, [r6, #16]
    b2e8:	e3530001 	cmp	r3, #1
    b2ec:	da000015 	ble	b348 <_strtod_r+0x1098>
    b2f0:	e1a01006 	mov	r1, r6
    b2f4:	e3a02001 	mov	r2, #1
    b2f8:	e1a0000b 	mov	r0, r11
    b2fc:	ebfff70c 	bl	8f34 <__lshift>
    b300:	e1a01008 	mov	r1, r8
    b304:	e1a06000 	mov	r6, r0
    b308:	ebfff74a 	bl	9038 <__mcmp>
    b30c:	e3500000 	cmp	r0, #0
    b310:	da00000c 	ble	b348 <_strtod_r+0x1098>
    b314:	e59d402c 	ldr	r4, [sp, #44]	; 0x2c
    b318:	e3540000 	cmp	r4, #0
    b31c:	1a000141 	bne	b828 <_strtod_r+0x1578>
    b320:	e59d501c 	ldr	r5, [sp, #28]
    b324:	e3c53102 	bic	r3, r5, #-2147483648	; 0x80000000
    b328:	e1a03a23 	lsr	r3, r3, #20
    b32c:	e1a03a03 	lsl	r3, r3, #20
    b330:	e2433601 	sub	r3, r3, #1048576	; 0x100000
    b334:	e1e03a23 	mvn	r3, r3, lsr #20
    b338:	e1e03a03 	mvn	r3, r3, lsl #20
    b33c:	e3e01000 	mvn	r1, #0
    b340:	e58d301c 	str	r3, [sp, #28]
    b344:	e58d1018 	str	r1, [sp, #24]
    b348:	e59d402c 	ldr	r4, [sp, #44]	; 0x2c
    b34c:	e3540000 	cmp	r4, #0
    b350:	0a00006d 	beq	b50c <_strtod_r+0x125c>
    b354:	e59f5174 	ldr	r5, [pc, #372]	; b4d0 <_strtod_r+0x1220>
    b358:	e3a00000 	mov	r0, #0
    b35c:	e58d5054 	str	r5, [sp, #84]	; 0x54
    b360:	e58d0050 	str	r0, [sp, #80]	; 0x50
    b364:	e28d3050 	add	r3, sp, #80	; 0x50
    b368:	e893000c 	ldm	r3, {r2, r3}
    b36c:	e28d1018 	add	r1, sp, #24
    b370:	e8910003 	ldm	r1, {r0, r1}
    b374:	ebffd568 	bl	91c <__aeabi_dmul>
    b378:	e1a05001 	mov	r5, r1
    b37c:	e1a04000 	mov	r4, r0
    b380:	e58d4018 	str	r4, [sp, #24]
    b384:	e58d501c 	str	r5, [sp, #28]
    b388:	e59d501c 	ldr	r5, [sp, #28]
    b38c:	e3550000 	cmp	r5, #0
    b390:	e1a09000 	mov	r9, r0
    b394:	e1a0a001 	mov	r10, r1
    b398:	e1a03001 	mov	r3, r1
    b39c:	1affff45 	bne	b0b8 <_strtod_r+0xe08>
    b3a0:	e59d0018 	ldr	r0, [sp, #24]
    b3a4:	e3500000 	cmp	r0, #0
    b3a8:	03a03022 	moveq	r3, #34	; 0x22
    b3ac:	058b3000 	streq	r3, [r11]
    b3b0:	eaffff40 	b	b0b8 <_strtod_r+0xe08>
    b3b4:	e59d403c 	ldr	r4, [sp, #60]	; 0x3c
    b3b8:	e28d9024 	add	r9, sp, #36	; 0x24
    b3bc:	e3540000 	cmp	r4, #0
    b3c0:	e8990600 	ldm	r9, {r9, r10}
    b3c4:	0a00006c 	beq	b57c <_strtod_r+0x12cc>
    b3c8:	e59d301c 	ldr	r3, [sp, #28]
    b3cc:	e59f2100 	ldr	r2, [pc, #256]	; b4d4 <_strtod_r+0x1224>
    b3d0:	e3c314ff 	bic	r1, r3, #-16777216	; 0xff000000
    b3d4:	e3c1160f 	bic	r1, r1, #15728640	; 0xf00000
    b3d8:	e1510002 	cmp	r1, r2
    b3dc:	159d1018 	ldrne	r1, [sp, #24]
    b3e0:	0a0000e3 	beq	b774 <_strtod_r+0x14c4>
    b3e4:	e3110001 	tst	r1, #1
    b3e8:	0affffd6 	beq	b348 <_strtod_r+0x1098>
    b3ec:	e1a00009 	mov	r0, r9
    b3f0:	e1a0100a 	mov	r1, r10
    b3f4:	ebfff77b 	bl	91e8 <__ulp>
    b3f8:	e1a02000 	mov	r2, r0
    b3fc:	e1a03001 	mov	r3, r1
    b400:	e1a00009 	mov	r0, r9
    b404:	e1a0100a 	mov	r1, r10
    b408:	ebffd43f 	bl	50c <__adddf3>
    b40c:	e58d0018 	str	r0, [sp, #24]
    b410:	e58d101c 	str	r1, [sp, #28]
    b414:	eaffffcb 	b	b348 <_strtod_r+0x1098>
    b418:	e59d0050 	ldr	r0, [sp, #80]	; 0x50
    b41c:	e3700001 	cmn	r0, #1
    b420:	1affff00 	bne	b028 <_strtod_r+0xd78>
    b424:	e59f00c0 	ldr	r0, [pc, #192]	; b4ec <_strtod_r+0x123c>
    b428:	e3a01000 	mov	r1, #0
    b42c:	e3a03022 	mov	r3, #34	; 0x22
    b430:	e58d001c 	str	r0, [sp, #28]
    b434:	e58d1018 	str	r1, [sp, #24]
    b438:	e58b3000 	str	r3, [r11]
    b43c:	e1a09001 	mov	r9, r1
    b440:	e1a0a000 	mov	r10, r0
    b444:	eaffff1b 	b	b0b8 <_strtod_r+0xe08>
    b448:	e59f209c 	ldr	r2, [pc, #156]	; b4ec <_strtod_r+0x123c>
    b44c:	e3a03000 	mov	r3, #0
    b450:	e58d3018 	str	r3, [sp, #24]
    b454:	e3a03022 	mov	r3, #34	; 0x22
    b458:	e58d201c 	str	r2, [sp, #28]
    b45c:	e58b3000 	str	r3, [r11]
    b460:	e3a09000 	mov	r9, #0
    b464:	e1a0a002 	mov	r10, r2
    b468:	eafffc02 	b	a478 <_strtod_r+0x1c8>
    b46c:	1a000070 	bne	b634 <_strtod_r+0x1384>
    b470:	e28d9018 	add	r9, sp, #24
    b474:	e8990600 	ldm	r9, {r9, r10}
    b478:	e58d602c 	str	r6, [sp, #44]	; 0x2c
    b47c:	eafffd37 	b	a960 <_strtod_r+0x6b0>
    b480:	94a03595 	.word	0x94a03595
    b484:	3fcfffff 	.word	0x3fcfffff
    b488:	94a03595 	.word	0x94a03595
    b48c:	3fdfffff 	.word	0x3fdfffff
    b490:	35afe535 	.word	0x35afe535
    b494:	3fe00000 	.word	0x3fe00000
    b498:	00004e1f 	.word	0x00004e1f
    b49c:	00013b1b 	.word	0x00013b1b
    b4a0:	fff80000 	.word	0xfff80000
    b4a4:	3ff00000 	.word	0x3ff00000
    b4a8:	7fe00000 	.word	0x7fe00000
    b4ac:	ffc00000 	.word	0xffc00000
    b4b0:	41dfffff 	.word	0x41dfffff
    b4b4:	00013ac0 	.word	0x00013ac0
    b4b8:	7ca00000 	.word	0x7ca00000
    b4bc:	7fefffff 	.word	0x7fefffff
    b4c0:	00013b0f 	.word	0x00013b0f
    b4c4:	bff00000 	.word	0xbff00000
    b4c8:	7c9fffff 	.word	0x7c9fffff
    b4cc:	000144c4 	.word	0x000144c4
    b4d0:	39500000 	.word	0x39500000
    b4d4:	000fffff 	.word	0x000fffff
    b4d8:	3fe00000 	.word	0x3fe00000
    b4dc:	bfe00000 	.word	0xbfe00000
    b4e0:	000139d0 	.word	0x000139d0
    b4e4:	00013ae8 	.word	0x00013ae8
    b4e8:	00013b13 	.word	0x00013b13
    b4ec:	7ff00000 	.word	0x7ff00000
    b4f0:	000144d8 	.word	0x000144d8
    b4f4:	e51f4024 	ldr	r4, [pc, #-36]	; b4d8 <_strtod_r+0x1228>
    b4f8:	e59d203c 	ldr	r2, [sp, #60]	; 0x3c
    b4fc:	e51f3028 	ldr	r3, [pc, #-40]	; b4dc <_strtod_r+0x122c>
    b500:	e58d4030 	str	r4, [sp, #48]	; 0x30
    b504:	e1a09002 	mov	r9, r2
    b508:	eafffe9a 	b	af78 <_strtod_r+0xcc8>
    b50c:	e28d9018 	add	r9, sp, #24
    b510:	e8990600 	ldm	r9, {r9, r10}
    b514:	eafffee7 	b	b0b8 <_strtod_r+0xe08>
    b518:	e2888001 	add	r8, r8, #1
    b51c:	e3a09000 	mov	r9, #0
    b520:	e58d805c 	str	r8, [sp, #92]	; 0x5c
    b524:	e1a0a009 	mov	r10, r9
    b528:	eafffbd2 	b	a478 <_strtod_r+0x1c8>
    b52c:	e59d5024 	ldr	r5, [sp, #36]	; 0x24
    b530:	e59d4028 	ldr	r4, [sp, #40]	; 0x28
    b534:	e2653025 	rsb	r3, r5, #37	; 0x25
    b538:	e1540003 	cmp	r4, r3
    b53c:	cafffcf2 	bgt	a90c <_strtod_r+0x65c>
    b540:	e51f4068 	ldr	r4, [pc, #-104]	; b4e0 <_strtod_r+0x1230>
    b544:	e265a00f 	rsb	r10, r5, #15
    b548:	e084118a 	add	r1, r4, r10, lsl #3
    b54c:	e28d3018 	add	r3, sp, #24
    b550:	e893000c 	ldm	r3, {r2, r3}
    b554:	e8910003 	ldm	r1, {r0, r1}
    b558:	ebffd4ef 	bl	91c <__aeabi_dmul>
    b55c:	e59d5028 	ldr	r5, [sp, #40]	; 0x28
    b560:	e06aa005 	rsb	r10, r10, r5
    b564:	e084418a 	add	r4, r4, r10, lsl #3
    b568:	e894000c 	ldm	r4, {r2, r3}
    b56c:	ebffd4ea 	bl	91c <__aeabi_dmul>
    b570:	e1a09000 	mov	r9, r0
    b574:	e1a0a001 	mov	r10, r1
    b578:	eafffbbe 	b	a478 <_strtod_r+0x1c8>
    b57c:	e59d101c 	ldr	r1, [sp, #28]
    b580:	e3c134ff 	bic	r3, r1, #-16777216	; 0xff000000
    b584:	e3c3360f 	bic	r3, r3, #15728640	; 0xf00000
    b588:	e3530000 	cmp	r3, #0
    b58c:	e59d3018 	ldr	r3, [sp, #24]
    b590:	0a000024 	beq	b628 <_strtod_r+0x1378>
    b594:	e3130001 	tst	r3, #1
    b598:	0affff6a 	beq	b348 <_strtod_r+0x1098>
    b59c:	e1a00009 	mov	r0, r9
    b5a0:	e1a0100a 	mov	r1, r10
    b5a4:	ebfff70f 	bl	91e8 <__ulp>
    b5a8:	e1a02000 	mov	r2, r0
    b5ac:	e1a03001 	mov	r3, r1
    b5b0:	e1a00009 	mov	r0, r9
    b5b4:	e1a0100a 	mov	r1, r10
    b5b8:	ebffd3d2 	bl	508 <__aeabi_dsub>
    b5bc:	e1a02000 	mov	r2, r0
    b5c0:	e1a03001 	mov	r3, r1
    b5c4:	e58d2018 	str	r2, [sp, #24]
    b5c8:	e58d301c 	str	r3, [sp, #28]
    b5cc:	e3a02000 	mov	r2, #0
    b5d0:	e3a03000 	mov	r3, #0
    b5d4:	eb001b29 	bl	12280 <__aeabi_dcmpeq>
    b5d8:	e3500000 	cmp	r0, #0
    b5dc:	1afffec9 	bne	b108 <_strtod_r+0xe58>
    b5e0:	eaffff58 	b	b348 <_strtod_r+0x1098>
    b5e4:	e3740016 	cmn	r4, #22
    b5e8:	bafffcc7 	blt	a90c <_strtod_r+0x65c>
    b5ec:	e51f3114 	ldr	r3, [pc, #-276]	; b4e0 <_strtod_r+0x1230>
    b5f0:	e0439184 	sub	r9, r3, r4, lsl #3
    b5f4:	e899000c 	ldm	r9, {r2, r3}
    b5f8:	e28d1018 	add	r1, sp, #24
    b5fc:	e8910003 	ldm	r1, {r0, r1}
    b600:	ebffd569 	bl	bac <__aeabi_ddiv>
    b604:	e1a09000 	mov	r9, r0
    b608:	e1a0a001 	mov	r10, r1
    b60c:	eafffb99 	b	a478 <_strtod_r+0x1c8>
    b610:	e59d3024 	ldr	r3, [sp, #36]	; 0x24
    b614:	e3530010 	cmp	r3, #16
    b618:	d08cc10c 	addle	r12, r12, r12, lsl #2
    b61c:	d080c08c 	addle	r12, r0, r12, lsl #1
    b620:	e3a03000 	mov	r3, #0
    b624:	eafffde7 	b	adc8 <_strtod_r+0xb18>
    b628:	e3530000 	cmp	r3, #0
    b62c:	1affffd8 	bne	b594 <_strtod_r+0x12e4>
    b630:	eaffff37 	b	b314 <_strtod_r+0x1064>
    b634:	e2666000 	rsb	r6, r6, #0
    b638:	e216300f 	ands	r3, r6, #15
    b63c:	0a000007 	beq	b660 <_strtod_r+0x13b0>
    b640:	e51f2168 	ldr	r2, [pc, #-360]	; b4e0 <_strtod_r+0x1230>
    b644:	e0823183 	add	r3, r2, r3, lsl #3
    b648:	e28d1018 	add	r1, sp, #24
    b64c:	e8910003 	ldm	r1, {r0, r1}
    b650:	e893000c 	ldm	r3, {r2, r3}
    b654:	ebffd554 	bl	bac <__aeabi_ddiv>
    b658:	e58d0018 	str	r0, [sp, #24]
    b65c:	e58d101c 	str	r1, [sp, #28]
    b660:	e1b06246 	asrs	r6, r6, #4
    b664:	0affff81 	beq	b470 <_strtod_r+0x11c0>
    b668:	e356001f 	cmp	r6, #31
    b66c:	ca000031 	bgt	b738 <_strtod_r+0x1488>
    b670:	e2165010 	ands	r5, r6, #16
    b674:	13a0506a 	movne	r5, #106	; 0x6a
    b678:	e3560000 	cmp	r6, #0
    b67c:	e58d502c 	str	r5, [sp, #44]	; 0x2c
    b680:	da00000c 	ble	b6b8 <_strtod_r+0x1408>
    b684:	e51f41a8 	ldr	r4, [pc, #-424]	; b4e4 <_strtod_r+0x1234>
    b688:	e28d1018 	add	r1, sp, #24
    b68c:	e8910003 	ldm	r1, {r0, r1}
    b690:	e3160001 	tst	r6, #1
    b694:	1894000c 	ldmne	r4, {r2, r3}
    b698:	1bffd49f 	blne	91c <__aeabi_dmul>
    b69c:	e1b060c6 	asrs	r6, r6, #1
    b6a0:	e2844008 	add	r4, r4, #8
    b6a4:	1afffff9 	bne	b690 <_strtod_r+0x13e0>
    b6a8:	e1a02000 	mov	r2, r0
    b6ac:	e1a03001 	mov	r3, r1
    b6b0:	e58d2018 	str	r2, [sp, #24]
    b6b4:	e58d301c 	str	r3, [sp, #28]
    b6b8:	e59d402c 	ldr	r4, [sp, #44]	; 0x2c
    b6bc:	e3540000 	cmp	r4, #0
    b6c0:	0a000011 	beq	b70c <_strtod_r+0x145c>
    b6c4:	e51f31e0 	ldr	r3, [pc, #-480]	; b4ec <_strtod_r+0x123c>
    b6c8:	e59d201c 	ldr	r2, [sp, #28]
    b6cc:	e0023003 	and	r3, r2, r3
    b6d0:	e1a03a23 	lsr	r3, r3, #20
    b6d4:	e263306b 	rsb	r3, r3, #107	; 0x6b
    b6d8:	e3530000 	cmp	r3, #0
    b6dc:	da00000a 	ble	b70c <_strtod_r+0x145c>
    b6e0:	e353001f 	cmp	r3, #31
    b6e4:	da00006c 	ble	b89c <_strtod_r+0x15ec>
    b6e8:	e3530034 	cmp	r3, #52	; 0x34
    b6ec:	d3e01000 	mvnle	r1, #0
    b6f0:	d2433020 	suble	r3, r3, #32
    b6f4:	d0021311 	andle	r1, r2, r1, lsl r3
    b6f8:	e3a04000 	mov	r4, #0
    b6fc:	c3a05637 	movgt	r5, #57671680	; 0x3700000
    b700:	e58d4018 	str	r4, [sp, #24]
    b704:	c58d501c 	strgt	r5, [sp, #28]
    b708:	d58d101c 	strle	r1, [sp, #28]
    b70c:	e28d2018 	add	r2, sp, #24
    b710:	e892000c 	ldm	r2, {r2, r3}
    b714:	e1a00002 	mov	r0, r2
    b718:	e1a01003 	mov	r1, r3
    b71c:	e3a02000 	mov	r2, #0
    b720:	e3a03000 	mov	r3, #0
    b724:	eb001ad5 	bl	12280 <__aeabi_dcmpeq>
    b728:	e28d9018 	add	r9, sp, #24
    b72c:	e3500000 	cmp	r0, #0
    b730:	e8990600 	ldm	r9, {r9, r10}
    b734:	0afffc89 	beq	a960 <_strtod_r+0x6b0>
    b738:	e3a09000 	mov	r9, #0
    b73c:	e3a03022 	mov	r3, #34	; 0x22
    b740:	e58b3000 	str	r3, [r11]
    b744:	e1a0a009 	mov	r10, r9
    b748:	eafffb4a 	b	a478 <_strtod_r+0x1c8>
    b74c:	e1a03004 	mov	r3, r4
    b750:	eafffc62 	b	a8e0 <_strtod_r+0x630>
    b754:	e2822635 	add	r2, r2, #55574528	; 0x3500000
    b758:	e3a04000 	mov	r4, #0
    b75c:	e1a05002 	mov	r5, r2
    b760:	e58d201c 	str	r2, [sp, #28]
    b764:	e59d9018 	ldr	r9, [sp, #24]
    b768:	e1a0a002 	mov	r10, r2
    b76c:	e58d402c 	str	r4, [sp, #44]	; 0x2c
    b770:	eafffc7a 	b	a960 <_strtod_r+0x6b0>
    b774:	e59d502c 	ldr	r5, [sp, #44]	; 0x2c
    b778:	e3550000 	cmp	r5, #0
    b77c:	e59d1018 	ldr	r1, [sp, #24]
    b780:	0a000010 	beq	b7c8 <_strtod_r+0x1518>
    b784:	e51f22a0 	ldr	r2, [pc, #-672]	; b4ec <_strtod_r+0x123c>
    b788:	e0032002 	and	r2, r3, r2
    b78c:	e352066a 	cmp	r2, #111149056	; 0x6a00000
    b790:	8a00000c 	bhi	b7c8 <_strtod_r+0x1518>
    b794:	e1a02a22 	lsr	r2, r2, #20
    b798:	e262206b 	rsb	r2, r2, #107	; 0x6b
    b79c:	e3e00000 	mvn	r0, #0
    b7a0:	e1a02210 	lsl	r2, r0, r2
    b7a4:	e1510002 	cmp	r1, r2
    b7a8:	1affff0d 	bne	b3e4 <_strtod_r+0x1134>
    b7ac:	e51f22c8 	ldr	r2, [pc, #-712]	; b4ec <_strtod_r+0x123c>
    b7b0:	e0032002 	and	r2, r3, r2
    b7b4:	e2822601 	add	r2, r2, #1048576	; 0x100000
    b7b8:	e3a00000 	mov	r0, #0
    b7bc:	e58d201c 	str	r2, [sp, #28]
    b7c0:	e58d0018 	str	r0, [sp, #24]
    b7c4:	eafffedf 	b	b348 <_strtod_r+0x1098>
    b7c8:	e3e02000 	mvn	r2, #0
    b7cc:	eafffff4 	b	b7a4 <_strtod_r+0x14f4>
    b7d0:	e58d205c 	str	r2, [sp, #92]	; 0x5c
    b7d4:	e51fc2f4 	ldr	r12, [pc, #-756]	; b4e8 <_strtod_r+0x1238>
    b7d8:	e1a01002 	mov	r1, r2
    b7dc:	e5fc0001 	ldrb	r0, [r12, #1]!
    b7e0:	e3500000 	cmp	r0, #0
    b7e4:	e1a03001 	mov	r3, r1
    b7e8:	0a000017 	beq	b84c <_strtod_r+0x159c>
    b7ec:	e5d33001 	ldrb	r3, [r3, #1]
    b7f0:	e3530040 	cmp	r3, #64	; 0x40
    b7f4:	e2811001 	add	r1, r1, #1
    b7f8:	da000001 	ble	b804 <_strtod_r+0x1554>
    b7fc:	e353005a 	cmp	r3, #90	; 0x5a
    b800:	d2833020 	addle	r3, r3, #32
    b804:	e1530000 	cmp	r3, r0
    b808:	0afffff3 	beq	b7dc <_strtod_r+0x152c>
    b80c:	e2822001 	add	r2, r2, #1
    b810:	e58d205c 	str	r2, [sp, #92]	; 0x5c
    b814:	e51f1330 	ldr	r1, [pc, #-816]	; b4ec <_strtod_r+0x123c>
    b818:	e3a02000 	mov	r2, #0
    b81c:	e58d101c 	str	r1, [sp, #28]
    b820:	e58d2018 	str	r2, [sp, #24]
    b824:	eafffc15 	b	a880 <_strtod_r+0x5d0>
    b828:	e59d001c 	ldr	r0, [sp, #28]
    b82c:	e3c03102 	bic	r3, r0, #-2147483648	; 0x80000000
    b830:	e1a03a23 	lsr	r3, r3, #20
    b834:	e1a03a03 	lsl	r3, r3, #20
    b838:	e353066b 	cmp	r3, #112197632	; 0x6b00000
    b83c:	8afffebb 	bhi	b330 <_strtod_r+0x1080>
    b840:	e3530637 	cmp	r3, #57671680	; 0x3700000
    b844:	8afffec2 	bhi	b354 <_strtod_r+0x10a4>
    b848:	eafffe2e 	b	b108 <_strtod_r+0xe58>
    b84c:	e2811001 	add	r1, r1, #1
    b850:	e58d105c 	str	r1, [sp, #92]	; 0x5c
    b854:	eaffffee 	b	b814 <_strtod_r+0x1564>
    b858:	e59d3024 	ldr	r3, [sp, #36]	; 0x24
    b85c:	eafffd52 	b	adac <_strtod_r+0xafc>
    b860:	e3a05000 	mov	r5, #0
    b864:	eafffd77 	b	ae48 <_strtod_r+0xb98>
    b868:	e28d005c 	add	r0, sp, #92	; 0x5c
    b86c:	e51f1384 	ldr	r1, [pc, #-900]	; b4f0 <_strtod_r+0x1240>
    b870:	e28d2068 	add	r2, sp, #104	; 0x68
    b874:	eb00132e 	bl	10534 <__hexnan>
    b878:	e3500005 	cmp	r0, #5
    b87c:	1afffbfb 	bne	a870 <_strtod_r+0x5c0>
    b880:	e59d306c 	ldr	r3, [sp, #108]	; 0x6c
    b884:	e383347f 	orr	r3, r3, #2130706432	; 0x7f000000
    b888:	e383360f 	orr	r3, r3, #15728640	; 0xf00000
    b88c:	e58d301c 	str	r3, [sp, #28]
    b890:	e59d3068 	ldr	r3, [sp, #104]	; 0x68
    b894:	e58d3018 	str	r3, [sp, #24]
    b898:	eafffbf8 	b	a880 <_strtod_r+0x5d0>
    b89c:	e59d0018 	ldr	r0, [sp, #24]
    b8a0:	e3e02000 	mvn	r2, #0
    b8a4:	e0000312 	and	r0, r0, r2, lsl r3
    b8a8:	e58d0018 	str	r0, [sp, #24]
    b8ac:	eaffff96 	b	b70c <_strtod_r+0x145c>

0000b8b0 <strtod>:
    b8b0:	e1a02001 	mov	r2, r1
    b8b4:	e59f100c 	ldr	r1, [pc, #12]	; b8c8 <strtod+0x18>
    b8b8:	e1a03000 	mov	r3, r0
    b8bc:	e5910000 	ldr	r0, [r1]
    b8c0:	e1a01003 	mov	r1, r3
    b8c4:	eafffa79 	b	a2b0 <_strtod_r>
    b8c8:	00013c00 	.word	0x00013c00

0000b8cc <strtof>:
    b8cc:	e92d41f0 	push	{r4, r5, r6, r7, r8, lr}
    b8d0:	e59f70dc 	ldr	r7, [pc, #220]	; b9b4 <strtof+0xe8>
    b8d4:	e1a03000 	mov	r3, r0
    b8d8:	e1a02001 	mov	r2, r1
    b8dc:	e5970000 	ldr	r0, [r7]
    b8e0:	e1a01003 	mov	r1, r3
    b8e4:	ebfffa71 	bl	a2b0 <_strtod_r>
    b8e8:	e1a05001 	mov	r5, r1
    b8ec:	e1a04000 	mov	r4, r0
    b8f0:	eb001aac 	bl	123a8 <__aeabi_d2f>
    b8f4:	e3a01000 	mov	r1, #0
    b8f8:	e1a06000 	mov	r6, r0
    b8fc:	eb001af8 	bl	124e4 <__aeabi_fcmpeq>
    b900:	e3a03000 	mov	r3, #0
    b904:	e3500000 	cmp	r0, #0
    b908:	e1a01005 	mov	r1, r5
    b90c:	e1a00004 	mov	r0, r4
    b910:	e3a02000 	mov	r2, #0
    b914:	e3a08001 	mov	r8, #1
    b918:	03a08000 	moveq	r8, #0
    b91c:	eb001a57 	bl	12280 <__aeabi_dcmpeq>
    b920:	e3500000 	cmp	r0, #0
    b924:	e3a03001 	mov	r3, #1
    b928:	13a03000 	movne	r3, #0
    b92c:	e0088003 	and	r8, r8, r3
    b930:	e3180001 	tst	r8, #1
    b934:	1a000010 	bne	b97c <strtof+0xb0>
    b938:	e1a00006 	mov	r0, r6
    b93c:	e59f1074 	ldr	r1, [pc, #116]	; b9b8 <strtof+0xec>
    b940:	eb001aff 	bl	12544 <__aeabi_fcmpgt>
    b944:	e3500000 	cmp	r0, #0
    b948:	1a000011 	bne	b994 <strtof+0xc8>
    b94c:	e1a00006 	mov	r0, r6
    b950:	e3e01502 	mvn	r1, #8388608	; 0x800000
    b954:	eb001ae8 	bl	124fc <__aeabi_fcmplt>
    b958:	e3500000 	cmp	r0, #0
    b95c:	0a000009 	beq	b988 <strtof+0xbc>
    b960:	e1a00004 	mov	r0, r4
    b964:	e1a01005 	mov	r1, r5
    b968:	e3e02000 	mvn	r2, #0
    b96c:	e3e03601 	mvn	r3, #1048576	; 0x100000
    b970:	eb001a48 	bl	12298 <__aeabi_dcmplt>
    b974:	e3500000 	cmp	r0, #0
    b978:	1a000002 	bne	b988 <strtof+0xbc>
    b97c:	e5973000 	ldr	r3, [r7]
    b980:	e3a02022 	mov	r2, #34	; 0x22
    b984:	e5832000 	str	r2, [r3]
    b988:	e1a00006 	mov	r0, r6
    b98c:	e8bd41f0 	pop	{r4, r5, r6, r7, r8, lr}
    b990:	e12fff1e 	bx	lr
    b994:	e1a00004 	mov	r0, r4
    b998:	e1a01005 	mov	r1, r5
    b99c:	e3e02000 	mvn	r2, #0
    b9a0:	e59f3014 	ldr	r3, [pc, #20]	; b9bc <strtof+0xf0>
    b9a4:	eb001a4d 	bl	122e0 <__aeabi_dcmpgt>
    b9a8:	e3500000 	cmp	r0, #0
    b9ac:	0afffff2 	beq	b97c <strtof+0xb0>
    b9b0:	eaffffe5 	b	b94c <strtof+0x80>
    b9b4:	00013c00 	.word	0x00013c00
    b9b8:	7f7fffff 	.word	0x7f7fffff
    b9bc:	7fefffff 	.word	0x7fefffff

0000b9c0 <_strtol_r>:
    b9c0:	e92d4ff0 	push	{r4, r5, r6, r7, r8, r9, r10, r11, lr}
    b9c4:	e1a0b001 	mov	r11, r1
    b9c8:	e24dd014 	sub	sp, sp, #20
    b9cc:	e59f11b4 	ldr	r1, [pc, #436]	; bb88 <_strtol_r+0x1c8>
    b9d0:	e58d000c 	str	r0, [sp, #12]
    b9d4:	e5917000 	ldr	r7, [r1]
    b9d8:	e1a08003 	mov	r8, r3
    b9dc:	e1a0100b 	mov	r1, r11
    b9e0:	e1a04001 	mov	r4, r1
    b9e4:	e4d45001 	ldrb	r5, [r4], #1
    b9e8:	e0873005 	add	r3, r7, r5
    b9ec:	e5d33001 	ldrb	r3, [r3, #1]
    b9f0:	e2133008 	ands	r3, r3, #8
    b9f4:	e1a01004 	mov	r1, r4
    b9f8:	1afffff8 	bne	b9e0 <_strtol_r+0x20>
    b9fc:	e355002d 	cmp	r5, #45	; 0x2d
    ba00:	0a000051 	beq	bb4c <_strtol_r+0x18c>
    ba04:	e355002b 	cmp	r5, #43	; 0x2b
    ba08:	01a04004 	moveq	r4, r4
    ba0c:	04d45001 	ldrbeq	r5, [r4], #1
    ba10:	e3d81010 	bics	r1, r8, #16
    ba14:	1a000007 	bne	ba38 <_strtol_r+0x78>
    ba18:	e2781001 	rsbs	r1, r8, #1
    ba1c:	33a01000 	movcc	r1, #0
    ba20:	e3550030 	cmp	r5, #48	; 0x30
    ba24:	0a00004b 	beq	bb58 <_strtol_r+0x198>
    ba28:	e3510000 	cmp	r1, #0
    ba2c:	13a0800a 	movne	r8, #10
    ba30:	11a09008 	movne	r9, r8
    ba34:	1a000000 	bne	ba3c <_strtol_r+0x7c>
    ba38:	e1a09008 	mov	r9, r8
    ba3c:	e3530000 	cmp	r3, #0
    ba40:	03e06102 	mvneq	r6, #-2147483648	; 0x80000000
    ba44:	13a06102 	movne	r6, #-2147483648	; 0x80000000
    ba48:	e1a00006 	mov	r0, r6
    ba4c:	e1a01009 	mov	r1, r9
    ba50:	e98d000c 	stmib	sp, {r2, r3}
    ba54:	eb0019cd 	bl	12190 <__aeabi_uidivmod>
    ba58:	e1a00006 	mov	r0, r6
    ba5c:	e1a0a001 	mov	r10, r1
    ba60:	e3a06000 	mov	r6, #0
    ba64:	e1a01009 	mov	r1, r9
    ba68:	eb00198b 	bl	1209c <__aeabi_uidiv>
    ba6c:	e1a01006 	mov	r1, r6
    ba70:	e99d000c 	ldmib	sp, {r2, r3}
    ba74:	ea000009 	b	baa0 <_strtol_r+0xe0>
    ba78:	e155000a 	cmp	r5, r10
    ba7c:	d3a0c000 	movle	r12, #0
    ba80:	c3a0c001 	movgt	r12, #1
    ba84:	e1510000 	cmp	r1, r0
    ba88:	13a0c000 	movne	r12, #0
    ba8c:	e35c0000 	cmp	r12, #0
    ba90:	1a000014 	bne	bae8 <_strtol_r+0x128>
    ba94:	e0215199 	mla	r1, r9, r1, r5
    ba98:	e3a06001 	mov	r6, #1
    ba9c:	e4d45001 	ldrb	r5, [r4], #1
    baa0:	e087c005 	add	r12, r7, r5
    baa4:	e5dcc001 	ldrb	r12, [r12, #1]
    baa8:	e31c0004 	tst	r12, #4
    baac:	12455030 	subne	r5, r5, #48	; 0x30
    bab0:	1a000005 	bne	bacc <_strtol_r+0x10c>
    bab4:	e21cc003 	ands	r12, r12, #3
    bab8:	0a00000c 	beq	baf0 <_strtol_r+0x130>
    babc:	e35c0001 	cmp	r12, #1
    bac0:	13a0c057 	movne	r12, #87	; 0x57
    bac4:	03a0c037 	moveq	r12, #55	; 0x37
    bac8:	e06c5005 	rsb	r5, r12, r5
    bacc:	e1580005 	cmp	r8, r5
    bad0:	da000006 	ble	baf0 <_strtol_r+0x130>
    bad4:	e1510000 	cmp	r1, r0
    bad8:	93a0c000 	movls	r12, #0
    badc:	83a0c001 	movhi	r12, #1
    bae0:	e19c6fa6 	orrs	r6, r12, r6, lsr #31
    bae4:	0affffe3 	beq	ba78 <_strtol_r+0xb8>
    bae8:	e3e06000 	mvn	r6, #0
    baec:	eaffffea 	b	ba9c <_strtol_r+0xdc>
    baf0:	e3760001 	cmn	r6, #1
    baf4:	0a00000a 	beq	bb24 <_strtol_r+0x164>
    baf8:	e3530000 	cmp	r3, #0
    bafc:	12611000 	rsbne	r1, r1, #0
    bb00:	e3520000 	cmp	r2, #0
    bb04:	e1a00001 	mov	r0, r1
    bb08:	0a000002 	beq	bb18 <_strtol_r+0x158>
    bb0c:	e3560000 	cmp	r6, #0
    bb10:	1a00000b 	bne	bb44 <_strtol_r+0x184>
    bb14:	e582b000 	str	r11, [r2]
    bb18:	e28dd014 	add	sp, sp, #20
    bb1c:	e8bd4ff0 	pop	{r4, r5, r6, r7, r8, r9, r10, r11, lr}
    bb20:	e12fff1e 	bx	lr
    bb24:	e3530000 	cmp	r3, #0
    bb28:	e59d100c 	ldr	r1, [sp, #12]
    bb2c:	03e00102 	mvneq	r0, #-2147483648	; 0x80000000
    bb30:	13a00102 	movne	r0, #-2147483648	; 0x80000000
    bb34:	e3a03022 	mov	r3, #34	; 0x22
    bb38:	e3520000 	cmp	r2, #0
    bb3c:	e5813000 	str	r3, [r1]
    bb40:	0afffff4 	beq	bb18 <_strtol_r+0x158>
    bb44:	e244b001 	sub	r11, r4, #1
    bb48:	eafffff1 	b	bb14 <_strtol_r+0x154>
    bb4c:	e4d45001 	ldrb	r5, [r4], #1
    bb50:	e3a03001 	mov	r3, #1
    bb54:	eaffffad 	b	ba10 <_strtol_r+0x50>
    bb58:	e5d40000 	ldrb	r0, [r4]
    bb5c:	e20000df 	and	r0, r0, #223	; 0xdf
    bb60:	e3500058 	cmp	r0, #88	; 0x58
    bb64:	0a000002 	beq	bb74 <_strtol_r+0x1b4>
    bb68:	e3510000 	cmp	r1, #0
    bb6c:	13a08008 	movne	r8, #8
    bb70:	eaffffb0 	b	ba38 <_strtol_r+0x78>
    bb74:	e3a08010 	mov	r8, #16
    bb78:	e5d45001 	ldrb	r5, [r4, #1]
    bb7c:	e1a09008 	mov	r9, r8
    bb80:	e2844002 	add	r4, r4, #2
    bb84:	eaffffac 	b	ba3c <_strtol_r+0x7c>
    bb88:	00014030 	.word	0x00014030

0000bb8c <strtol>:
    bb8c:	e52d4004 	push	{r4}		; (str r4, [sp, #-4]!)
    bb90:	e1a03002 	mov	r3, r2
    bb94:	e59f2018 	ldr	r2, [pc, #24]	; bbb4 <strtol+0x28>
    bb98:	e1a04000 	mov	r4, r0
    bb9c:	e1a0c001 	mov	r12, r1
    bba0:	e5920000 	ldr	r0, [r2]
    bba4:	e1a01004 	mov	r1, r4
    bba8:	e1a0200c 	mov	r2, r12
    bbac:	e8bd0010 	ldmfd	sp!, {r4}
    bbb0:	eaffff82 	b	b9c0 <_strtol_r>
    bbb4:	00013c00 	.word	0x00013c00

0000bbb8 <_strtoll_r>:
    bbb8:	e92d4ff0 	push	{r4, r5, r6, r7, r8, r9, r10, r11, lr}
    bbbc:	e24dd01c 	sub	sp, sp, #28
    bbc0:	e58d1008 	str	r1, [sp, #8]
    bbc4:	e59f1264 	ldr	r1, [pc, #612]	; be30 <_strtoll_r+0x278>
    bbc8:	e58d200c 	str	r2, [sp, #12]
    bbcc:	e5917000 	ldr	r7, [r1]
    bbd0:	e58d0014 	str	r0, [sp, #20]
    bbd4:	e59d2008 	ldr	r2, [sp, #8]
    bbd8:	e1a08003 	mov	r8, r3
    bbdc:	e1a06002 	mov	r6, r2
    bbe0:	e4d69001 	ldrb	r9, [r6], #1
    bbe4:	e0873009 	add	r3, r7, r9
    bbe8:	e5d33001 	ldrb	r3, [r3, #1]
    bbec:	e2133008 	ands	r3, r3, #8
    bbf0:	e1a02006 	mov	r2, r6
    bbf4:	1afffff8 	bne	bbdc <_strtoll_r+0x24>
    bbf8:	e359002d 	cmp	r9, #45	; 0x2d
    bbfc:	0a000077 	beq	bde0 <_strtoll_r+0x228>
    bc00:	e359002b 	cmp	r9, #43	; 0x2b
    bc04:	01a06006 	moveq	r6, r6
    bc08:	04d69001 	ldrbeq	r9, [r6], #1
    bc0c:	e58d3010 	str	r3, [sp, #16]
    bc10:	e3d81010 	bics	r1, r8, #16
    bc14:	1a000008 	bne	bc3c <_strtoll_r+0x84>
    bc18:	e2783001 	rsbs	r3, r8, #1
    bc1c:	33a03000 	movcc	r3, #0
    bc20:	e3590030 	cmp	r9, #48	; 0x30
    bc24:	0a000071 	beq	bdf0 <_strtoll_r+0x238>
    bc28:	e3530000 	cmp	r3, #0
    bc2c:	13a0a00a 	movne	r10, #10
    bc30:	13a0b000 	movne	r11, #0
    bc34:	13a0800a 	movne	r8, #10
    bc38:	1a000001 	bne	bc44 <_strtoll_r+0x8c>
    bc3c:	e1a0a008 	mov	r10, r8
    bc40:	e1a0bfc8 	asr	r11, r8, #31
    bc44:	e59d2010 	ldr	r2, [sp, #16]
    bc48:	e3520000 	cmp	r2, #0
    bc4c:	13a04000 	movne	r4, #0
    bc50:	13a05102 	movne	r5, #-2147483648	; 0x80000000
    bc54:	03e04000 	mvneq	r4, #0
    bc58:	03e05102 	mvneq	r5, #-2147483648	; 0x80000000
    bc5c:	e1a00004 	mov	r0, r4
    bc60:	e1a01005 	mov	r1, r5
    bc64:	e1a0300b 	mov	r3, r11
    bc68:	e1a0200a 	mov	r2, r10
    bc6c:	eb001a3a 	bl	1255c <__aeabi_uldivmod>
    bc70:	e1a0300b 	mov	r3, r11
    bc74:	e58d2004 	str	r2, [sp, #4]
    bc78:	e1a00004 	mov	r0, r4
    bc7c:	e1a01005 	mov	r1, r5
    bc80:	e1a0200a 	mov	r2, r10
    bc84:	eb001a34 	bl	1255c <__aeabi_uldivmod>
    bc88:	e1a0c00b 	mov	r12, r11
    bc8c:	e1a04000 	mov	r4, r0
    bc90:	e1a05001 	mov	r5, r1
    bc94:	e3a03000 	mov	r3, #0
    bc98:	e3a00000 	mov	r0, #0
    bc9c:	e3a01000 	mov	r1, #0
    bca0:	e1a0b00a 	mov	r11, r10
    bca4:	ea000011 	b	bcf0 <_strtoll_r+0x138>
    bca8:	e1510005 	cmp	r1, r5
    bcac:	01500004 	cmpeq	r0, r4
    bcb0:	e59d2004 	ldr	r2, [sp, #4]
    bcb4:	13a03000 	movne	r3, #0
    bcb8:	03a03001 	moveq	r3, #1
    bcbc:	e1590002 	cmp	r9, r2
    bcc0:	d3a03000 	movle	r3, #0
    bcc4:	c2033001 	andgt	r3, r3, #1
    bcc8:	e3530000 	cmp	r3, #0
    bccc:	1a00001a 	bne	bd3c <_strtoll_r+0x184>
    bcd0:	e00a0c90 	mul	r10, r0, r12
    bcd4:	e0832b90 	umull	r2, r3, r0, r11
    bcd8:	e02aa19b 	mla	r10, r11, r1, r10
    bcdc:	e0920009 	adds	r0, r2, r9
    bce0:	e08a3003 	add	r3, r10, r3
    bce4:	e0a31fc9 	adc	r1, r3, r9, asr #31
    bce8:	e3a03001 	mov	r3, #1
    bcec:	e4d69001 	ldrb	r9, [r6], #1
    bcf0:	e0872009 	add	r2, r7, r9
    bcf4:	e5d22001 	ldrb	r2, [r2, #1]
    bcf8:	e3120004 	tst	r2, #4
    bcfc:	12499030 	subne	r9, r9, #48	; 0x30
    bd00:	1a000005 	bne	bd1c <_strtoll_r+0x164>
    bd04:	e2122003 	ands	r2, r2, #3
    bd08:	0a00000d 	beq	bd44 <_strtoll_r+0x18c>
    bd0c:	e3520001 	cmp	r2, #1
    bd10:	13a02057 	movne	r2, #87	; 0x57
    bd14:	03a02037 	moveq	r2, #55	; 0x37
    bd18:	e0629009 	rsb	r9, r2, r9
    bd1c:	e1580009 	cmp	r8, r9
    bd20:	da000007 	ble	bd44 <_strtoll_r+0x18c>
    bd24:	e1550001 	cmp	r5, r1
    bd28:	01540000 	cmpeq	r4, r0
    bd2c:	23a02000 	movcs	r2, #0
    bd30:	33a02001 	movcc	r2, #1
    bd34:	e1923fa3 	orrs	r3, r2, r3, lsr #31
    bd38:	0affffda 	beq	bca8 <_strtoll_r+0xf0>
    bd3c:	e3e03000 	mvn	r3, #0
    bd40:	eaffffe9 	b	bcec <_strtoll_r+0x134>
    bd44:	e3730001 	cmn	r3, #1
    bd48:	0a000012 	beq	bd98 <_strtoll_r+0x1e0>
    bd4c:	e59d2010 	ldr	r2, [sp, #16]
    bd50:	e3520000 	cmp	r2, #0
    bd54:	1a00001e 	bne	bdd4 <_strtoll_r+0x21c>
    bd58:	e59d200c 	ldr	r2, [sp, #12]
    bd5c:	e3520000 	cmp	r2, #0
    bd60:	01a03001 	moveq	r3, r1
    bd64:	e1a02000 	mov	r2, r0
    bd68:	0a000005 	beq	bd84 <_strtoll_r+0x1cc>
    bd6c:	e3530000 	cmp	r3, #0
    bd70:	e1a03001 	mov	r3, r1
    bd74:	1a000013 	bne	bdc8 <_strtoll_r+0x210>
    bd78:	e28d0008 	add	r0, sp, #8
    bd7c:	e8900003 	ldm	r0, {r0, r1}
    bd80:	e5810000 	str	r0, [r1]
    bd84:	e1a00002 	mov	r0, r2
    bd88:	e1a01003 	mov	r1, r3
    bd8c:	e28dd01c 	add	sp, sp, #28
    bd90:	e8bd4ff0 	pop	{r4, r5, r6, r7, r8, r9, r10, r11, lr}
    bd94:	e12fff1e 	bx	lr
    bd98:	e28d000c 	add	r0, sp, #12
    bd9c:	e8900009 	ldm	r0, {r0, r3}
    bda0:	e3530000 	cmp	r3, #0
    bda4:	13a02000 	movne	r2, #0
    bda8:	13a03102 	movne	r3, #-2147483648	; 0x80000000
    bdac:	03e02000 	mvneq	r2, #0
    bdb0:	03e03102 	mvneq	r3, #-2147483648	; 0x80000000
    bdb4:	e3500000 	cmp	r0, #0
    bdb8:	e59d0014 	ldr	r0, [sp, #20]
    bdbc:	e3a01022 	mov	r1, #34	; 0x22
    bdc0:	e5801000 	str	r1, [r0]
    bdc4:	0affffee 	beq	bd84 <_strtoll_r+0x1cc>
    bdc8:	e2466001 	sub	r6, r6, #1
    bdcc:	e58d6008 	str	r6, [sp, #8]
    bdd0:	eaffffe8 	b	bd78 <_strtoll_r+0x1c0>
    bdd4:	e2700000 	rsbs	r0, r0, #0
    bdd8:	e2e11000 	rsc	r1, r1, #0
    bddc:	eaffffdd 	b	bd58 <_strtoll_r+0x1a0>
    bde0:	e3a00001 	mov	r0, #1
    bde4:	e4d69001 	ldrb	r9, [r6], #1
    bde8:	e58d0010 	str	r0, [sp, #16]
    bdec:	eaffff87 	b	bc10 <_strtoll_r+0x58>
    bdf0:	e5d62000 	ldrb	r2, [r6]
    bdf4:	e20220df 	and	r2, r2, #223	; 0xdf
    bdf8:	e3520058 	cmp	r2, #88	; 0x58
    bdfc:	0a000005 	beq	be18 <_strtoll_r+0x260>
    be00:	e3530000 	cmp	r3, #0
    be04:	13a0a008 	movne	r10, #8
    be08:	13a0b000 	movne	r11, #0
    be0c:	13a08008 	movne	r8, #8
    be10:	1affff8b 	bne	bc44 <_strtoll_r+0x8c>
    be14:	eaffff88 	b	bc3c <_strtoll_r+0x84>
    be18:	e5d69001 	ldrb	r9, [r6, #1]
    be1c:	e3a0a010 	mov	r10, #16
    be20:	e3a0b000 	mov	r11, #0
    be24:	e2866002 	add	r6, r6, #2
    be28:	e3a08010 	mov	r8, #16
    be2c:	eaffff84 	b	bc44 <_strtoll_r+0x8c>
    be30:	00014030 	.word	0x00014030

0000be34 <_strtoul_r>:
    be34:	e92d4ff0 	push	{r4, r5, r6, r7, r8, r9, r10, r11, lr}
    be38:	e1a0a001 	mov	r10, r1
    be3c:	e24dd00c 	sub	sp, sp, #12
    be40:	e59f11c4 	ldr	r1, [pc, #452]	; c00c <_strtoul_r+0x1d8>
    be44:	e58d0004 	str	r0, [sp, #4]
    be48:	e5917000 	ldr	r7, [r1]
    be4c:	e1a0b002 	mov	r11, r2
    be50:	e1a09003 	mov	r9, r3
    be54:	e1a0100a 	mov	r1, r10
    be58:	e1a04001 	mov	r4, r1
    be5c:	e4d45001 	ldrb	r5, [r4], #1
    be60:	e0873005 	add	r3, r7, r5
    be64:	e5d32001 	ldrb	r2, [r3, #1]
    be68:	e2122008 	ands	r2, r2, #8
    be6c:	e1a01004 	mov	r1, r4
    be70:	1afffff8 	bne	be58 <_strtoul_r+0x24>
    be74:	e355002d 	cmp	r5, #45	; 0x2d
    be78:	0a000059 	beq	bfe4 <_strtoul_r+0x1b0>
    be7c:	e355002b 	cmp	r5, #43	; 0x2b
    be80:	01a04004 	moveq	r4, r4
    be84:	04d45001 	ldrbeq	r5, [r4], #1
    be88:	e1a03002 	mov	r3, r2
    be8c:	e3d92010 	bics	r2, r9, #16
    be90:	1a000014 	bne	bee8 <_strtoul_r+0xb4>
    be94:	e2792001 	rsbs	r2, r9, #1
    be98:	33a02000 	movcc	r2, #0
    be9c:	e3550030 	cmp	r5, #48	; 0x30
    bea0:	0a000006 	beq	bec0 <_strtoul_r+0x8c>
    bea4:	e3520000 	cmp	r2, #0
    bea8:	0a00000e 	beq	bee8 <_strtoul_r+0xb4>
    beac:	e3a0900a 	mov	r9, #10
    beb0:	e3a01005 	mov	r1, #5
    beb4:	e59f8154 	ldr	r8, [pc, #340]	; c010 <_strtoul_r+0x1dc>
    beb8:	e1a02009 	mov	r2, r9
    bebc:	ea000013 	b	bf10 <_strtoul_r+0xdc>
    bec0:	e5d41000 	ldrb	r1, [r4]
    bec4:	e20110df 	and	r1, r1, #223	; 0xdf
    bec8:	e3510058 	cmp	r1, #88	; 0x58
    becc:	0a000047 	beq	bff0 <_strtoul_r+0x1bc>
    bed0:	e3520000 	cmp	r2, #0
    bed4:	13a09008 	movne	r9, #8
    bed8:	13a01007 	movne	r1, #7
    bedc:	13e0820e 	mvnne	r8, #-536870912	; 0xe0000000
    bee0:	11a02009 	movne	r2, r9
    bee4:	1a000009 	bne	bf10 <_strtoul_r+0xdc>
    bee8:	e1a01009 	mov	r1, r9
    beec:	e3e00000 	mvn	r0, #0
    bef0:	e58d3000 	str	r3, [sp]
    bef4:	eb001868 	bl	1209c <__aeabi_uidiv>
    bef8:	e1a01009 	mov	r1, r9
    befc:	e1a08000 	mov	r8, r0
    bf00:	e3e00000 	mvn	r0, #0
    bf04:	eb0018a1 	bl	12190 <__aeabi_uidivmod>
    bf08:	e59d3000 	ldr	r3, [sp]
    bf0c:	e1a02009 	mov	r2, r9
    bf10:	e3a06000 	mov	r6, #0
    bf14:	e1a00006 	mov	r0, r6
    bf18:	ea000009 	b	bf44 <_strtoul_r+0x110>
    bf1c:	e1550001 	cmp	r5, r1
    bf20:	d3a0c000 	movle	r12, #0
    bf24:	c3a0c001 	movgt	r12, #1
    bf28:	e1500008 	cmp	r0, r8
    bf2c:	13a0c000 	movne	r12, #0
    bf30:	e35c0000 	cmp	r12, #0
    bf34:	1a000014 	bne	bf8c <_strtoul_r+0x158>
    bf38:	e0205092 	mla	r0, r2, r0, r5
    bf3c:	e3a06001 	mov	r6, #1
    bf40:	e4d45001 	ldrb	r5, [r4], #1
    bf44:	e087c005 	add	r12, r7, r5
    bf48:	e5dcc001 	ldrb	r12, [r12, #1]
    bf4c:	e31c0004 	tst	r12, #4
    bf50:	12455030 	subne	r5, r5, #48	; 0x30
    bf54:	1a000005 	bne	bf70 <_strtoul_r+0x13c>
    bf58:	e21cc003 	ands	r12, r12, #3
    bf5c:	0a00000c 	beq	bf94 <_strtoul_r+0x160>
    bf60:	e35c0001 	cmp	r12, #1
    bf64:	13a0c057 	movne	r12, #87	; 0x57
    bf68:	03a0c037 	moveq	r12, #55	; 0x37
    bf6c:	e06c5005 	rsb	r5, r12, r5
    bf70:	e1590005 	cmp	r9, r5
    bf74:	da000006 	ble	bf94 <_strtoul_r+0x160>
    bf78:	e1500008 	cmp	r0, r8
    bf7c:	93a0c000 	movls	r12, #0
    bf80:	83a0c001 	movhi	r12, #1
    bf84:	e19c6fa6 	orrs	r6, r12, r6, lsr #31
    bf88:	0affffe3 	beq	bf1c <_strtoul_r+0xe8>
    bf8c:	e3e06000 	mvn	r6, #0
    bf90:	eaffffea 	b	bf40 <_strtoul_r+0x10c>
    bf94:	e3760001 	cmn	r6, #1
    bf98:	0a000009 	beq	bfc4 <_strtoul_r+0x190>
    bf9c:	e3530000 	cmp	r3, #0
    bfa0:	12600000 	rsbne	r0, r0, #0
    bfa4:	e35b0000 	cmp	r11, #0
    bfa8:	0a000002 	beq	bfb8 <_strtoul_r+0x184>
    bfac:	e3560000 	cmp	r6, #0
    bfb0:	1a000009 	bne	bfdc <_strtoul_r+0x1a8>
    bfb4:	e58ba000 	str	r10, [r11]
    bfb8:	e28dd00c 	add	sp, sp, #12
    bfbc:	e8bd4ff0 	pop	{r4, r5, r6, r7, r8, r9, r10, r11, lr}
    bfc0:	e12fff1e 	bx	lr
    bfc4:	e59d2004 	ldr	r2, [sp, #4]
    bfc8:	e3a03022 	mov	r3, #34	; 0x22
    bfcc:	e35b0000 	cmp	r11, #0
    bfd0:	e1a00006 	mov	r0, r6
    bfd4:	e5823000 	str	r3, [r2]
    bfd8:	0afffff6 	beq	bfb8 <_strtoul_r+0x184>
    bfdc:	e244a001 	sub	r10, r4, #1
    bfe0:	eafffff3 	b	bfb4 <_strtoul_r+0x180>
    bfe4:	e4d45001 	ldrb	r5, [r4], #1
    bfe8:	e3a03001 	mov	r3, #1
    bfec:	eaffffa6 	b	be8c <_strtoul_r+0x58>
    bff0:	e3a09010 	mov	r9, #16
    bff4:	e5d45001 	ldrb	r5, [r4, #1]
    bff8:	e3a0100f 	mov	r1, #15
    bffc:	e2844002 	add	r4, r4, #2
    c000:	e3e0820f 	mvn	r8, #-268435456	; 0xf0000000
    c004:	e1a02009 	mov	r2, r9
    c008:	eaffffc0 	b	bf10 <_strtoul_r+0xdc>
    c00c:	00014030 	.word	0x00014030
    c010:	19999999 	.word	0x19999999

0000c014 <strtoul>:
    c014:	e52d4004 	push	{r4}		; (str r4, [sp, #-4]!)
    c018:	e1a03002 	mov	r3, r2
    c01c:	e59f2018 	ldr	r2, [pc, #24]	; c03c <strtoul+0x28>
    c020:	e1a04000 	mov	r4, r0
    c024:	e1a0c001 	mov	r12, r1
    c028:	e5920000 	ldr	r0, [r2]
    c02c:	e1a01004 	mov	r1, r4
    c030:	e1a0200c 	mov	r2, r12
    c034:	e8bd0010 	ldmfd	sp!, {r4}
    c038:	eaffff7d 	b	be34 <_strtoul_r>
    c03c:	00013c00 	.word	0x00013c00

0000c040 <_strtoull_r>:
    c040:	e92d4ff0 	push	{r4, r5, r6, r7, r8, r9, r10, r11, lr}
    c044:	e1a0b001 	mov	r11, r1
    c048:	e59f1290 	ldr	r1, [pc, #656]	; c2e0 <_strtoull_r+0x2a0>
    c04c:	e24dd024 	sub	sp, sp, #36	; 0x24
    c050:	e591a000 	ldr	r10, [r1]
    c054:	e58d001c 	str	r0, [sp, #28]
    c058:	e58d2014 	str	r2, [sp, #20]
    c05c:	e1a09003 	mov	r9, r3
    c060:	e1a0200b 	mov	r2, r11
    c064:	e1a08002 	mov	r8, r2
    c068:	e4d8c001 	ldrb	r12, [r8], #1
    c06c:	e08a300c 	add	r3, r10, r12
    c070:	e5d33001 	ldrb	r3, [r3, #1]
    c074:	e2133008 	ands	r3, r3, #8
    c078:	e1a02008 	mov	r2, r8
    c07c:	1afffff8 	bne	c064 <_strtoull_r+0x24>
    c080:	e35c002d 	cmp	r12, #45	; 0x2d
    c084:	0a000071 	beq	c250 <_strtoull_r+0x210>
    c088:	e35c002b 	cmp	r12, #43	; 0x2b
    c08c:	01a08008 	moveq	r8, r8
    c090:	04d8c001 	ldrbeq	r12, [r8], #1
    c094:	e58d3018 	str	r3, [sp, #24]
    c098:	e3d92010 	bics	r2, r9, #16
    c09c:	1a00000e 	bne	c0dc <_strtoull_r+0x9c>
    c0a0:	e2793001 	rsbs	r3, r9, #1
    c0a4:	33a03000 	movcc	r3, #0
    c0a8:	e35c0030 	cmp	r12, #48	; 0x30
    c0ac:	0a00006b 	beq	c260 <_strtoull_r+0x220>
    c0b0:	e3530000 	cmp	r3, #0
    c0b4:	0a000008 	beq	c0dc <_strtoull_r+0x9c>
    c0b8:	e3a0300a 	mov	r3, #10
    c0bc:	e3a04000 	mov	r4, #0
    c0c0:	e3a02005 	mov	r2, #5
    c0c4:	e28f7f83 	add	r7, pc, #524	; 0x20c
    c0c8:	e89700c0 	ldm	r7, {r6, r7}
    c0cc:	e58d3008 	str	r3, [sp, #8]
    c0d0:	e58d400c 	str	r4, [sp, #12]
    c0d4:	e3a0900a 	mov	r9, #10
    c0d8:	ea000010 	b	c120 <_strtoull_r+0xe0>
    c0dc:	e1a02fc9 	asr	r2, r9, #31
    c0e0:	e58d9008 	str	r9, [sp, #8]
    c0e4:	e58d200c 	str	r2, [sp, #12]
    c0e8:	e28d3008 	add	r3, sp, #8
    c0ec:	e893000c 	ldm	r3, {r2, r3}
    c0f0:	e3e00000 	mvn	r0, #0
    c0f4:	e3e01000 	mvn	r1, #0
    c0f8:	e58dc004 	str	r12, [sp, #4]
    c0fc:	eb001916 	bl	1255c <__aeabi_uldivmod>
    c100:	e28d3008 	add	r3, sp, #8
    c104:	e893000c 	ldm	r3, {r2, r3}
    c108:	e1a06000 	mov	r6, r0
    c10c:	e1a07001 	mov	r7, r1
    c110:	e3e00000 	mvn	r0, #0
    c114:	e3e01000 	mvn	r1, #0
    c118:	eb00190f 	bl	1255c <__aeabi_uldivmod>
    c11c:	e59dc004 	ldr	r12, [sp, #4]
    c120:	e3a03000 	mov	r3, #0
    c124:	e3a04000 	mov	r4, #0
    c128:	e3a05000 	mov	r5, #0
    c12c:	e58db000 	str	r11, [sp]
    c130:	ea000012 	b	c180 <_strtoull_r+0x140>
    c134:	e1550007 	cmp	r5, r7
    c138:	01540006 	cmpeq	r4, r6
    c13c:	13a03000 	movne	r3, #0
    c140:	03a03001 	moveq	r3, #1
    c144:	e15c0002 	cmp	r12, r2
    c148:	d3a03000 	movle	r3, #0
    c14c:	c2033001 	andgt	r3, r3, #1
    c150:	e3530000 	cmp	r3, #0
    c154:	1a00001c 	bne	c1cc <_strtoull_r+0x18c>
    c158:	e59d300c 	ldr	r3, [sp, #12]
    c15c:	e0030394 	mul	r3, r4, r3
    c160:	e59db008 	ldr	r11, [sp, #8]
    c164:	e023359b 	mla	r3, r11, r5, r3
    c168:	e0810b94 	umull	r0, r1, r4, r11
    c16c:	e0831001 	add	r1, r3, r1
    c170:	e090400c 	adds	r4, r0, r12
    c174:	e0a15fcc 	adc	r5, r1, r12, asr #31
    c178:	e3a03001 	mov	r3, #1
    c17c:	e4d8c001 	ldrb	r12, [r8], #1
    c180:	e08a100c 	add	r1, r10, r12
    c184:	e5d11001 	ldrb	r1, [r1, #1]
    c188:	e3110004 	tst	r1, #4
    c18c:	124cc030 	subne	r12, r12, #48	; 0x30
    c190:	1a000005 	bne	c1ac <_strtoull_r+0x16c>
    c194:	e2111003 	ands	r1, r1, #3
    c198:	0a00000d 	beq	c1d4 <_strtoull_r+0x194>
    c19c:	e3510001 	cmp	r1, #1
    c1a0:	13a01057 	movne	r1, #87	; 0x57
    c1a4:	03a01037 	moveq	r1, #55	; 0x37
    c1a8:	e061c00c 	rsb	r12, r1, r12
    c1ac:	e159000c 	cmp	r9, r12
    c1b0:	da000007 	ble	c1d4 <_strtoull_r+0x194>
    c1b4:	e1570005 	cmp	r7, r5
    c1b8:	01560004 	cmpeq	r6, r4
    c1bc:	23a01000 	movcs	r1, #0
    c1c0:	33a01001 	movcc	r1, #1
    c1c4:	e1913fa3 	orrs	r3, r1, r3, lsr #31
    c1c8:	0affffd9 	beq	c134 <_strtoull_r+0xf4>
    c1cc:	e3e03000 	mvn	r3, #0
    c1d0:	eaffffe9 	b	c17c <_strtoull_r+0x13c>
    c1d4:	e3730001 	cmn	r3, #1
    c1d8:	e59db000 	ldr	r11, [sp]
    c1dc:	0a00000e 	beq	c21c <_strtoull_r+0x1dc>
    c1e0:	e59d2018 	ldr	r2, [sp, #24]
    c1e4:	e3520000 	cmp	r2, #0
    c1e8:	1a000015 	bne	c244 <_strtoull_r+0x204>
    c1ec:	e59d2014 	ldr	r2, [sp, #20]
    c1f0:	e3520000 	cmp	r2, #0
    c1f4:	0a000003 	beq	c208 <_strtoull_r+0x1c8>
    c1f8:	e3530000 	cmp	r3, #0
    c1fc:	1a00000e 	bne	c23c <_strtoull_r+0x1fc>
    c200:	e59d3014 	ldr	r3, [sp, #20]
    c204:	e583b000 	str	r11, [r3]
    c208:	e1a00004 	mov	r0, r4
    c20c:	e1a01005 	mov	r1, r5
    c210:	e28dd024 	add	sp, sp, #36	; 0x24
    c214:	e8bd4ff0 	pop	{r4, r5, r6, r7, r8, r9, r10, r11, lr}
    c218:	e12fff1e 	bx	lr
    c21c:	e59d4014 	ldr	r4, [sp, #20]
    c220:	e59db01c 	ldr	r11, [sp, #28]
    c224:	e3540000 	cmp	r4, #0
    c228:	e3a03022 	mov	r3, #34	; 0x22
    c22c:	e58b3000 	str	r3, [r11]
    c230:	e3e04000 	mvn	r4, #0
    c234:	e3e05000 	mvn	r5, #0
    c238:	0afffff2 	beq	c208 <_strtoull_r+0x1c8>
    c23c:	e248b001 	sub	r11, r8, #1
    c240:	eaffffee 	b	c200 <_strtoull_r+0x1c0>
    c244:	e2744000 	rsbs	r4, r4, #0
    c248:	e2e55000 	rsc	r5, r5, #0
    c24c:	eaffffe6 	b	c1ec <_strtoull_r+0x1ac>
    c250:	e3a04001 	mov	r4, #1
    c254:	e4d8c001 	ldrb	r12, [r8], #1
    c258:	e58d4018 	str	r4, [sp, #24]
    c25c:	eaffff8d 	b	c098 <_strtoull_r+0x58>
    c260:	e5d82000 	ldrb	r2, [r8]
    c264:	e20220df 	and	r2, r2, #223	; 0xdf
    c268:	e3520058 	cmp	r2, #88	; 0x58
    c26c:	0a00000a 	beq	c29c <_strtoull_r+0x25c>
    c270:	e3530000 	cmp	r3, #0
    c274:	0a000013 	beq	c2c8 <_strtoull_r+0x288>
    c278:	e3a03008 	mov	r3, #8
    c27c:	e3a04000 	mov	r4, #0
    c280:	e3a02007 	mov	r2, #7
    c284:	e3e06000 	mvn	r6, #0
    c288:	e3e0720e 	mvn	r7, #-536870912	; 0xe0000000
    c28c:	e58d3008 	str	r3, [sp, #8]
    c290:	e58d400c 	str	r4, [sp, #12]
    c294:	e3a09008 	mov	r9, #8
    c298:	eaffffa0 	b	c120 <_strtoull_r+0xe0>
    c29c:	e3a03010 	mov	r3, #16
    c2a0:	e3a04000 	mov	r4, #0
    c2a4:	e5d8c001 	ldrb	r12, [r8, #1]
    c2a8:	e3a0200f 	mov	r2, #15
    c2ac:	e2888002 	add	r8, r8, #2
    c2b0:	e3e06000 	mvn	r6, #0
    c2b4:	e3e0720f 	mvn	r7, #-268435456	; 0xf0000000
    c2b8:	e58d3008 	str	r3, [sp, #8]
    c2bc:	e58d400c 	str	r4, [sp, #12]
    c2c0:	e3a09010 	mov	r9, #16
    c2c4:	eaffff95 	b	c120 <_strtoull_r+0xe0>
    c2c8:	e1a04fc9 	asr	r4, r9, #31
    c2cc:	e58d9008 	str	r9, [sp, #8]
    c2d0:	e58d400c 	str	r4, [sp, #12]
    c2d4:	eaffff83 	b	c0e8 <_strtoull_r+0xa8>
    c2d8:	99999999 	.word	0x99999999
    c2dc:	19999999 	.word	0x19999999
    c2e0:	00014030 	.word	0x00014030
    c2e4:	e1a00000 	nop			; (mov r0, r0)

0000c2e8 <_svfprintf_r>:
    c2e8:	e92d4ff0 	push	{r4, r5, r6, r7, r8, r9, r10, r11, lr}
    c2ec:	e24ddf45 	sub	sp, sp, #276	; 0x114
    c2f0:	e58d1030 	str	r1, [sp, #48]	; 0x30
    c2f4:	e58d3048 	str	r3, [sp, #72]	; 0x48
    c2f8:	e1a04002 	mov	r4, r2
    c2fc:	e58d0040 	str	r0, [sp, #64]	; 0x40
    c300:	ebffed6e 	bl	78c0 <_localeconv_r>
    c304:	e5900000 	ldr	r0, [r0]
    c308:	e58d0058 	str	r0, [sp, #88]	; 0x58
    c30c:	ebffd3d1 	bl	1258 <strlen>
    c310:	e59dc030 	ldr	r12, [sp, #48]	; 0x30
    c314:	e1dc30bc 	ldrh	r3, [r12, #12]
    c318:	e58d005c 	str	r0, [sp, #92]	; 0x5c
    c31c:	e3a01000 	mov	r1, #0
    c320:	e3a00000 	mov	r0, #0
    c324:	e3130080 	tst	r3, #128	; 0x80
    c328:	e58d0060 	str	r0, [sp, #96]	; 0x60
    c32c:	e58d1064 	str	r1, [sp, #100]	; 0x64
    c330:	0a000002 	beq	c340 <_svfprintf_r+0x58>
    c334:	e59c3010 	ldr	r3, [r12, #16]
    c338:	e3530000 	cmp	r3, #0
    c33c:	0a0006bb 	beq	de30 <_svfprintf_r+0x1b48>
    c340:	e3a03000 	mov	r3, #0
    c344:	e28dc0d0 	add	r12, sp, #208	; 0xd0
    c348:	e1a0b004 	mov	r11, r4
    c34c:	e58dc01c 	str	r12, [sp, #28]
    c350:	e58d304c 	str	r3, [sp, #76]	; 0x4c
    c354:	e58dc09c 	str	r12, [sp, #156]	; 0x9c
    c358:	e58d30a4 	str	r3, [sp, #164]	; 0xa4
    c35c:	e58d30a0 	str	r3, [sp, #160]	; 0xa0
    c360:	e58d306c 	str	r3, [sp, #108]	; 0x6c
    c364:	e58d3068 	str	r3, [sp, #104]	; 0x68
    c368:	e58d302c 	str	r3, [sp, #44]	; 0x2c
    c36c:	e58db024 	str	r11, [sp, #36]	; 0x24
    c370:	e1a04003 	mov	r4, r3
    c374:	e1a0a00c 	mov	r10, r12
    c378:	e59dc024 	ldr	r12, [sp, #36]	; 0x24
    c37c:	e5dc3000 	ldrb	r3, [r12]
    c380:	e3530025 	cmp	r3, #37	; 0x25
    c384:	13530000 	cmpne	r3, #0
    c388:	0a0000a5 	beq	c624 <_svfprintf_r+0x33c>
    c38c:	e28c3001 	add	r3, r12, #1
    c390:	e1a06003 	mov	r6, r3
    c394:	e5d33000 	ldrb	r3, [r3]
    c398:	e3530025 	cmp	r3, #37	; 0x25
    c39c:	13530000 	cmpne	r3, #0
    c3a0:	e2863001 	add	r3, r6, #1
    c3a4:	1afffff9 	bne	c390 <_svfprintf_r+0xa8>
    c3a8:	e59d4024 	ldr	r4, [sp, #36]	; 0x24
    c3ac:	e0567004 	subs	r7, r6, r4
    c3b0:	0a00000e 	beq	c3f0 <_svfprintf_r+0x108>
    c3b4:	e28d40a0 	add	r4, sp, #160	; 0xa0
    c3b8:	e8940030 	ldm	r4, {r4, r5}
    c3bc:	e59dc024 	ldr	r12, [sp, #36]	; 0x24
    c3c0:	e2844001 	add	r4, r4, #1
    c3c4:	e0855007 	add	r5, r5, r7
    c3c8:	e3540007 	cmp	r4, #7
    c3cc:	e58ac000 	str	r12, [r10]
    c3d0:	e58a7004 	str	r7, [r10, #4]
    c3d4:	e58d50a4 	str	r5, [sp, #164]	; 0xa4
    c3d8:	e58d40a0 	str	r4, [sp, #160]	; 0xa0
    c3dc:	d28aa008 	addle	r10, r10, #8
    c3e0:	ca000077 	bgt	c5c4 <_svfprintf_r+0x2dc>
    c3e4:	e59d402c 	ldr	r4, [sp, #44]	; 0x2c
    c3e8:	e0844007 	add	r4, r4, r7
    c3ec:	e58d402c 	str	r4, [sp, #44]	; 0x2c
    c3f0:	e5d63000 	ldrb	r3, [r6]
    c3f4:	e3530000 	cmp	r3, #0
    c3f8:	0a000079 	beq	c5e4 <_svfprintf_r+0x2fc>
    c3fc:	e286c001 	add	r12, r6, #1
    c400:	e3a03000 	mov	r3, #0
    c404:	e58dc024 	str	r12, [sp, #36]	; 0x24
    c408:	e58d3034 	str	r3, [sp, #52]	; 0x34
    c40c:	e5cd307b 	strb	r3, [sp, #123]	; 0x7b
    c410:	e5d67001 	ldrb	r7, [r6, #1]
    c414:	e58d3020 	str	r3, [sp, #32]
    c418:	e3e06000 	mvn	r6, #0
    c41c:	e3a01020 	mov	r1, #32
    c420:	e3a0202b 	mov	r2, #43	; 0x2b
    c424:	e1a0300c 	mov	r3, r12
    c428:	e2833001 	add	r3, r3, #1
    c42c:	e2470020 	sub	r0, r7, #32
    c430:	e3500058 	cmp	r0, #88	; 0x58
    c434:	979ff100 	ldrls	pc, [pc, r0, lsl #2]
    c438:	ea00022d 	b	ccf4 <_svfprintf_r+0xa0c>
    c43c:	0000cd20 	.word	0x0000cd20
    c440:	0000ccf4 	.word	0x0000ccf4
    c444:	0000ccf4 	.word	0x0000ccf4
    c448:	0000cd38 	.word	0x0000cd38
    c44c:	0000ccf4 	.word	0x0000ccf4
    c450:	0000ccf4 	.word	0x0000ccf4
    c454:	0000ccf4 	.word	0x0000ccf4
    c458:	0000ccf4 	.word	0x0000ccf4
    c45c:	0000ccf4 	.word	0x0000ccf4
    c460:	0000ccf4 	.word	0x0000ccf4
    c464:	0000cd4c 	.word	0x0000cd4c
    c468:	0000c62c 	.word	0x0000c62c
    c46c:	0000ccf4 	.word	0x0000ccf4
    c470:	0000c5b0 	.word	0x0000c5b0
    c474:	0000c638 	.word	0x0000c638
    c478:	0000ccf4 	.word	0x0000ccf4
    c47c:	0000c684 	.word	0x0000c684
    c480:	0000c698 	.word	0x0000c698
    c484:	0000c698 	.word	0x0000c698
    c488:	0000c698 	.word	0x0000c698
    c48c:	0000c698 	.word	0x0000c698
    c490:	0000c698 	.word	0x0000c698
    c494:	0000c698 	.word	0x0000c698
    c498:	0000c698 	.word	0x0000c698
    c49c:	0000c698 	.word	0x0000c698
    c4a0:	0000c698 	.word	0x0000c698
    c4a4:	0000ccf4 	.word	0x0000ccf4
    c4a8:	0000ccf4 	.word	0x0000ccf4
    c4ac:	0000ccf4 	.word	0x0000ccf4
    c4b0:	0000ccf4 	.word	0x0000ccf4
    c4b4:	0000ccf4 	.word	0x0000ccf4
    c4b8:	0000ccf4 	.word	0x0000ccf4
    c4bc:	0000ccf4 	.word	0x0000ccf4
    c4c0:	0000ccf4 	.word	0x0000ccf4
    c4c4:	0000ccf4 	.word	0x0000ccf4
    c4c8:	0000ccf4 	.word	0x0000ccf4
    c4cc:	0000c6c8 	.word	0x0000c6c8
    c4d0:	0000c90c 	.word	0x0000c90c
    c4d4:	0000ccf4 	.word	0x0000ccf4
    c4d8:	0000c90c 	.word	0x0000c90c
    c4dc:	0000ccf4 	.word	0x0000ccf4
    c4e0:	0000ccf4 	.word	0x0000ccf4
    c4e4:	0000ccf4 	.word	0x0000ccf4
    c4e8:	0000ccf4 	.word	0x0000ccf4
    c4ec:	0000c9c4 	.word	0x0000c9c4
    c4f0:	0000ccf4 	.word	0x0000ccf4
    c4f4:	0000ccf4 	.word	0x0000ccf4
    c4f8:	0000cd74 	.word	0x0000cd74
    c4fc:	0000ccf4 	.word	0x0000ccf4
    c500:	0000ccf4 	.word	0x0000ccf4
    c504:	0000ccf4 	.word	0x0000ccf4
    c508:	0000ccf4 	.word	0x0000ccf4
    c50c:	0000ccf4 	.word	0x0000ccf4
    c510:	0000cdc0 	.word	0x0000cdc0
    c514:	0000ccf4 	.word	0x0000ccf4
    c518:	0000ccf4 	.word	0x0000ccf4
    c51c:	0000c9d8 	.word	0x0000c9d8
    c520:	0000ccf4 	.word	0x0000ccf4
    c524:	0000ccf4 	.word	0x0000ccf4
    c528:	0000ccf4 	.word	0x0000ccf4
    c52c:	0000ccf4 	.word	0x0000ccf4
    c530:	0000ccf4 	.word	0x0000ccf4
    c534:	0000ccf4 	.word	0x0000ccf4
    c538:	0000ccf4 	.word	0x0000ccf4
    c53c:	0000ccf4 	.word	0x0000ccf4
    c540:	0000ccf4 	.word	0x0000ccf4
    c544:	0000ccf4 	.word	0x0000ccf4
    c548:	0000ca30 	.word	0x0000ca30
    c54c:	0000ca74 	.word	0x0000ca74
    c550:	0000c90c 	.word	0x0000c90c
    c554:	0000c90c 	.word	0x0000c90c
    c558:	0000c90c 	.word	0x0000c90c
    c55c:	0000cae0 	.word	0x0000cae0
    c560:	0000ca74 	.word	0x0000ca74
    c564:	0000ccf4 	.word	0x0000ccf4
    c568:	0000ccf4 	.word	0x0000ccf4
    c56c:	0000caf4 	.word	0x0000caf4
    c570:	0000ccf4 	.word	0x0000ccf4
    c574:	0000cb24 	.word	0x0000cb24
    c578:	0000cb58 	.word	0x0000cb58
    c57c:	0000cb94 	.word	0x0000cb94
    c580:	0000cbe4 	.word	0x0000cbe4
    c584:	0000ccf4 	.word	0x0000ccf4
    c588:	0000cbf8 	.word	0x0000cbf8
    c58c:	0000ccf4 	.word	0x0000ccf4
    c590:	0000cc6c 	.word	0x0000cc6c
    c594:	0000ccf4 	.word	0x0000ccf4
    c598:	0000ccf4 	.word	0x0000ccf4
    c59c:	0000cca8 	.word	0x0000cca8
    c5a0:	e59dc034 	ldr	r12, [sp, #52]	; 0x34
    c5a4:	e26cc000 	rsb	r12, r12, #0
    c5a8:	e58dc034 	str	r12, [sp, #52]	; 0x34
    c5ac:	e58d0048 	str	r0, [sp, #72]	; 0x48
    c5b0:	e59d4020 	ldr	r4, [sp, #32]
    c5b4:	e3844004 	orr	r4, r4, #4
    c5b8:	e58d4020 	str	r4, [sp, #32]
    c5bc:	e5d37000 	ldrb	r7, [r3]
    c5c0:	eaffff98 	b	c428 <_svfprintf_r+0x140>
    c5c4:	e59d0040 	ldr	r0, [sp, #64]	; 0x40
    c5c8:	e59d1030 	ldr	r1, [sp, #48]	; 0x30
    c5cc:	e28d209c 	add	r2, sp, #156	; 0x9c
    c5d0:	eb001169 	bl	10b7c <__ssprint_r>
    c5d4:	e3500000 	cmp	r0, #0
    c5d8:	1a000007 	bne	c5fc <_svfprintf_r+0x314>
    c5dc:	e28da0d0 	add	r10, sp, #208	; 0xd0
    c5e0:	eaffff7f 	b	c3e4 <_svfprintf_r+0xfc>
    c5e4:	e59d30a4 	ldr	r3, [sp, #164]	; 0xa4
    c5e8:	e3530000 	cmp	r3, #0
    c5ec:	159d0040 	ldrne	r0, [sp, #64]	; 0x40
    c5f0:	159d1030 	ldrne	r1, [sp, #48]	; 0x30
    c5f4:	128d209c 	addne	r2, sp, #156	; 0x9c
    c5f8:	1b00115f 	blne	10b7c <__ssprint_r>
    c5fc:	e59d4030 	ldr	r4, [sp, #48]	; 0x30
    c600:	e1d430bc 	ldrh	r3, [r4, #12]
    c604:	e59dc02c 	ldr	r12, [sp, #44]	; 0x2c
    c608:	e3130040 	tst	r3, #64	; 0x40
    c60c:	13e0c000 	mvnne	r12, #0
    c610:	e58dc02c 	str	r12, [sp, #44]	; 0x2c
    c614:	e59d002c 	ldr	r0, [sp, #44]	; 0x2c
    c618:	e28ddf45 	add	sp, sp, #276	; 0x114
    c61c:	e8bd4ff0 	pop	{r4, r5, r6, r7, r8, r9, r10, r11, lr}
    c620:	e12fff1e 	bx	lr
    c624:	e59d6024 	ldr	r6, [sp, #36]	; 0x24
    c628:	eaffff70 	b	c3f0 <_svfprintf_r+0x108>
    c62c:	e5cd207b 	strb	r2, [sp, #123]	; 0x7b
    c630:	e5d37000 	ldrb	r7, [r3]
    c634:	eaffff7b 	b	c428 <_svfprintf_r+0x140>
    c638:	e1a0c003 	mov	r12, r3
    c63c:	e4dc7001 	ldrb	r7, [r12], #1
    c640:	e357002a 	cmp	r7, #42	; 0x2a
    c644:	0a0006de 	beq	e1c4 <_svfprintf_r+0x1edc>
    c648:	e2470030 	sub	r0, r7, #48	; 0x30
    c64c:	e3500009 	cmp	r0, #9
    c650:	81a0300c 	movhi	r3, r12
    c654:	83a06000 	movhi	r6, #0
    c658:	8affff73 	bhi	c42c <_svfprintf_r+0x144>
    c65c:	e3a06000 	mov	r6, #0
    c660:	e4dc7001 	ldrb	r7, [r12], #1
    c664:	e0866106 	add	r6, r6, r6, lsl #2
    c668:	e0806086 	add	r6, r0, r6, lsl #1
    c66c:	e2470030 	sub	r0, r7, #48	; 0x30
    c670:	e3500009 	cmp	r0, #9
    c674:	e1a0300c 	mov	r3, r12
    c678:	9afffff8 	bls	c660 <_svfprintf_r+0x378>
    c67c:	e1866fc6 	orr	r6, r6, r6, asr #31
    c680:	eaffff69 	b	c42c <_svfprintf_r+0x144>
    c684:	e59dc020 	ldr	r12, [sp, #32]
    c688:	e38cc080 	orr	r12, r12, #128	; 0x80
    c68c:	e58dc020 	str	r12, [sp, #32]
    c690:	e5d37000 	ldrb	r7, [r3]
    c694:	eaffff63 	b	c428 <_svfprintf_r+0x140>
    c698:	e1a0c003 	mov	r12, r3
    c69c:	e3a00000 	mov	r0, #0
    c6a0:	e2473030 	sub	r3, r7, #48	; 0x30
    c6a4:	e4dc7001 	ldrb	r7, [r12], #1
    c6a8:	e2474030 	sub	r4, r7, #48	; 0x30
    c6ac:	e0800100 	add	r0, r0, r0, lsl #2
    c6b0:	e3540009 	cmp	r4, #9
    c6b4:	e0830080 	add	r0, r3, r0, lsl #1
    c6b8:	e1a0300c 	mov	r3, r12
    c6bc:	9afffff7 	bls	c6a0 <_svfprintf_r+0x3b8>
    c6c0:	e58d0034 	str	r0, [sp, #52]	; 0x34
    c6c4:	eaffff58 	b	c42c <_svfprintf_r+0x144>
    c6c8:	e59dc020 	ldr	r12, [sp, #32]
    c6cc:	e38cc010 	orr	r12, r12, #16
    c6d0:	e58dc020 	str	r12, [sp, #32]
    c6d4:	e59d4020 	ldr	r4, [sp, #32]
    c6d8:	e3140020 	tst	r4, #32
    c6dc:	e58d3024 	str	r3, [sp, #36]	; 0x24
    c6e0:	0a0000e7 	beq	ca84 <_svfprintf_r+0x79c>
    c6e4:	e59dc048 	ldr	r12, [sp, #72]	; 0x48
    c6e8:	e28c1007 	add	r1, r12, #7
    c6ec:	e3c11007 	bic	r1, r1, #7
    c6f0:	e891000c 	ldm	r1, {r2, r3}
    c6f4:	e2811008 	add	r1, r1, #8
    c6f8:	e58d1048 	str	r1, [sp, #72]	; 0x48
    c6fc:	e1a04002 	mov	r4, r2
    c700:	e1a05003 	mov	r5, r3
    c704:	e3520000 	cmp	r2, #0
    c708:	e2d30000 	sbcs	r0, r3, #0
    c70c:	ba0000ea 	blt	cabc <_svfprintf_r+0x7d4>
    c710:	e1941005 	orrs	r1, r4, r5
    c714:	03a02000 	moveq	r2, #0
    c718:	13a02001 	movne	r2, #1
    c71c:	e3a03001 	mov	r3, #1
    c720:	e3560000 	cmp	r6, #0
    c724:	a59dc020 	ldrge	r12, [sp, #32]
    c728:	a3ccc080 	bicge	r12, r12, #128	; 0x80
    c72c:	a58dc020 	strge	r12, [sp, #32]
    c730:	e3560000 	cmp	r6, #0
    c734:	13822001 	orrne	r2, r2, #1
    c738:	e3520000 	cmp	r2, #0
    c73c:	0a0002ac 	beq	d1f4 <_svfprintf_r+0xf0c>
    c740:	e3530001 	cmp	r3, #1
    c744:	0a00039d 	beq	d5c0 <_svfprintf_r+0x12d8>
    c748:	e3530002 	cmp	r3, #2
    c74c:	e28dc0cf 	add	r12, sp, #207	; 0xcf
    c750:	0a000339 	beq	d43c <_svfprintf_r+0x1154>
    c754:	e3a00007 	mov	r0, #7
    c758:	e1a081a4 	lsr	r8, r4, #3
    c75c:	e1888e85 	orr	r8, r8, r5, lsl #29
    c760:	e0042000 	and	r2, r4, r0
    c764:	e1a031a5 	lsr	r3, r5, #3
    c768:	e1a04008 	mov	r4, r8
    c76c:	e2822030 	add	r2, r2, #48	; 0x30
    c770:	e1a05003 	mov	r5, r3
    c774:	e20220ff 	and	r2, r2, #255	; 0xff
    c778:	e1943005 	orrs	r3, r4, r5
    c77c:	e1a0800c 	mov	r8, r12
    c780:	e5cc2000 	strb	r2, [r12]
    c784:	e24cc001 	sub	r12, r12, #1
    c788:	1afffff2 	bne	c758 <_svfprintf_r+0x470>
    c78c:	e59d4020 	ldr	r4, [sp, #32]
    c790:	e3140001 	tst	r4, #1
    c794:	e1a03008 	mov	r3, r8
    c798:	0a00038e 	beq	d5d8 <_svfprintf_r+0x12f0>
    c79c:	e3520030 	cmp	r2, #48	; 0x30
    c7a0:	0a000334 	beq	d478 <_svfprintf_r+0x1190>
    c7a4:	e59d401c 	ldr	r4, [sp, #28]
    c7a8:	e3a02030 	mov	r2, #48	; 0x30
    c7ac:	e06c4004 	rsb	r4, r12, r4
    c7b0:	e5432001 	strb	r2, [r3, #-1]
    c7b4:	e58d4038 	str	r4, [sp, #56]	; 0x38
    c7b8:	e1a0800c 	mov	r8, r12
    c7bc:	e59d4038 	ldr	r4, [sp, #56]	; 0x38
    c7c0:	e3a0c000 	mov	r12, #0
    c7c4:	e1540006 	cmp	r4, r6
    c7c8:	b1a04006 	movlt	r4, r6
    c7cc:	e58d4028 	str	r4, [sp, #40]	; 0x28
    c7d0:	e5dd307b 	ldrb	r3, [sp, #123]	; 0x7b
    c7d4:	e58d6044 	str	r6, [sp, #68]	; 0x44
    c7d8:	e58dc054 	str	r12, [sp, #84]	; 0x54
    c7dc:	e3530000 	cmp	r3, #0
    c7e0:	0a000002 	beq	c7f0 <_svfprintf_r+0x508>
    c7e4:	e59d4028 	ldr	r4, [sp, #40]	; 0x28
    c7e8:	e2844001 	add	r4, r4, #1
    c7ec:	e58d4028 	str	r4, [sp, #40]	; 0x28
    c7f0:	e59dc020 	ldr	r12, [sp, #32]
    c7f4:	e21cc002 	ands	r12, r12, #2
    c7f8:	159d4028 	ldrne	r4, [sp, #40]	; 0x28
    c7fc:	e58dc03c 	str	r12, [sp, #60]	; 0x3c
    c800:	e59dc020 	ldr	r12, [sp, #32]
    c804:	12844002 	addne	r4, r4, #2
    c808:	158d4028 	strne	r4, [sp, #40]	; 0x28
    c80c:	e21cc084 	ands	r12, r12, #132	; 0x84
    c810:	e58dc050 	str	r12, [sp, #80]	; 0x50
    c814:	1a00017d 	bne	ce10 <_svfprintf_r+0xb28>
    c818:	e59d4034 	ldr	r4, [sp, #52]	; 0x34
    c81c:	e59dc028 	ldr	r12, [sp, #40]	; 0x28
    c820:	e06c6004 	rsb	r6, r12, r4
    c824:	e3560000 	cmp	r6, #0
    c828:	da000178 	ble	ce10 <_svfprintf_r+0xb28>
    c82c:	e28d40a0 	add	r4, sp, #160	; 0xa0
    c830:	e3560010 	cmp	r6, #16
    c834:	e8940030 	ldm	r4, {r4, r5}
    c838:	e59f9fc8 	ldr	r9, [pc, #4040]	; d808 <_svfprintf_r+0x1520>
    c83c:	da000020 	ble	c8c4 <_svfprintf_r+0x5dc>
    c840:	e58d7070 	str	r7, [sp, #112]	; 0x70
    c844:	e58d8074 	str	r8, [sp, #116]	; 0x74
    c848:	e3a0b010 	mov	r11, #16
    c84c:	e1a08006 	mov	r8, r6
    c850:	e59d7030 	ldr	r7, [sp, #48]	; 0x30
    c854:	e59d6040 	ldr	r6, [sp, #64]	; 0x40
    c858:	ea000002 	b	c868 <_svfprintf_r+0x580>
    c85c:	e2488010 	sub	r8, r8, #16
    c860:	e3580010 	cmp	r8, #16
    c864:	da000013 	ble	c8b8 <_svfprintf_r+0x5d0>
    c868:	e2844001 	add	r4, r4, #1
    c86c:	e3540007 	cmp	r4, #7
    c870:	e2855010 	add	r5, r5, #16
    c874:	e88a0a00 	stm	r10, {r9, r11}
    c878:	e58d50a4 	str	r5, [sp, #164]	; 0xa4
    c87c:	e58d40a0 	str	r4, [sp, #160]	; 0xa0
    c880:	d28aa008 	addle	r10, r10, #8
    c884:	dafffff4 	ble	c85c <_svfprintf_r+0x574>
    c888:	e1a00006 	mov	r0, r6
    c88c:	e1a01007 	mov	r1, r7
    c890:	e28d209c 	add	r2, sp, #156	; 0x9c
    c894:	eb0010b8 	bl	10b7c <__ssprint_r>
    c898:	e3500000 	cmp	r0, #0
    c89c:	1affff56 	bne	c5fc <_svfprintf_r+0x314>
    c8a0:	e2488010 	sub	r8, r8, #16
    c8a4:	e28d40a0 	add	r4, sp, #160	; 0xa0
    c8a8:	e3580010 	cmp	r8, #16
    c8ac:	e8940030 	ldm	r4, {r4, r5}
    c8b0:	e28da0d0 	add	r10, sp, #208	; 0xd0
    c8b4:	caffffeb 	bgt	c868 <_svfprintf_r+0x580>
    c8b8:	e1a06008 	mov	r6, r8
    c8bc:	e28d7070 	add	r7, sp, #112	; 0x70
    c8c0:	e8970180 	ldm	r7, {r7, r8}
    c8c4:	e2844001 	add	r4, r4, #1
    c8c8:	e0855006 	add	r5, r5, r6
    c8cc:	e3540007 	cmp	r4, #7
    c8d0:	e58a9000 	str	r9, [r10]
    c8d4:	e58a6004 	str	r6, [r10, #4]
    c8d8:	e58d50a4 	str	r5, [sp, #164]	; 0xa4
    c8dc:	e58d40a0 	str	r4, [sp, #160]	; 0xa0
    c8e0:	d28aa008 	addle	r10, r10, #8
    c8e4:	da00014a 	ble	ce14 <_svfprintf_r+0xb2c>
    c8e8:	e59d0040 	ldr	r0, [sp, #64]	; 0x40
    c8ec:	e59d1030 	ldr	r1, [sp, #48]	; 0x30
    c8f0:	e28d209c 	add	r2, sp, #156	; 0x9c
    c8f4:	eb0010a0 	bl	10b7c <__ssprint_r>
    c8f8:	e3500000 	cmp	r0, #0
    c8fc:	1affff3e 	bne	c5fc <_svfprintf_r+0x314>
    c900:	e59d50a4 	ldr	r5, [sp, #164]	; 0xa4
    c904:	e28da0d0 	add	r10, sp, #208	; 0xd0
    c908:	ea000141 	b	ce14 <_svfprintf_r+0xb2c>
    c90c:	e59d4020 	ldr	r4, [sp, #32]
    c910:	e3140008 	tst	r4, #8
    c914:	159dc048 	ldrne	r12, [sp, #72]	; 0x48
    c918:	059d4048 	ldreq	r4, [sp, #72]	; 0x48
    c91c:	e58d3024 	str	r3, [sp, #36]	; 0x24
    c920:	128c1007 	addne	r1, r12, #7
    c924:	02841007 	addeq	r1, r4, #7
    c928:	e3c11007 	bic	r1, r1, #7
    c92c:	e5919000 	ldr	r9, [r1]
    c930:	e5915004 	ldr	r5, [r1, #4]
    c934:	e2811008 	add	r1, r1, #8
    c938:	e58d1048 	str	r1, [sp, #72]	; 0x48
    c93c:	e1a00009 	mov	r0, r9
    c940:	e1a01005 	mov	r1, r5
    c944:	e58d0060 	str	r0, [sp, #96]	; 0x60
    c948:	e58d1064 	str	r1, [sp, #100]	; 0x64
    c94c:	e1a01005 	mov	r1, r5
    c950:	e1a00009 	mov	r0, r9
    c954:	ebfff4f9 	bl	9d40 <__fpclassifyd>
    c958:	e3500001 	cmp	r0, #1
    c95c:	e1a01005 	mov	r1, r5
    c960:	e1a00009 	mov	r0, r9
    c964:	1a000414 	bne	d9bc <_svfprintf_r+0x16d4>
    c968:	e3a03000 	mov	r3, #0
    c96c:	e3a02000 	mov	r2, #0
    c970:	eb001648 	bl	12298 <__aeabi_dcmplt>
    c974:	e3a04003 	mov	r4, #3
    c978:	e58d4028 	str	r4, [sp, #40]	; 0x28
    c97c:	e59d4020 	ldr	r4, [sp, #32]
    c980:	e3500000 	cmp	r0, #0
    c984:	13a0302d 	movne	r3, #45	; 0x2d
    c988:	e3a0c000 	mov	r12, #0
    c98c:	e3c44080 	bic	r4, r4, #128	; 0x80
    c990:	e59f0e74 	ldr	r0, [pc, #3700]	; d80c <_svfprintf_r+0x1524>
    c994:	05dd307b 	ldrbeq	r3, [sp, #123]	; 0x7b
    c998:	15cd307b 	strbne	r3, [sp, #123]	; 0x7b
    c99c:	e58dc044 	str	r12, [sp, #68]	; 0x44
    c9a0:	e3570047 	cmp	r7, #71	; 0x47
    c9a4:	e58d4020 	str	r4, [sp, #32]
    c9a8:	e3a0c003 	mov	r12, #3
    c9ac:	e3a04000 	mov	r4, #0
    c9b0:	e59f8e58 	ldr	r8, [pc, #3672]	; d810 <_svfprintf_r+0x1528>
    c9b4:	e58dc038 	str	r12, [sp, #56]	; 0x38
    c9b8:	d1a08000 	movle	r8, r0
    c9bc:	e58d4054 	str	r4, [sp, #84]	; 0x54
    c9c0:	eaffff85 	b	c7dc <_svfprintf_r+0x4f4>
    c9c4:	e59d4020 	ldr	r4, [sp, #32]
    c9c8:	e3844008 	orr	r4, r4, #8
    c9cc:	e58d4020 	str	r4, [sp, #32]
    c9d0:	e5d37000 	ldrb	r7, [r3]
    c9d4:	eafffe93 	b	c428 <_svfprintf_r+0x140>
    c9d8:	e59d4020 	ldr	r4, [sp, #32]
    c9dc:	e59fce30 	ldr	r12, [pc, #3632]	; d814 <_svfprintf_r+0x152c>
    c9e0:	e3140020 	tst	r4, #32
    c9e4:	e58d3024 	str	r3, [sp, #36]	; 0x24
    c9e8:	e58dc06c 	str	r12, [sp, #108]	; 0x6c
    c9ec:	0a0000b3 	beq	ccc0 <_svfprintf_r+0x9d8>
    c9f0:	e59dc048 	ldr	r12, [sp, #72]	; 0x48
    c9f4:	e28c3007 	add	r3, r12, #7
    c9f8:	e3c33007 	bic	r3, r3, #7
    c9fc:	e2834008 	add	r4, r3, #8
    ca00:	e58d4048 	str	r4, [sp, #72]	; 0x48
    ca04:	e8930030 	ldm	r3, {r4, r5}
    ca08:	e59dc020 	ldr	r12, [sp, #32]
    ca0c:	e31c0001 	tst	r12, #1
    ca10:	1a000326 	bne	d6b0 <_svfprintf_r+0x13c8>
    ca14:	e1940005 	orrs	r0, r4, r5
    ca18:	03a02000 	moveq	r2, #0
    ca1c:	13a02001 	movne	r2, #1
    ca20:	e3a03002 	mov	r3, #2
    ca24:	e3a01000 	mov	r1, #0
    ca28:	e5cd107b 	strb	r1, [sp, #123]	; 0x7b
    ca2c:	eaffff3b 	b	c720 <_svfprintf_r+0x438>
    ca30:	e58d3024 	str	r3, [sp, #36]	; 0x24
    ca34:	e59d3048 	ldr	r3, [sp, #72]	; 0x48
    ca38:	e59d4048 	ldr	r4, [sp, #72]	; 0x48
    ca3c:	e5933000 	ldr	r3, [r3]
    ca40:	e3a0c001 	mov	r12, #1
    ca44:	e2844004 	add	r4, r4, #4
    ca48:	e5cd30a8 	strb	r3, [sp, #168]	; 0xa8
    ca4c:	e3a03000 	mov	r3, #0
    ca50:	e58dc028 	str	r12, [sp, #40]	; 0x28
    ca54:	e58d4048 	str	r4, [sp, #72]	; 0x48
    ca58:	e5cd307b 	strb	r3, [sp, #123]	; 0x7b
    ca5c:	e58dc038 	str	r12, [sp, #56]	; 0x38
    ca60:	e28d80a8 	add	r8, sp, #168	; 0xa8
    ca64:	e3a03000 	mov	r3, #0
    ca68:	e58d3044 	str	r3, [sp, #68]	; 0x44
    ca6c:	e58d3054 	str	r3, [sp, #84]	; 0x54
    ca70:	eaffff5e 	b	c7f0 <_svfprintf_r+0x508>
    ca74:	e59d4020 	ldr	r4, [sp, #32]
    ca78:	e3140020 	tst	r4, #32
    ca7c:	e58d3024 	str	r3, [sp, #36]	; 0x24
    ca80:	1affff17 	bne	c6e4 <_svfprintf_r+0x3fc>
    ca84:	e59d4020 	ldr	r4, [sp, #32]
    ca88:	e3140010 	tst	r4, #16
    ca8c:	0a0003fb 	beq	da80 <_svfprintf_r+0x1798>
    ca90:	e59dc048 	ldr	r12, [sp, #72]	; 0x48
    ca94:	e59c3000 	ldr	r3, [r12]
    ca98:	e1a05fc3 	asr	r5, r3, #31
    ca9c:	e1a02003 	mov	r2, r3
    caa0:	e1a04003 	mov	r4, r3
    caa4:	e1a03005 	mov	r3, r5
    caa8:	e28cc004 	add	r12, r12, #4
    caac:	e3520000 	cmp	r2, #0
    cab0:	e2d30000 	sbcs	r0, r3, #0
    cab4:	e58dc048 	str	r12, [sp, #72]	; 0x48
    cab8:	aaffff14 	bge	c710 <_svfprintf_r+0x428>
    cabc:	e2744000 	rsbs	r4, r4, #0
    cac0:	e2e55000 	rsc	r5, r5, #0
    cac4:	e3a0302d 	mov	r3, #45	; 0x2d
    cac8:	e1942005 	orrs	r2, r4, r5
    cacc:	e5cd307b 	strb	r3, [sp, #123]	; 0x7b
    cad0:	03a02000 	moveq	r2, #0
    cad4:	13a02001 	movne	r2, #1
    cad8:	e3a03001 	mov	r3, #1
    cadc:	eaffff0f 	b	c720 <_svfprintf_r+0x438>
    cae0:	e59dc020 	ldr	r12, [sp, #32]
    cae4:	e38cc040 	orr	r12, r12, #64	; 0x40
    cae8:	e58dc020 	str	r12, [sp, #32]
    caec:	e5d37000 	ldrb	r7, [r3]
    caf0:	eafffe4c 	b	c428 <_svfprintf_r+0x140>
    caf4:	e5d37000 	ldrb	r7, [r3]
    caf8:	e357006c 	cmp	r7, #108	; 0x6c
    cafc:	059d4020 	ldreq	r4, [sp, #32]
    cb00:	159dc020 	ldrne	r12, [sp, #32]
    cb04:	e1a00003 	mov	r0, r3
    cb08:	03844020 	orreq	r4, r4, #32
    cb0c:	138cc010 	orrne	r12, r12, #16
    cb10:	02833001 	addeq	r3, r3, #1
    cb14:	058d4020 	streq	r4, [sp, #32]
    cb18:	05d07001 	ldrbeq	r7, [r0, #1]
    cb1c:	158dc020 	strne	r12, [sp, #32]
    cb20:	eafffe40 	b	c428 <_svfprintf_r+0x140>
    cb24:	e59d4020 	ldr	r4, [sp, #32]
    cb28:	e3140020 	tst	r4, #32
    cb2c:	e58d3024 	str	r3, [sp, #36]	; 0x24
    cb30:	0a0003b5 	beq	da0c <_svfprintf_r+0x1724>
    cb34:	e59dc048 	ldr	r12, [sp, #72]	; 0x48
    cb38:	e59d202c 	ldr	r2, [sp, #44]	; 0x2c
    cb3c:	e59c3000 	ldr	r3, [r12]
    cb40:	e1a01fc2 	asr	r1, r2, #31
    cb44:	e28cc004 	add	r12, r12, #4
    cb48:	e5832000 	str	r2, [r3]
    cb4c:	e5831004 	str	r1, [r3, #4]
    cb50:	e58dc048 	str	r12, [sp, #72]	; 0x48
    cb54:	eafffe07 	b	c378 <_svfprintf_r+0x90>
    cb58:	e59dc020 	ldr	r12, [sp, #32]
    cb5c:	e58d3024 	str	r3, [sp, #36]	; 0x24
    cb60:	e21c3020 	ands	r3, r12, #32
    cb64:	0a000089 	beq	cd90 <_svfprintf_r+0xaa8>
    cb68:	e59d4048 	ldr	r4, [sp, #72]	; 0x48
    cb6c:	e2843007 	add	r3, r4, #7
    cb70:	e3c33007 	bic	r3, r3, #7
    cb74:	e8930030 	ldm	r3, {r4, r5}
    cb78:	e2833008 	add	r3, r3, #8
    cb7c:	e194c005 	orrs	r12, r4, r5
    cb80:	e58d3048 	str	r3, [sp, #72]	; 0x48
    cb84:	03a02000 	moveq	r2, #0
    cb88:	13a02001 	movne	r2, #1
    cb8c:	e3a03000 	mov	r3, #0
    cb90:	eaffffa3 	b	ca24 <_svfprintf_r+0x73c>
    cb94:	e58d3024 	str	r3, [sp, #36]	; 0x24
    cb98:	e59d3048 	ldr	r3, [sp, #72]	; 0x48
    cb9c:	e283c004 	add	r12, r3, #4
    cba0:	e58dc048 	str	r12, [sp, #72]	; 0x48
    cba4:	e59dc020 	ldr	r12, [sp, #32]
    cba8:	e5932000 	ldr	r2, [r3]
    cbac:	e38cc002 	orr	r12, r12, #2
    cbb0:	e58dc020 	str	r12, [sp, #32]
    cbb4:	e3a05000 	mov	r5, #0
    cbb8:	e59fcc58 	ldr	r12, [pc, #3160]	; d818 <_svfprintf_r+0x1530>
    cbbc:	e3a03030 	mov	r3, #48	; 0x30
    cbc0:	e3a07078 	mov	r7, #120	; 0x78
    cbc4:	e1a04002 	mov	r4, r2
    cbc8:	e0522005 	subs	r2, r2, r5
    cbcc:	e5cd307c 	strb	r3, [sp, #124]	; 0x7c
    cbd0:	e5cd707d 	strb	r7, [sp, #125]	; 0x7d
    cbd4:	13a02001 	movne	r2, #1
    cbd8:	e58dc06c 	str	r12, [sp, #108]	; 0x6c
    cbdc:	e3a03002 	mov	r3, #2
    cbe0:	eaffff8f 	b	ca24 <_svfprintf_r+0x73c>
    cbe4:	e59d4020 	ldr	r4, [sp, #32]
    cbe8:	e3844020 	orr	r4, r4, #32
    cbec:	e58d4020 	str	r4, [sp, #32]
    cbf0:	e5d37000 	ldrb	r7, [r3]
    cbf4:	eafffe0b 	b	c428 <_svfprintf_r+0x140>
    cbf8:	e3a04000 	mov	r4, #0
    cbfc:	e59dc048 	ldr	r12, [sp, #72]	; 0x48
    cc00:	e5cd407b 	strb	r4, [sp, #123]	; 0x7b
    cc04:	e59c8000 	ldr	r8, [r12]
    cc08:	e1580004 	cmp	r8, r4
    cc0c:	e58d3024 	str	r3, [sp, #36]	; 0x24
    cc10:	e28c5004 	add	r5, r12, #4
    cc14:	0a0004e8 	beq	dfbc <_svfprintf_r+0x1cd4>
    cc18:	e3560000 	cmp	r6, #0
    cc1c:	e1a00008 	mov	r0, r8
    cc20:	ba0004cb 	blt	df54 <_svfprintf_r+0x1c6c>
    cc24:	e1a01004 	mov	r1, r4
    cc28:	e1a02006 	mov	r2, r6
    cc2c:	ebffedc5 	bl	8348 <memchr>
    cc30:	e3500000 	cmp	r0, #0
    cc34:	0a000515 	beq	e090 <_svfprintf_r+0x1da8>
    cc38:	e0680000 	rsb	r0, r8, r0
    cc3c:	e1500006 	cmp	r0, r6
    cc40:	e58d0038 	str	r0, [sp, #56]	; 0x38
    cc44:	e58d4044 	str	r4, [sp, #68]	; 0x44
    cc48:	da0003dd 	ble	dbc4 <_svfprintf_r+0x18dc>
    cc4c:	e59dc044 	ldr	r12, [sp, #68]	; 0x44
    cc50:	e1c64fc6 	bic	r4, r6, r6, asr #31
    cc54:	e58d4028 	str	r4, [sp, #40]	; 0x28
    cc58:	e5dd307b 	ldrb	r3, [sp, #123]	; 0x7b
    cc5c:	e58d5048 	str	r5, [sp, #72]	; 0x48
    cc60:	e58d6038 	str	r6, [sp, #56]	; 0x38
    cc64:	e58dc054 	str	r12, [sp, #84]	; 0x54
    cc68:	eafffedb 	b	c7dc <_svfprintf_r+0x4f4>
    cc6c:	e59dc020 	ldr	r12, [sp, #32]
    cc70:	e31c0020 	tst	r12, #32
    cc74:	e58d3024 	str	r3, [sp, #36]	; 0x24
    cc78:	0a000057 	beq	cddc <_svfprintf_r+0xaf4>
    cc7c:	e59d4048 	ldr	r4, [sp, #72]	; 0x48
    cc80:	e2843007 	add	r3, r4, #7
    cc84:	e3c33007 	bic	r3, r3, #7
    cc88:	e8930030 	ldm	r3, {r4, r5}
    cc8c:	e2833008 	add	r3, r3, #8
    cc90:	e194c005 	orrs	r12, r4, r5
    cc94:	e58d3048 	str	r3, [sp, #72]	; 0x48
    cc98:	03a02000 	moveq	r2, #0
    cc9c:	13a02001 	movne	r2, #1
    cca0:	e3a03001 	mov	r3, #1
    cca4:	eaffff5e 	b	ca24 <_svfprintf_r+0x73c>
    cca8:	e59f4b68 	ldr	r4, [pc, #2920]	; d818 <_svfprintf_r+0x1530>
    ccac:	e58d406c 	str	r4, [sp, #108]	; 0x6c
    ccb0:	e59d4020 	ldr	r4, [sp, #32]
    ccb4:	e3140020 	tst	r4, #32
    ccb8:	e58d3024 	str	r3, [sp, #36]	; 0x24
    ccbc:	1affff4b 	bne	c9f0 <_svfprintf_r+0x708>
    ccc0:	e59dc020 	ldr	r12, [sp, #32]
    ccc4:	e31c0010 	tst	r12, #16
    ccc8:	1a00028b 	bne	d6fc <_svfprintf_r+0x1414>
    cccc:	e59d4020 	ldr	r4, [sp, #32]
    ccd0:	e3140040 	tst	r4, #64	; 0x40
    ccd4:	0a000288 	beq	d6fc <_svfprintf_r+0x1414>
    ccd8:	e59dc048 	ldr	r12, [sp, #72]	; 0x48
    ccdc:	e1dc30b0 	ldrh	r3, [r12]
    cce0:	e28cc004 	add	r12, r12, #4
    cce4:	e1a04003 	mov	r4, r3
    cce8:	e3a05000 	mov	r5, #0
    ccec:	e58dc048 	str	r12, [sp, #72]	; 0x48
    ccf0:	eaffff44 	b	ca08 <_svfprintf_r+0x720>
    ccf4:	e3570000 	cmp	r7, #0
    ccf8:	e58d3024 	str	r3, [sp, #36]	; 0x24
    ccfc:	0afffe38 	beq	c5e4 <_svfprintf_r+0x2fc>
    cd00:	e3a04001 	mov	r4, #1
    cd04:	e3a03000 	mov	r3, #0
    cd08:	e58d4028 	str	r4, [sp, #40]	; 0x28
    cd0c:	e5cd70a8 	strb	r7, [sp, #168]	; 0xa8
    cd10:	e5cd307b 	strb	r3, [sp, #123]	; 0x7b
    cd14:	e58d4038 	str	r4, [sp, #56]	; 0x38
    cd18:	e28d80a8 	add	r8, sp, #168	; 0xa8
    cd1c:	eaffff50 	b	ca64 <_svfprintf_r+0x77c>
    cd20:	e5dd007b 	ldrb	r0, [sp, #123]	; 0x7b
    cd24:	e3500000 	cmp	r0, #0
    cd28:	1a000335 	bne	da04 <_svfprintf_r+0x171c>
    cd2c:	e5cd107b 	strb	r1, [sp, #123]	; 0x7b
    cd30:	e5d37000 	ldrb	r7, [r3]
    cd34:	eafffdbb 	b	c428 <_svfprintf_r+0x140>
    cd38:	e59d4020 	ldr	r4, [sp, #32]
    cd3c:	e3844001 	orr	r4, r4, #1
    cd40:	e58d4020 	str	r4, [sp, #32]
    cd44:	e5d37000 	ldrb	r7, [r3]
    cd48:	eafffdb6 	b	c428 <_svfprintf_r+0x140>
    cd4c:	e59dc048 	ldr	r12, [sp, #72]	; 0x48
    cd50:	e59cc000 	ldr	r12, [r12]
    cd54:	e59d4048 	ldr	r4, [sp, #72]	; 0x48
    cd58:	e35c0000 	cmp	r12, #0
    cd5c:	e58dc034 	str	r12, [sp, #52]	; 0x34
    cd60:	e2840004 	add	r0, r4, #4
    cd64:	bafffe0d 	blt	c5a0 <_svfprintf_r+0x2b8>
    cd68:	e5d37000 	ldrb	r7, [r3]
    cd6c:	e58d0048 	str	r0, [sp, #72]	; 0x48
    cd70:	eafffdac 	b	c428 <_svfprintf_r+0x140>
    cd74:	e59d4020 	ldr	r4, [sp, #32]
    cd78:	e3844010 	orr	r4, r4, #16
    cd7c:	e58d4020 	str	r4, [sp, #32]
    cd80:	e59dc020 	ldr	r12, [sp, #32]
    cd84:	e58d3024 	str	r3, [sp, #36]	; 0x24
    cd88:	e21c3020 	ands	r3, r12, #32
    cd8c:	1affff75 	bne	cb68 <_svfprintf_r+0x880>
    cd90:	e59d4020 	ldr	r4, [sp, #32]
    cd94:	e2141010 	ands	r1, r4, #16
    cd98:	0a00032b 	beq	da4c <_svfprintf_r+0x1764>
    cd9c:	e59dc048 	ldr	r12, [sp, #72]	; 0x48
    cda0:	e59c2000 	ldr	r2, [r12]
    cda4:	e3a05000 	mov	r5, #0
    cda8:	e1a04002 	mov	r4, r2
    cdac:	e28cc004 	add	r12, r12, #4
    cdb0:	e0522005 	subs	r2, r2, r5
    cdb4:	13a02001 	movne	r2, #1
    cdb8:	e58dc048 	str	r12, [sp, #72]	; 0x48
    cdbc:	eaffff18 	b	ca24 <_svfprintf_r+0x73c>
    cdc0:	e59d4020 	ldr	r4, [sp, #32]
    cdc4:	e3844010 	orr	r4, r4, #16
    cdc8:	e58d4020 	str	r4, [sp, #32]
    cdcc:	e59dc020 	ldr	r12, [sp, #32]
    cdd0:	e31c0020 	tst	r12, #32
    cdd4:	e58d3024 	str	r3, [sp, #36]	; 0x24
    cdd8:	1affffa7 	bne	cc7c <_svfprintf_r+0x994>
    cddc:	e59d4020 	ldr	r4, [sp, #32]
    cde0:	e3140010 	tst	r4, #16
    cde4:	0a000312 	beq	da34 <_svfprintf_r+0x174c>
    cde8:	e59dc048 	ldr	r12, [sp, #72]	; 0x48
    cdec:	e59c2000 	ldr	r2, [r12]
    cdf0:	e3a05000 	mov	r5, #0
    cdf4:	e1a04002 	mov	r4, r2
    cdf8:	e28cc004 	add	r12, r12, #4
    cdfc:	e0522005 	subs	r2, r2, r5
    ce00:	13a02001 	movne	r2, #1
    ce04:	e58dc048 	str	r12, [sp, #72]	; 0x48
    ce08:	e3a03001 	mov	r3, #1
    ce0c:	eaffff04 	b	ca24 <_svfprintf_r+0x73c>
    ce10:	e59d50a4 	ldr	r5, [sp, #164]	; 0xa4
    ce14:	e5dd307b 	ldrb	r3, [sp, #123]	; 0x7b
    ce18:	e3530000 	cmp	r3, #0
    ce1c:	0a00000b 	beq	ce50 <_svfprintf_r+0xb68>
    ce20:	e59d40a0 	ldr	r4, [sp, #160]	; 0xa0
    ce24:	e28d307b 	add	r3, sp, #123	; 0x7b
    ce28:	e2844001 	add	r4, r4, #1
    ce2c:	e58a3000 	str	r3, [r10]
    ce30:	e2855001 	add	r5, r5, #1
    ce34:	e3540007 	cmp	r4, #7
    ce38:	e3a03001 	mov	r3, #1
    ce3c:	e58a3004 	str	r3, [r10, #4]
    ce40:	e58d50a4 	str	r5, [sp, #164]	; 0xa4
    ce44:	e58d40a0 	str	r4, [sp, #160]	; 0xa0
    ce48:	d28aa008 	addle	r10, r10, #8
    ce4c:	ca00018d 	bgt	d488 <_svfprintf_r+0x11a0>
    ce50:	e59d303c 	ldr	r3, [sp, #60]	; 0x3c
    ce54:	e3530000 	cmp	r3, #0
    ce58:	0a00000b 	beq	ce8c <_svfprintf_r+0xba4>
    ce5c:	e59d40a0 	ldr	r4, [sp, #160]	; 0xa0
    ce60:	e28d307c 	add	r3, sp, #124	; 0x7c
    ce64:	e2844001 	add	r4, r4, #1
    ce68:	e58a3000 	str	r3, [r10]
    ce6c:	e2855002 	add	r5, r5, #2
    ce70:	e3540007 	cmp	r4, #7
    ce74:	e3a03002 	mov	r3, #2
    ce78:	e58a3004 	str	r3, [r10, #4]
    ce7c:	e58d50a4 	str	r5, [sp, #164]	; 0xa4
    ce80:	e58d40a0 	str	r4, [sp, #160]	; 0xa0
    ce84:	d28aa008 	addle	r10, r10, #8
    ce88:	ca000187 	bgt	d4ac <_svfprintf_r+0x11c4>
    ce8c:	e59d4050 	ldr	r4, [sp, #80]	; 0x50
    ce90:	e3540080 	cmp	r4, #128	; 0x80
    ce94:	0a0000e5 	beq	d230 <_svfprintf_r+0xf48>
    ce98:	e59dc044 	ldr	r12, [sp, #68]	; 0x44
    ce9c:	e59d3038 	ldr	r3, [sp, #56]	; 0x38
    cea0:	e063900c 	rsb	r9, r3, r12
    cea4:	e3590000 	cmp	r9, #0
    cea8:	da000036 	ble	cf88 <_svfprintf_r+0xca0>
    ceac:	e3590010 	cmp	r9, #16
    ceb0:	e59d40a0 	ldr	r4, [sp, #160]	; 0xa0
    ceb4:	e59f696c 	ldr	r6, [pc, #2412]	; d828 <_svfprintf_r+0x1540>
    ceb8:	da000022 	ble	cf48 <_svfprintf_r+0xc60>
    cebc:	e58d7044 	str	r7, [sp, #68]	; 0x44
    cec0:	e58d803c 	str	r8, [sp, #60]	; 0x3c
    cec4:	e3a0b010 	mov	r11, #16
    cec8:	e1a08009 	mov	r8, r9
    cecc:	e59d7030 	ldr	r7, [sp, #48]	; 0x30
    ced0:	e1a09006 	mov	r9, r6
    ced4:	e59d6040 	ldr	r6, [sp, #64]	; 0x40
    ced8:	ea000002 	b	cee8 <_svfprintf_r+0xc00>
    cedc:	e2488010 	sub	r8, r8, #16
    cee0:	e3580010 	cmp	r8, #16
    cee4:	da000013 	ble	cf38 <_svfprintf_r+0xc50>
    cee8:	e2844001 	add	r4, r4, #1
    ceec:	e3540007 	cmp	r4, #7
    cef0:	e2855010 	add	r5, r5, #16
    cef4:	e88a0a00 	stm	r10, {r9, r11}
    cef8:	e58d50a4 	str	r5, [sp, #164]	; 0xa4
    cefc:	e58d40a0 	str	r4, [sp, #160]	; 0xa0
    cf00:	d28aa008 	addle	r10, r10, #8
    cf04:	dafffff4 	ble	cedc <_svfprintf_r+0xbf4>
    cf08:	e1a00006 	mov	r0, r6
    cf0c:	e1a01007 	mov	r1, r7
    cf10:	e28d209c 	add	r2, sp, #156	; 0x9c
    cf14:	eb000f18 	bl	10b7c <__ssprint_r>
    cf18:	e3500000 	cmp	r0, #0
    cf1c:	1afffdb6 	bne	c5fc <_svfprintf_r+0x314>
    cf20:	e2488010 	sub	r8, r8, #16
    cf24:	e28d40a0 	add	r4, sp, #160	; 0xa0
    cf28:	e3580010 	cmp	r8, #16
    cf2c:	e8940030 	ldm	r4, {r4, r5}
    cf30:	e28da0d0 	add	r10, sp, #208	; 0xd0
    cf34:	caffffeb 	bgt	cee8 <_svfprintf_r+0xc00>
    cf38:	e1a06009 	mov	r6, r9
    cf3c:	e59d7044 	ldr	r7, [sp, #68]	; 0x44
    cf40:	e1a09008 	mov	r9, r8
    cf44:	e59d803c 	ldr	r8, [sp, #60]	; 0x3c
    cf48:	e2844001 	add	r4, r4, #1
    cf4c:	e0855009 	add	r5, r5, r9
    cf50:	e3540007 	cmp	r4, #7
    cf54:	e88a0240 	stm	r10, {r6, r9}
    cf58:	e58d50a4 	str	r5, [sp, #164]	; 0xa4
    cf5c:	e58d40a0 	str	r4, [sp, #160]	; 0xa0
    cf60:	d28aa008 	addle	r10, r10, #8
    cf64:	da000007 	ble	cf88 <_svfprintf_r+0xca0>
    cf68:	e59d0040 	ldr	r0, [sp, #64]	; 0x40
    cf6c:	e59d1030 	ldr	r1, [sp, #48]	; 0x30
    cf70:	e28d209c 	add	r2, sp, #156	; 0x9c
    cf74:	eb000f00 	bl	10b7c <__ssprint_r>
    cf78:	e3500000 	cmp	r0, #0
    cf7c:	1afffd9e 	bne	c5fc <_svfprintf_r+0x314>
    cf80:	e59d50a4 	ldr	r5, [sp, #164]	; 0xa4
    cf84:	e28da0d0 	add	r10, sp, #208	; 0xd0
    cf88:	e59d4020 	ldr	r4, [sp, #32]
    cf8c:	e3140c01 	tst	r4, #256	; 0x100
    cf90:	1a00004d 	bne	d0cc <_svfprintf_r+0xde4>
    cf94:	e59d40a0 	ldr	r4, [sp, #160]	; 0xa0
    cf98:	e59dc038 	ldr	r12, [sp, #56]	; 0x38
    cf9c:	e2844001 	add	r4, r4, #1
    cfa0:	e085500c 	add	r5, r5, r12
    cfa4:	e3540007 	cmp	r4, #7
    cfa8:	e88a1100 	stm	r10, {r8, r12}
    cfac:	e58d50a4 	str	r5, [sp, #164]	; 0xa4
    cfb0:	e58d40a0 	str	r4, [sp, #160]	; 0xa0
    cfb4:	ca000110 	bgt	d3fc <_svfprintf_r+0x1114>
    cfb8:	e28aa008 	add	r10, r10, #8
    cfbc:	e59d4020 	ldr	r4, [sp, #32]
    cfc0:	e3140004 	tst	r4, #4
    cfc4:	0a000033 	beq	d098 <_svfprintf_r+0xdb0>
    cfc8:	e59dc034 	ldr	r12, [sp, #52]	; 0x34
    cfcc:	e59d4028 	ldr	r4, [sp, #40]	; 0x28
    cfd0:	e064600c 	rsb	r6, r4, r12
    cfd4:	e3560000 	cmp	r6, #0
    cfd8:	da00002e 	ble	d098 <_svfprintf_r+0xdb0>
    cfdc:	e3560010 	cmp	r6, #16
    cfe0:	e59d40a0 	ldr	r4, [sp, #160]	; 0xa0
    cfe4:	e59f981c 	ldr	r9, [pc, #2076]	; d808 <_svfprintf_r+0x1520>
    cfe8:	da00001b 	ble	d05c <_svfprintf_r+0xd74>
    cfec:	e3a07010 	mov	r7, #16
    cff0:	e59d8040 	ldr	r8, [sp, #64]	; 0x40
    cff4:	e59db030 	ldr	r11, [sp, #48]	; 0x30
    cff8:	ea000002 	b	d008 <_svfprintf_r+0xd20>
    cffc:	e2466010 	sub	r6, r6, #16
    d000:	e3560010 	cmp	r6, #16
    d004:	da000014 	ble	d05c <_svfprintf_r+0xd74>
    d008:	e2844001 	add	r4, r4, #1
    d00c:	e3540007 	cmp	r4, #7
    d010:	e2855010 	add	r5, r5, #16
    d014:	e58a9000 	str	r9, [r10]
    d018:	e58a7004 	str	r7, [r10, #4]
    d01c:	e58d50a4 	str	r5, [sp, #164]	; 0xa4
    d020:	e58d40a0 	str	r4, [sp, #160]	; 0xa0
    d024:	d28aa008 	addle	r10, r10, #8
    d028:	dafffff3 	ble	cffc <_svfprintf_r+0xd14>
    d02c:	e1a00008 	mov	r0, r8
    d030:	e1a0100b 	mov	r1, r11
    d034:	e28d209c 	add	r2, sp, #156	; 0x9c
    d038:	eb000ecf 	bl	10b7c <__ssprint_r>
    d03c:	e3500000 	cmp	r0, #0
    d040:	1afffd6d 	bne	c5fc <_svfprintf_r+0x314>
    d044:	e2466010 	sub	r6, r6, #16
    d048:	e28d40a0 	add	r4, sp, #160	; 0xa0
    d04c:	e3560010 	cmp	r6, #16
    d050:	e8940030 	ldm	r4, {r4, r5}
    d054:	e28da0d0 	add	r10, sp, #208	; 0xd0
    d058:	caffffea 	bgt	d008 <_svfprintf_r+0xd20>
    d05c:	e2844001 	add	r4, r4, #1
    d060:	e0865005 	add	r5, r6, r5
    d064:	e3540007 	cmp	r4, #7
    d068:	e58a9000 	str	r9, [r10]
    d06c:	e58a6004 	str	r6, [r10, #4]
    d070:	e58d50a4 	str	r5, [sp, #164]	; 0xa4
    d074:	e58d40a0 	str	r4, [sp, #160]	; 0xa0
    d078:	da000006 	ble	d098 <_svfprintf_r+0xdb0>
    d07c:	e59d0040 	ldr	r0, [sp, #64]	; 0x40
    d080:	e59d1030 	ldr	r1, [sp, #48]	; 0x30
    d084:	e28d209c 	add	r2, sp, #156	; 0x9c
    d088:	eb000ebb 	bl	10b7c <__ssprint_r>
    d08c:	e3500000 	cmp	r0, #0
    d090:	1afffd59 	bne	c5fc <_svfprintf_r+0x314>
    d094:	e59d50a4 	ldr	r5, [sp, #164]	; 0xa4
    d098:	e28d4028 	add	r4, sp, #40	; 0x28
    d09c:	e8941010 	ldm	r4, {r4, r12}
    d0a0:	e59d0034 	ldr	r0, [sp, #52]	; 0x34
    d0a4:	e1540000 	cmp	r4, r0
    d0a8:	a08cc004 	addge	r12, r12, r4
    d0ac:	b08cc000 	addlt	r12, r12, r0
    d0b0:	e3550000 	cmp	r5, #0
    d0b4:	e58dc02c 	str	r12, [sp, #44]	; 0x2c
    d0b8:	1a0000d8 	bne	d420 <_svfprintf_r+0x1138>
    d0bc:	e3a03000 	mov	r3, #0
    d0c0:	e58d30a0 	str	r3, [sp, #160]	; 0xa0
    d0c4:	e28da0d0 	add	r10, sp, #208	; 0xd0
    d0c8:	eafffcaa 	b	c378 <_svfprintf_r+0x90>
    d0cc:	e3570065 	cmp	r7, #101	; 0x65
    d0d0:	da000093 	ble	d324 <_svfprintf_r+0x103c>
    d0d4:	e28d1060 	add	r1, sp, #96	; 0x60
    d0d8:	e8910003 	ldm	r1, {r0, r1}
    d0dc:	e3a02000 	mov	r2, #0
    d0e0:	e3a03000 	mov	r3, #0
    d0e4:	eb001465 	bl	12280 <__aeabi_dcmpeq>
    d0e8:	e3500000 	cmp	r0, #0
    d0ec:	0a0000f7 	beq	d4d0 <_svfprintf_r+0x11e8>
    d0f0:	e59d40a0 	ldr	r4, [sp, #160]	; 0xa0
    d0f4:	e59f3728 	ldr	r3, [pc, #1832]	; d824 <_svfprintf_r+0x153c>
    d0f8:	e2844001 	add	r4, r4, #1
    d0fc:	e58a3000 	str	r3, [r10]
    d100:	e2855001 	add	r5, r5, #1
    d104:	e3540007 	cmp	r4, #7
    d108:	e3a03001 	mov	r3, #1
    d10c:	e58a3004 	str	r3, [r10, #4]
    d110:	e58d50a4 	str	r5, [sp, #164]	; 0xa4
    d114:	e58d40a0 	str	r4, [sp, #160]	; 0xa0
    d118:	d28aa008 	addle	r10, r10, #8
    d11c:	ca00025d 	bgt	da98 <_svfprintf_r+0x17b0>
    d120:	e59d3080 	ldr	r3, [sp, #128]	; 0x80
    d124:	e59d404c 	ldr	r4, [sp, #76]	; 0x4c
    d128:	e1530004 	cmp	r3, r4
    d12c:	ba000002 	blt	d13c <_svfprintf_r+0xe54>
    d130:	e59dc020 	ldr	r12, [sp, #32]
    d134:	e31c0001 	tst	r12, #1
    d138:	0affff9f 	beq	cfbc <_svfprintf_r+0xcd4>
    d13c:	e59dc05c 	ldr	r12, [sp, #92]	; 0x5c
    d140:	e59d40a0 	ldr	r4, [sp, #160]	; 0xa0
    d144:	e085500c 	add	r5, r5, r12
    d148:	e59dc058 	ldr	r12, [sp, #88]	; 0x58
    d14c:	e2844001 	add	r4, r4, #1
    d150:	e58ac000 	str	r12, [r10]
    d154:	e59dc05c 	ldr	r12, [sp, #92]	; 0x5c
    d158:	e3540007 	cmp	r4, #7
    d15c:	e58ac004 	str	r12, [r10, #4]
    d160:	e58d50a4 	str	r5, [sp, #164]	; 0xa4
    d164:	e58d40a0 	str	r4, [sp, #160]	; 0xa0
    d168:	d28aa008 	addle	r10, r10, #8
    d16c:	ca00031c 	bgt	dde4 <_svfprintf_r+0x1afc>
    d170:	e59d404c 	ldr	r4, [sp, #76]	; 0x4c
    d174:	e2447001 	sub	r7, r4, #1
    d178:	e3570000 	cmp	r7, #0
    d17c:	daffff8e 	ble	cfbc <_svfprintf_r+0xcd4>
    d180:	e3570010 	cmp	r7, #16
    d184:	e59d40a0 	ldr	r4, [sp, #160]	; 0xa0
    d188:	e59f6698 	ldr	r6, [pc, #1688]	; d828 <_svfprintf_r+0x1540>
    d18c:	da000152 	ble	d6dc <_svfprintf_r+0x13f4>
    d190:	e3a08010 	mov	r8, #16
    d194:	e59d9040 	ldr	r9, [sp, #64]	; 0x40
    d198:	e59db030 	ldr	r11, [sp, #48]	; 0x30
    d19c:	ea000002 	b	d1ac <_svfprintf_r+0xec4>
    d1a0:	e2477010 	sub	r7, r7, #16
    d1a4:	e3570010 	cmp	r7, #16
    d1a8:	da00014b 	ble	d6dc <_svfprintf_r+0x13f4>
    d1ac:	e2844001 	add	r4, r4, #1
    d1b0:	e3540007 	cmp	r4, #7
    d1b4:	e2855010 	add	r5, r5, #16
    d1b8:	e88a0140 	stm	r10, {r6, r8}
    d1bc:	e58d50a4 	str	r5, [sp, #164]	; 0xa4
    d1c0:	e58d40a0 	str	r4, [sp, #160]	; 0xa0
    d1c4:	d28aa008 	addle	r10, r10, #8
    d1c8:	dafffff4 	ble	d1a0 <_svfprintf_r+0xeb8>
    d1cc:	e1a00009 	mov	r0, r9
    d1d0:	e1a0100b 	mov	r1, r11
    d1d4:	e28d209c 	add	r2, sp, #156	; 0x9c
    d1d8:	eb000e67 	bl	10b7c <__ssprint_r>
    d1dc:	e3500000 	cmp	r0, #0
    d1e0:	1afffd05 	bne	c5fc <_svfprintf_r+0x314>
    d1e4:	e28d40a0 	add	r4, sp, #160	; 0xa0
    d1e8:	e8940030 	ldm	r4, {r4, r5}
    d1ec:	e28da0d0 	add	r10, sp, #208	; 0xd0
    d1f0:	eaffffea 	b	d1a0 <_svfprintf_r+0xeb8>
    d1f4:	e3530000 	cmp	r3, #0
    d1f8:	158d2038 	strne	r2, [sp, #56]	; 0x38
    d1fc:	128d80d0 	addne	r8, sp, #208	; 0xd0
    d200:	1afffd6d 	bne	c7bc <_svfprintf_r+0x4d4>
    d204:	e59d4020 	ldr	r4, [sp, #32]
    d208:	e3140001 	tst	r4, #1
    d20c:	128d8e11 	addne	r8, sp, #272	; 0x110
    d210:	13a03030 	movne	r3, #48	; 0x30
    d214:	159dc01c 	ldrne	r12, [sp, #28]
    d218:	15683041 	strbne	r3, [r8, #-65]!	; 0xffffffbf
    d21c:	1068c00c 	rsbne	r12, r8, r12
    d220:	158dc038 	strne	r12, [sp, #56]	; 0x38
    d224:	058d3038 	streq	r3, [sp, #56]	; 0x38
    d228:	028d80d0 	addeq	r8, sp, #208	; 0xd0
    d22c:	eafffd62 	b	c7bc <_svfprintf_r+0x4d4>
    d230:	e59dc034 	ldr	r12, [sp, #52]	; 0x34
    d234:	e59d4028 	ldr	r4, [sp, #40]	; 0x28
    d238:	e064900c 	rsb	r9, r4, r12
    d23c:	e3590000 	cmp	r9, #0
    d240:	daffff14 	ble	ce98 <_svfprintf_r+0xbb0>
    d244:	e3590010 	cmp	r9, #16
    d248:	e59d40a0 	ldr	r4, [sp, #160]	; 0xa0
    d24c:	e59f65d4 	ldr	r6, [pc, #1492]	; d828 <_svfprintf_r+0x1540>
    d250:	da000022 	ble	d2e0 <_svfprintf_r+0xff8>
    d254:	e58d703c 	str	r7, [sp, #60]	; 0x3c
    d258:	e58d8050 	str	r8, [sp, #80]	; 0x50
    d25c:	e3a0b010 	mov	r11, #16
    d260:	e1a08009 	mov	r8, r9
    d264:	e59d7030 	ldr	r7, [sp, #48]	; 0x30
    d268:	e1a09006 	mov	r9, r6
    d26c:	e59d6040 	ldr	r6, [sp, #64]	; 0x40
    d270:	ea000002 	b	d280 <_svfprintf_r+0xf98>
    d274:	e2488010 	sub	r8, r8, #16
    d278:	e3580010 	cmp	r8, #16
    d27c:	da000013 	ble	d2d0 <_svfprintf_r+0xfe8>
    d280:	e2844001 	add	r4, r4, #1
    d284:	e3540007 	cmp	r4, #7
    d288:	e2855010 	add	r5, r5, #16
    d28c:	e88a0a00 	stm	r10, {r9, r11}
    d290:	e58d50a4 	str	r5, [sp, #164]	; 0xa4
    d294:	e58d40a0 	str	r4, [sp, #160]	; 0xa0
    d298:	d28aa008 	addle	r10, r10, #8
    d29c:	dafffff4 	ble	d274 <_svfprintf_r+0xf8c>
    d2a0:	e1a00006 	mov	r0, r6
    d2a4:	e1a01007 	mov	r1, r7
    d2a8:	e28d209c 	add	r2, sp, #156	; 0x9c
    d2ac:	eb000e32 	bl	10b7c <__ssprint_r>
    d2b0:	e3500000 	cmp	r0, #0
    d2b4:	1afffcd0 	bne	c5fc <_svfprintf_r+0x314>
    d2b8:	e2488010 	sub	r8, r8, #16
    d2bc:	e28d40a0 	add	r4, sp, #160	; 0xa0
    d2c0:	e3580010 	cmp	r8, #16
    d2c4:	e8940030 	ldm	r4, {r4, r5}
    d2c8:	e28da0d0 	add	r10, sp, #208	; 0xd0
    d2cc:	caffffeb 	bgt	d280 <_svfprintf_r+0xf98>
    d2d0:	e1a06009 	mov	r6, r9
    d2d4:	e59d703c 	ldr	r7, [sp, #60]	; 0x3c
    d2d8:	e1a09008 	mov	r9, r8
    d2dc:	e59d8050 	ldr	r8, [sp, #80]	; 0x50
    d2e0:	e2844001 	add	r4, r4, #1
    d2e4:	e0855009 	add	r5, r5, r9
    d2e8:	e3540007 	cmp	r4, #7
    d2ec:	e88a0240 	stm	r10, {r6, r9}
    d2f0:	e58d50a4 	str	r5, [sp, #164]	; 0xa4
    d2f4:	e58d40a0 	str	r4, [sp, #160]	; 0xa0
    d2f8:	d28aa008 	addle	r10, r10, #8
    d2fc:	dafffee5 	ble	ce98 <_svfprintf_r+0xbb0>
    d300:	e59d0040 	ldr	r0, [sp, #64]	; 0x40
    d304:	e59d1030 	ldr	r1, [sp, #48]	; 0x30
    d308:	e28d209c 	add	r2, sp, #156	; 0x9c
    d30c:	eb000e1a 	bl	10b7c <__ssprint_r>
    d310:	e3500000 	cmp	r0, #0
    d314:	1afffcb8 	bne	c5fc <_svfprintf_r+0x314>
    d318:	e59d50a4 	ldr	r5, [sp, #164]	; 0xa4
    d31c:	e28da0d0 	add	r10, sp, #208	; 0xd0
    d320:	eafffedc 	b	ce98 <_svfprintf_r+0xbb0>
    d324:	e59d404c 	ldr	r4, [sp, #76]	; 0x4c
    d328:	e3540001 	cmp	r4, #1
    d32c:	e59d40a0 	ldr	r4, [sp, #160]	; 0xa0
    d330:	e2855001 	add	r5, r5, #1
    d334:	e2844001 	add	r4, r4, #1
    d338:	da000169 	ble	d8e4 <_svfprintf_r+0x15fc>
    d33c:	e3540007 	cmp	r4, #7
    d340:	e3a03001 	mov	r3, #1
    d344:	e58a8000 	str	r8, [r10]
    d348:	e58a3004 	str	r3, [r10, #4]
    d34c:	e58d50a4 	str	r5, [sp, #164]	; 0xa4
    d350:	e58d40a0 	str	r4, [sp, #160]	; 0xa0
    d354:	d28aa008 	addle	r10, r10, #8
    d358:	ca00016c 	bgt	d910 <_svfprintf_r+0x1628>
    d35c:	e59dc05c 	ldr	r12, [sp, #92]	; 0x5c
    d360:	e085500c 	add	r5, r5, r12
    d364:	e59dc058 	ldr	r12, [sp, #88]	; 0x58
    d368:	e2844001 	add	r4, r4, #1
    d36c:	e58ac000 	str	r12, [r10]
    d370:	e59dc05c 	ldr	r12, [sp, #92]	; 0x5c
    d374:	e3540007 	cmp	r4, #7
    d378:	e58ac004 	str	r12, [r10, #4]
    d37c:	e58d50a4 	str	r5, [sp, #164]	; 0xa4
    d380:	e58d40a0 	str	r4, [sp, #160]	; 0xa0
    d384:	d28aa008 	addle	r10, r10, #8
    d388:	ca00016a 	bgt	d938 <_svfprintf_r+0x1650>
    d38c:	e28d1060 	add	r1, sp, #96	; 0x60
    d390:	e8910003 	ldm	r1, {r0, r1}
    d394:	e3a02000 	mov	r2, #0
    d398:	e3a03000 	mov	r3, #0
    d39c:	eb0013b7 	bl	12280 <__aeabi_dcmpeq>
    d3a0:	e3500000 	cmp	r0, #0
    d3a4:	e59dc04c 	ldr	r12, [sp, #76]	; 0x4c
    d3a8:	1a00008e 	bne	d5e8 <_svfprintf_r+0x1300>
    d3ac:	e24c3001 	sub	r3, r12, #1
    d3b0:	e2844001 	add	r4, r4, #1
    d3b4:	e2888001 	add	r8, r8, #1
    d3b8:	e0855003 	add	r5, r5, r3
    d3bc:	e3540007 	cmp	r4, #7
    d3c0:	e58a8000 	str	r8, [r10]
    d3c4:	e58a3004 	str	r3, [r10, #4]
    d3c8:	e58d50a4 	str	r5, [sp, #164]	; 0xa4
    d3cc:	e58d40a0 	str	r4, [sp, #160]	; 0xa0
    d3d0:	ca0000ac 	bgt	d688 <_svfprintf_r+0x13a0>
    d3d4:	e28aa008 	add	r10, r10, #8
    d3d8:	e59dc068 	ldr	r12, [sp, #104]	; 0x68
    d3dc:	e2844001 	add	r4, r4, #1
    d3e0:	e085500c 	add	r5, r5, r12
    d3e4:	e28d308c 	add	r3, sp, #140	; 0x8c
    d3e8:	e3540007 	cmp	r4, #7
    d3ec:	e88a1008 	stm	r10, {r3, r12}
    d3f0:	e58d50a4 	str	r5, [sp, #164]	; 0xa4
    d3f4:	e58d40a0 	str	r4, [sp, #160]	; 0xa0
    d3f8:	dafffeee 	ble	cfb8 <_svfprintf_r+0xcd0>
    d3fc:	e59d0040 	ldr	r0, [sp, #64]	; 0x40
    d400:	e59d1030 	ldr	r1, [sp, #48]	; 0x30
    d404:	e28d209c 	add	r2, sp, #156	; 0x9c
    d408:	eb000ddb 	bl	10b7c <__ssprint_r>
    d40c:	e3500000 	cmp	r0, #0
    d410:	1afffc79 	bne	c5fc <_svfprintf_r+0x314>
    d414:	e28da0d0 	add	r10, sp, #208	; 0xd0
    d418:	e59d50a4 	ldr	r5, [sp, #164]	; 0xa4
    d41c:	eafffee6 	b	cfbc <_svfprintf_r+0xcd4>
    d420:	e59d0040 	ldr	r0, [sp, #64]	; 0x40
    d424:	e59d1030 	ldr	r1, [sp, #48]	; 0x30
    d428:	e28d209c 	add	r2, sp, #156	; 0x9c
    d42c:	eb000dd2 	bl	10b7c <__ssprint_r>
    d430:	e3500000 	cmp	r0, #0
    d434:	0affff20 	beq	d0bc <_svfprintf_r+0xdd4>
    d438:	eafffc6f 	b	c5fc <_svfprintf_r+0x314>
    d43c:	e59d906c 	ldr	r9, [sp, #108]	; 0x6c
    d440:	e3a0000f 	mov	r0, #15
    d444:	e1a08224 	lsr	r8, r4, #4
    d448:	e0042000 	and	r2, r4, r0
    d44c:	e1888e05 	orr	r8, r8, r5, lsl #28
    d450:	e1a0b225 	lsr	r11, r5, #4
    d454:	e0892002 	add	r2, r9, r2
    d458:	e1a04008 	mov	r4, r8
    d45c:	e5d23000 	ldrb	r3, [r2]
    d460:	e1a0500b 	mov	r5, r11
    d464:	e1a0800c 	mov	r8, r12
    d468:	e194c005 	orrs	r12, r4, r5
    d46c:	e5c83000 	strb	r3, [r8]
    d470:	e248c001 	sub	r12, r8, #1
    d474:	1afffff2 	bne	d444 <_svfprintf_r+0x115c>
    d478:	e59d301c 	ldr	r3, [sp, #28]
    d47c:	e0683003 	rsb	r3, r8, r3
    d480:	e58d3038 	str	r3, [sp, #56]	; 0x38
    d484:	eafffccc 	b	c7bc <_svfprintf_r+0x4d4>
    d488:	e59d0040 	ldr	r0, [sp, #64]	; 0x40
    d48c:	e59d1030 	ldr	r1, [sp, #48]	; 0x30
    d490:	e28d209c 	add	r2, sp, #156	; 0x9c
    d494:	eb000db8 	bl	10b7c <__ssprint_r>
    d498:	e3500000 	cmp	r0, #0
    d49c:	1afffc56 	bne	c5fc <_svfprintf_r+0x314>
    d4a0:	e59d50a4 	ldr	r5, [sp, #164]	; 0xa4
    d4a4:	e28da0d0 	add	r10, sp, #208	; 0xd0
    d4a8:	eafffe68 	b	ce50 <_svfprintf_r+0xb68>
    d4ac:	e59d0040 	ldr	r0, [sp, #64]	; 0x40
    d4b0:	e59d1030 	ldr	r1, [sp, #48]	; 0x30
    d4b4:	e28d209c 	add	r2, sp, #156	; 0x9c
    d4b8:	eb000daf 	bl	10b7c <__ssprint_r>
    d4bc:	e3500000 	cmp	r0, #0
    d4c0:	1afffc4d 	bne	c5fc <_svfprintf_r+0x314>
    d4c4:	e59d50a4 	ldr	r5, [sp, #164]	; 0xa4
    d4c8:	e28da0d0 	add	r10, sp, #208	; 0xd0
    d4cc:	eafffe6e 	b	ce8c <_svfprintf_r+0xba4>
    d4d0:	e59d7080 	ldr	r7, [sp, #128]	; 0x80
    d4d4:	e3570000 	cmp	r7, #0
    d4d8:	da000177 	ble	dabc <_svfprintf_r+0x17d4>
    d4dc:	e59d604c 	ldr	r6, [sp, #76]	; 0x4c
    d4e0:	e59d4054 	ldr	r4, [sp, #84]	; 0x54
    d4e4:	e59dc04c 	ldr	r12, [sp, #76]	; 0x4c
    d4e8:	e1560004 	cmp	r6, r4
    d4ec:	a1a06004 	movge	r6, r4
    d4f0:	e3560000 	cmp	r6, #0
    d4f4:	e088b00c 	add	r11, r8, r12
    d4f8:	da000009 	ble	d524 <_svfprintf_r+0x123c>
    d4fc:	e59d40a0 	ldr	r4, [sp, #160]	; 0xa0
    d500:	e2844001 	add	r4, r4, #1
    d504:	e0855006 	add	r5, r5, r6
    d508:	e3540007 	cmp	r4, #7
    d50c:	e58a8000 	str	r8, [r10]
    d510:	e58a6004 	str	r6, [r10, #4]
    d514:	e58d50a4 	str	r5, [sp, #164]	; 0xa4
    d518:	e58d40a0 	str	r4, [sp, #160]	; 0xa0
    d51c:	d28aa008 	addle	r10, r10, #8
    d520:	ca000290 	bgt	df68 <_svfprintf_r+0x1c80>
    d524:	e59d4054 	ldr	r4, [sp, #84]	; 0x54
    d528:	e1c66fc6 	bic	r6, r6, r6, asr #31
    d52c:	e0667004 	rsb	r7, r6, r4
    d530:	e3570000 	cmp	r7, #0
    d534:	da00008c 	ble	d76c <_svfprintf_r+0x1484>
    d538:	e3570010 	cmp	r7, #16
    d53c:	e59d40a0 	ldr	r4, [sp, #160]	; 0xa0
    d540:	e59f62e0 	ldr	r6, [pc, #736]	; d828 <_svfprintf_r+0x1540>
    d544:	da000078 	ble	d72c <_svfprintf_r+0x1444>
    d548:	e58d8038 	str	r8, [sp, #56]	; 0x38
    d54c:	e58db044 	str	r11, [sp, #68]	; 0x44
    d550:	e1a08007 	mov	r8, r7
    d554:	e1a0b006 	mov	r11, r6
    d558:	e3a09010 	mov	r9, #16
    d55c:	e59d7030 	ldr	r7, [sp, #48]	; 0x30
    d560:	e59d6040 	ldr	r6, [sp, #64]	; 0x40
    d564:	ea000002 	b	d574 <_svfprintf_r+0x128c>
    d568:	e2488010 	sub	r8, r8, #16
    d56c:	e3580010 	cmp	r8, #16
    d570:	da000069 	ble	d71c <_svfprintf_r+0x1434>
    d574:	e2844001 	add	r4, r4, #1
    d578:	e3540007 	cmp	r4, #7
    d57c:	e2855010 	add	r5, r5, #16
    d580:	e58ab000 	str	r11, [r10]
    d584:	e58a9004 	str	r9, [r10, #4]
    d588:	e58d50a4 	str	r5, [sp, #164]	; 0xa4
    d58c:	e58d40a0 	str	r4, [sp, #160]	; 0xa0
    d590:	d28aa008 	addle	r10, r10, #8
    d594:	dafffff3 	ble	d568 <_svfprintf_r+0x1280>
    d598:	e1a00006 	mov	r0, r6
    d59c:	e1a01007 	mov	r1, r7
    d5a0:	e28d209c 	add	r2, sp, #156	; 0x9c
    d5a4:	eb000d74 	bl	10b7c <__ssprint_r>
    d5a8:	e3500000 	cmp	r0, #0
    d5ac:	1afffc12 	bne	c5fc <_svfprintf_r+0x314>
    d5b0:	e28d40a0 	add	r4, sp, #160	; 0xa0
    d5b4:	e8940030 	ldm	r4, {r4, r5}
    d5b8:	e28da0d0 	add	r10, sp, #208	; 0xd0
    d5bc:	eaffffe9 	b	d568 <_svfprintf_r+0x1280>
    d5c0:	e3550000 	cmp	r5, #0
    d5c4:	03540009 	cmpeq	r4, #9
    d5c8:	8a0000e4 	bhi	d960 <_svfprintf_r+0x1678>
    d5cc:	e28d8e11 	add	r8, sp, #272	; 0x110
    d5d0:	e2844030 	add	r4, r4, #48	; 0x30
    d5d4:	e5684041 	strb	r4, [r8, #-65]!	; 0xffffffbf
    d5d8:	e59dc01c 	ldr	r12, [sp, #28]
    d5dc:	e068c00c 	rsb	r12, r8, r12
    d5e0:	e58dc038 	str	r12, [sp, #56]	; 0x38
    d5e4:	eafffc74 	b	c7bc <_svfprintf_r+0x4d4>
    d5e8:	e24c7001 	sub	r7, r12, #1
    d5ec:	e3570000 	cmp	r7, #0
    d5f0:	daffff78 	ble	d3d8 <_svfprintf_r+0x10f0>
    d5f4:	e3570010 	cmp	r7, #16
    d5f8:	e59f6228 	ldr	r6, [pc, #552]	; d828 <_svfprintf_r+0x1540>
    d5fc:	da00001a 	ble	d66c <_svfprintf_r+0x1384>
    d600:	e3a08010 	mov	r8, #16
    d604:	e59d9040 	ldr	r9, [sp, #64]	; 0x40
    d608:	e59db030 	ldr	r11, [sp, #48]	; 0x30
    d60c:	ea000002 	b	d61c <_svfprintf_r+0x1334>
    d610:	e2477010 	sub	r7, r7, #16
    d614:	e3570010 	cmp	r7, #16
    d618:	da000013 	ble	d66c <_svfprintf_r+0x1384>
    d61c:	e2844001 	add	r4, r4, #1
    d620:	e3540007 	cmp	r4, #7
    d624:	e2855010 	add	r5, r5, #16
    d628:	e88a0140 	stm	r10, {r6, r8}
    d62c:	e58d50a4 	str	r5, [sp, #164]	; 0xa4
    d630:	e58d40a0 	str	r4, [sp, #160]	; 0xa0
    d634:	d28aa008 	addle	r10, r10, #8
    d638:	dafffff4 	ble	d610 <_svfprintf_r+0x1328>
    d63c:	e1a00009 	mov	r0, r9
    d640:	e1a0100b 	mov	r1, r11
    d644:	e28d209c 	add	r2, sp, #156	; 0x9c
    d648:	eb000d4b 	bl	10b7c <__ssprint_r>
    d64c:	e3500000 	cmp	r0, #0
    d650:	1afffbe9 	bne	c5fc <_svfprintf_r+0x314>
    d654:	e2477010 	sub	r7, r7, #16
    d658:	e28d40a0 	add	r4, sp, #160	; 0xa0
    d65c:	e3570010 	cmp	r7, #16
    d660:	e8940030 	ldm	r4, {r4, r5}
    d664:	e28da0d0 	add	r10, sp, #208	; 0xd0
    d668:	caffffeb 	bgt	d61c <_svfprintf_r+0x1334>
    d66c:	e2844001 	add	r4, r4, #1
    d670:	e0855007 	add	r5, r5, r7
    d674:	e3540007 	cmp	r4, #7
    d678:	e88a00c0 	stm	r10, {r6, r7}
    d67c:	e58d50a4 	str	r5, [sp, #164]	; 0xa4
    d680:	e58d40a0 	str	r4, [sp, #160]	; 0xa0
    d684:	daffff52 	ble	d3d4 <_svfprintf_r+0x10ec>
    d688:	e59d0040 	ldr	r0, [sp, #64]	; 0x40
    d68c:	e59d1030 	ldr	r1, [sp, #48]	; 0x30
    d690:	e28d209c 	add	r2, sp, #156	; 0x9c
    d694:	eb000d38 	bl	10b7c <__ssprint_r>
    d698:	e3500000 	cmp	r0, #0
    d69c:	1afffbd6 	bne	c5fc <_svfprintf_r+0x314>
    d6a0:	e28d40a0 	add	r4, sp, #160	; 0xa0
    d6a4:	e28da0d0 	add	r10, sp, #208	; 0xd0
    d6a8:	e8940030 	ldm	r4, {r4, r5}
    d6ac:	eaffff49 	b	d3d8 <_svfprintf_r+0x10f0>
    d6b0:	e1941005 	orrs	r1, r4, r5
    d6b4:	159dc020 	ldrne	r12, [sp, #32]
    d6b8:	13a03030 	movne	r3, #48	; 0x30
    d6bc:	138cc002 	orrne	r12, r12, #2
    d6c0:	15cd307c 	strbne	r3, [sp, #124]	; 0x7c
    d6c4:	15cd707d 	strbne	r7, [sp, #125]	; 0x7d
    d6c8:	158dc020 	strne	r12, [sp, #32]
    d6cc:	13a02001 	movne	r2, #1
    d6d0:	03a02000 	moveq	r2, #0
    d6d4:	e3a03002 	mov	r3, #2
    d6d8:	eafffcd1 	b	ca24 <_svfprintf_r+0x73c>
    d6dc:	e2844001 	add	r4, r4, #1
    d6e0:	e0855007 	add	r5, r5, r7
    d6e4:	e3540007 	cmp	r4, #7
    d6e8:	e88a00c0 	stm	r10, {r6, r7}
    d6ec:	e58d50a4 	str	r5, [sp, #164]	; 0xa4
    d6f0:	e58d40a0 	str	r4, [sp, #160]	; 0xa0
    d6f4:	dafffe2f 	ble	cfb8 <_svfprintf_r+0xcd0>
    d6f8:	eaffff3f 	b	d3fc <_svfprintf_r+0x1114>
    d6fc:	e59d4048 	ldr	r4, [sp, #72]	; 0x48
    d700:	e59dc048 	ldr	r12, [sp, #72]	; 0x48
    d704:	e5943000 	ldr	r3, [r4]
    d708:	e28cc004 	add	r12, r12, #4
    d70c:	e1a04003 	mov	r4, r3
    d710:	e3a05000 	mov	r5, #0
    d714:	e58dc048 	str	r12, [sp, #72]	; 0x48
    d718:	eafffcba 	b	ca08 <_svfprintf_r+0x720>
    d71c:	e1a07008 	mov	r7, r8
    d720:	e1a0600b 	mov	r6, r11
    d724:	e59d8038 	ldr	r8, [sp, #56]	; 0x38
    d728:	e59db044 	ldr	r11, [sp, #68]	; 0x44
    d72c:	e2844001 	add	r4, r4, #1
    d730:	e0855007 	add	r5, r5, r7
    d734:	e3540007 	cmp	r4, #7
    d738:	e88a00c0 	stm	r10, {r6, r7}
    d73c:	e58d50a4 	str	r5, [sp, #164]	; 0xa4
    d740:	e58d40a0 	str	r4, [sp, #160]	; 0xa0
    d744:	d28aa008 	addle	r10, r10, #8
    d748:	da000007 	ble	d76c <_svfprintf_r+0x1484>
    d74c:	e59d0040 	ldr	r0, [sp, #64]	; 0x40
    d750:	e59d1030 	ldr	r1, [sp, #48]	; 0x30
    d754:	e28d209c 	add	r2, sp, #156	; 0x9c
    d758:	eb000d07 	bl	10b7c <__ssprint_r>
    d75c:	e3500000 	cmp	r0, #0
    d760:	1afffba5 	bne	c5fc <_svfprintf_r+0x314>
    d764:	e59d50a4 	ldr	r5, [sp, #164]	; 0xa4
    d768:	e28da0d0 	add	r10, sp, #208	; 0xd0
    d76c:	e59d3080 	ldr	r3, [sp, #128]	; 0x80
    d770:	e59dc04c 	ldr	r12, [sp, #76]	; 0x4c
    d774:	e59d4054 	ldr	r4, [sp, #84]	; 0x54
    d778:	e153000c 	cmp	r3, r12
    d77c:	e0888004 	add	r8, r8, r4
    d780:	ba000040 	blt	d888 <_svfprintf_r+0x15a0>
    d784:	e59dc020 	ldr	r12, [sp, #32]
    d788:	e31c0001 	tst	r12, #1
    d78c:	1a00003d 	bne	d888 <_svfprintf_r+0x15a0>
    d790:	e59d404c 	ldr	r4, [sp, #76]	; 0x4c
    d794:	e068600b 	rsb	r6, r8, r11
    d798:	e0633004 	rsb	r3, r3, r4
    d79c:	e1530006 	cmp	r3, r6
    d7a0:	b1a06003 	movlt	r6, r3
    d7a4:	a1a06006 	movge	r6, r6
    d7a8:	e3560000 	cmp	r6, #0
    d7ac:	da000009 	ble	d7d8 <_svfprintf_r+0x14f0>
    d7b0:	e59d40a0 	ldr	r4, [sp, #160]	; 0xa0
    d7b4:	e2844001 	add	r4, r4, #1
    d7b8:	e0855006 	add	r5, r5, r6
    d7bc:	e3540007 	cmp	r4, #7
    d7c0:	e58a8000 	str	r8, [r10]
    d7c4:	e58a6004 	str	r6, [r10, #4]
    d7c8:	e58d50a4 	str	r5, [sp, #164]	; 0xa4
    d7cc:	e58d40a0 	str	r4, [sp, #160]	; 0xa0
    d7d0:	d28aa008 	addle	r10, r10, #8
    d7d4:	ca0001ec 	bgt	df8c <_svfprintf_r+0x1ca4>
    d7d8:	e1c66fc6 	bic	r6, r6, r6, asr #31
    d7dc:	e0667003 	rsb	r7, r6, r3
    d7e0:	e3570000 	cmp	r7, #0
    d7e4:	dafffdf4 	ble	cfbc <_svfprintf_r+0xcd4>
    d7e8:	e3570010 	cmp	r7, #16
    d7ec:	e59d40a0 	ldr	r4, [sp, #160]	; 0xa0
    d7f0:	e59f6030 	ldr	r6, [pc, #48]	; d828 <_svfprintf_r+0x1540>
    d7f4:	daffffb8 	ble	d6dc <_svfprintf_r+0x13f4>
    d7f8:	e3a08010 	mov	r8, #16
    d7fc:	e59d9040 	ldr	r9, [sp, #64]	; 0x40
    d800:	e59db030 	ldr	r11, [sp, #48]	; 0x30
    d804:	ea00000d 	b	d840 <_svfprintf_r+0x1558>
    d808:	00013b20 	.word	0x00013b20
    d80c:	0001382c 	.word	0x0001382c
    d810:	00013830 	.word	0x00013830
    d814:	0001383c 	.word	0x0001383c
    d818:	00013850 	.word	0x00013850
    d81c:	00013834 	.word	0x00013834
    d820:	00013838 	.word	0x00013838
    d824:	0001386c 	.word	0x0001386c
    d828:	00013b30 	.word	0x00013b30
    d82c:	00013864 	.word	0x00013864
    d830:	66666667 	.word	0x66666667
    d834:	e2477010 	sub	r7, r7, #16
    d838:	e3570010 	cmp	r7, #16
    d83c:	daffffa6 	ble	d6dc <_svfprintf_r+0x13f4>
    d840:	e2844001 	add	r4, r4, #1
    d844:	e3540007 	cmp	r4, #7
    d848:	e2855010 	add	r5, r5, #16
    d84c:	e88a0140 	stm	r10, {r6, r8}
    d850:	e58d50a4 	str	r5, [sp, #164]	; 0xa4
    d854:	e58d40a0 	str	r4, [sp, #160]	; 0xa0
    d858:	d28aa008 	addle	r10, r10, #8
    d85c:	dafffff4 	ble	d834 <_svfprintf_r+0x154c>
    d860:	e1a00009 	mov	r0, r9
    d864:	e1a0100b 	mov	r1, r11
    d868:	e28d209c 	add	r2, sp, #156	; 0x9c
    d86c:	eb000cc2 	bl	10b7c <__ssprint_r>
    d870:	e3500000 	cmp	r0, #0
    d874:	1afffb60 	bne	c5fc <_svfprintf_r+0x314>
    d878:	e28d40a0 	add	r4, sp, #160	; 0xa0
    d87c:	e8940030 	ldm	r4, {r4, r5}
    d880:	e28da0d0 	add	r10, sp, #208	; 0xd0
    d884:	eaffffea 	b	d834 <_svfprintf_r+0x154c>
    d888:	e59dc05c 	ldr	r12, [sp, #92]	; 0x5c
    d88c:	e59d40a0 	ldr	r4, [sp, #160]	; 0xa0
    d890:	e085500c 	add	r5, r5, r12
    d894:	e59dc058 	ldr	r12, [sp, #88]	; 0x58
    d898:	e2844001 	add	r4, r4, #1
    d89c:	e58ac000 	str	r12, [r10]
    d8a0:	e59dc05c 	ldr	r12, [sp, #92]	; 0x5c
    d8a4:	e3540007 	cmp	r4, #7
    d8a8:	e58ac004 	str	r12, [r10, #4]
    d8ac:	e58d50a4 	str	r5, [sp, #164]	; 0xa4
    d8b0:	e58d40a0 	str	r4, [sp, #160]	; 0xa0
    d8b4:	d28aa008 	addle	r10, r10, #8
    d8b8:	daffffb4 	ble	d790 <_svfprintf_r+0x14a8>
    d8bc:	e59d0040 	ldr	r0, [sp, #64]	; 0x40
    d8c0:	e59d1030 	ldr	r1, [sp, #48]	; 0x30
    d8c4:	e28d209c 	add	r2, sp, #156	; 0x9c
    d8c8:	eb000cab 	bl	10b7c <__ssprint_r>
    d8cc:	e3500000 	cmp	r0, #0
    d8d0:	1afffb49 	bne	c5fc <_svfprintf_r+0x314>
    d8d4:	e59d3080 	ldr	r3, [sp, #128]	; 0x80
    d8d8:	e59d50a4 	ldr	r5, [sp, #164]	; 0xa4
    d8dc:	e28da0d0 	add	r10, sp, #208	; 0xd0
    d8e0:	eaffffaa 	b	d790 <_svfprintf_r+0x14a8>
    d8e4:	e59dc020 	ldr	r12, [sp, #32]
    d8e8:	e31c0001 	tst	r12, #1
    d8ec:	1afffe92 	bne	d33c <_svfprintf_r+0x1054>
    d8f0:	e3a03001 	mov	r3, #1
    d8f4:	e3540007 	cmp	r4, #7
    d8f8:	e58a8000 	str	r8, [r10]
    d8fc:	e58a3004 	str	r3, [r10, #4]
    d900:	e58d50a4 	str	r5, [sp, #164]	; 0xa4
    d904:	e58d40a0 	str	r4, [sp, #160]	; 0xa0
    d908:	dafffeb1 	ble	d3d4 <_svfprintf_r+0x10ec>
    d90c:	eaffff5d 	b	d688 <_svfprintf_r+0x13a0>
    d910:	e59d0040 	ldr	r0, [sp, #64]	; 0x40
    d914:	e59d1030 	ldr	r1, [sp, #48]	; 0x30
    d918:	e28d209c 	add	r2, sp, #156	; 0x9c
    d91c:	eb000c96 	bl	10b7c <__ssprint_r>
    d920:	e3500000 	cmp	r0, #0
    d924:	1afffb34 	bne	c5fc <_svfprintf_r+0x314>
    d928:	e28d40a0 	add	r4, sp, #160	; 0xa0
    d92c:	e8940030 	ldm	r4, {r4, r5}
    d930:	e28da0d0 	add	r10, sp, #208	; 0xd0
    d934:	eafffe88 	b	d35c <_svfprintf_r+0x1074>
    d938:	e59d0040 	ldr	r0, [sp, #64]	; 0x40
    d93c:	e59d1030 	ldr	r1, [sp, #48]	; 0x30
    d940:	e28d209c 	add	r2, sp, #156	; 0x9c
    d944:	eb000c8c 	bl	10b7c <__ssprint_r>
    d948:	e3500000 	cmp	r0, #0
    d94c:	1afffb2a 	bne	c5fc <_svfprintf_r+0x314>
    d950:	e28d40a0 	add	r4, sp, #160	; 0xa0
    d954:	e8940030 	ldm	r4, {r4, r5}
    d958:	e28da0d0 	add	r10, sp, #208	; 0xd0
    d95c:	eafffe8a 	b	d38c <_svfprintf_r+0x10a4>
    d960:	e28d90cf 	add	r9, sp, #207	; 0xcf
    d964:	e1a00004 	mov	r0, r4
    d968:	e1a01005 	mov	r1, r5
    d96c:	e3a0200a 	mov	r2, #10
    d970:	e3a03000 	mov	r3, #0
    d974:	eb0012f8 	bl	1255c <__aeabi_uldivmod>
    d978:	e2822030 	add	r2, r2, #48	; 0x30
    d97c:	e5c92000 	strb	r2, [r9]
    d980:	e1a00004 	mov	r0, r4
    d984:	e1a01005 	mov	r1, r5
    d988:	e3a0200a 	mov	r2, #10
    d98c:	e3a03000 	mov	r3, #0
    d990:	eb0012f1 	bl	1255c <__aeabi_uldivmod>
    d994:	e1a04000 	mov	r4, r0
    d998:	e1a05001 	mov	r5, r1
    d99c:	e1940005 	orrs	r0, r4, r5
    d9a0:	e1a08009 	mov	r8, r9
    d9a4:	e2499001 	sub	r9, r9, #1
    d9a8:	1affffed 	bne	d964 <_svfprintf_r+0x167c>
    d9ac:	e59d301c 	ldr	r3, [sp, #28]
    d9b0:	e0683003 	rsb	r3, r8, r3
    d9b4:	e58d3038 	str	r3, [sp, #56]	; 0x38
    d9b8:	eafffb7f 	b	c7bc <_svfprintf_r+0x4d4>
    d9bc:	ebfff0df 	bl	9d40 <__fpclassifyd>
    d9c0:	e3500000 	cmp	r0, #0
    d9c4:	1a0000a5 	bne	dc60 <_svfprintf_r+0x1978>
    d9c8:	e3a0c003 	mov	r12, #3
    d9cc:	e58d0044 	str	r0, [sp, #68]	; 0x44
    d9d0:	e59d4020 	ldr	r4, [sp, #32]
    d9d4:	e58dc028 	str	r12, [sp, #40]	; 0x28
    d9d8:	e51f01c4 	ldr	r0, [pc, #-452]	; d81c <_svfprintf_r+0x1534>
    d9dc:	e58dc038 	str	r12, [sp, #56]	; 0x38
    d9e0:	e59dc044 	ldr	r12, [sp, #68]	; 0x44
    d9e4:	e3570047 	cmp	r7, #71	; 0x47
    d9e8:	e3c44080 	bic	r4, r4, #128	; 0x80
    d9ec:	e51f81d4 	ldr	r8, [pc, #-468]	; d820 <_svfprintf_r+0x1538>
    d9f0:	e58d4020 	str	r4, [sp, #32]
    d9f4:	d1a08000 	movle	r8, r0
    d9f8:	e5dd307b 	ldrb	r3, [sp, #123]	; 0x7b
    d9fc:	e58dc054 	str	r12, [sp, #84]	; 0x54
    da00:	eafffb75 	b	c7dc <_svfprintf_r+0x4f4>
    da04:	e5d37000 	ldrb	r7, [r3]
    da08:	eafffa86 	b	c428 <_svfprintf_r+0x140>
    da0c:	e59d4020 	ldr	r4, [sp, #32]
    da10:	e3140010 	tst	r4, #16
    da14:	0a0000fb 	beq	de08 <_svfprintf_r+0x1b20>
    da18:	e59dc048 	ldr	r12, [sp, #72]	; 0x48
    da1c:	e59d402c 	ldr	r4, [sp, #44]	; 0x2c
    da20:	e59c3000 	ldr	r3, [r12]
    da24:	e28cc004 	add	r12, r12, #4
    da28:	e58dc048 	str	r12, [sp, #72]	; 0x48
    da2c:	e5834000 	str	r4, [r3]
    da30:	eafffa50 	b	c378 <_svfprintf_r+0x90>
    da34:	e59d4020 	ldr	r4, [sp, #32]
    da38:	e3140040 	tst	r4, #64	; 0x40
    da3c:	0a000072 	beq	dc0c <_svfprintf_r+0x1924>
    da40:	e59dc048 	ldr	r12, [sp, #72]	; 0x48
    da44:	e1dc20b0 	ldrh	r2, [r12]
    da48:	eafffce8 	b	cdf0 <_svfprintf_r+0xb08>
    da4c:	e59d4020 	ldr	r4, [sp, #32]
    da50:	e2143040 	ands	r3, r4, #64	; 0x40
    da54:	0a000077 	beq	dc38 <_svfprintf_r+0x1950>
    da58:	e59dc048 	ldr	r12, [sp, #72]	; 0x48
    da5c:	e1dc20b0 	ldrh	r2, [r12]
    da60:	e3a05000 	mov	r5, #0
    da64:	e1a04002 	mov	r4, r2
    da68:	e28cc004 	add	r12, r12, #4
    da6c:	e0522005 	subs	r2, r2, r5
    da70:	13a02001 	movne	r2, #1
    da74:	e58dc048 	str	r12, [sp, #72]	; 0x48
    da78:	e1a03001 	mov	r3, r1
    da7c:	eafffbe8 	b	ca24 <_svfprintf_r+0x73c>
    da80:	e59d4020 	ldr	r4, [sp, #32]
    da84:	e3140040 	tst	r4, #64	; 0x40
    da88:	0a000055 	beq	dbe4 <_svfprintf_r+0x18fc>
    da8c:	e59dc048 	ldr	r12, [sp, #72]	; 0x48
    da90:	e1dc30f0 	ldrsh	r3, [r12]
    da94:	eafffbff 	b	ca98 <_svfprintf_r+0x7b0>
    da98:	e59d0040 	ldr	r0, [sp, #64]	; 0x40
    da9c:	e59d1030 	ldr	r1, [sp, #48]	; 0x30
    daa0:	e28d209c 	add	r2, sp, #156	; 0x9c
    daa4:	eb000c34 	bl	10b7c <__ssprint_r>
    daa8:	e3500000 	cmp	r0, #0
    daac:	1afffad2 	bne	c5fc <_svfprintf_r+0x314>
    dab0:	e59d50a4 	ldr	r5, [sp, #164]	; 0xa4
    dab4:	e28da0d0 	add	r10, sp, #208	; 0xd0
    dab8:	eafffd98 	b	d120 <_svfprintf_r+0xe38>
    dabc:	e59d40a0 	ldr	r4, [sp, #160]	; 0xa0
    dac0:	e51f32a4 	ldr	r3, [pc, #-676]	; d824 <_svfprintf_r+0x153c>
    dac4:	e2844001 	add	r4, r4, #1
    dac8:	e58a3000 	str	r3, [r10]
    dacc:	e2855001 	add	r5, r5, #1
    dad0:	e3540007 	cmp	r4, #7
    dad4:	e3a03001 	mov	r3, #1
    dad8:	e58a3004 	str	r3, [r10, #4]
    dadc:	e58d50a4 	str	r5, [sp, #164]	; 0xa4
    dae0:	e58d40a0 	str	r4, [sp, #160]	; 0xa0
    dae4:	d28aa008 	addle	r10, r10, #8
    dae8:	ca0000ee 	bgt	dea8 <_svfprintf_r+0x1bc0>
    daec:	e3570000 	cmp	r7, #0
    daf0:	1a000005 	bne	db0c <_svfprintf_r+0x1824>
    daf4:	e59dc04c 	ldr	r12, [sp, #76]	; 0x4c
    daf8:	e35c0000 	cmp	r12, #0
    dafc:	1a000002 	bne	db0c <_svfprintf_r+0x1824>
    db00:	e59d4020 	ldr	r4, [sp, #32]
    db04:	e3140001 	tst	r4, #1
    db08:	0afffd2b 	beq	cfbc <_svfprintf_r+0xcd4>
    db0c:	e59dc05c 	ldr	r12, [sp, #92]	; 0x5c
    db10:	e59d40a0 	ldr	r4, [sp, #160]	; 0xa0
    db14:	e085500c 	add	r5, r5, r12
    db18:	e59dc058 	ldr	r12, [sp, #88]	; 0x58
    db1c:	e2844001 	add	r4, r4, #1
    db20:	e58ac000 	str	r12, [r10]
    db24:	e59dc05c 	ldr	r12, [sp, #92]	; 0x5c
    db28:	e3540007 	cmp	r4, #7
    db2c:	e58ac004 	str	r12, [r10, #4]
    db30:	e58d50a4 	str	r5, [sp, #164]	; 0xa4
    db34:	e58d40a0 	str	r4, [sp, #160]	; 0xa0
    db38:	d28aa008 	addle	r10, r10, #8
    db3c:	ca0000f9 	bgt	df28 <_svfprintf_r+0x1c40>
    db40:	e2677000 	rsb	r7, r7, #0
    db44:	e3570000 	cmp	r7, #0
    db48:	da0000f3 	ble	df1c <_svfprintf_r+0x1c34>
    db4c:	e3570010 	cmp	r7, #16
    db50:	e51f6330 	ldr	r6, [pc, #-816]	; d828 <_svfprintf_r+0x1540>
    db54:	da0000df 	ble	ded8 <_svfprintf_r+0x1bf0>
    db58:	e58d8038 	str	r8, [sp, #56]	; 0x38
    db5c:	e3a09010 	mov	r9, #16
    db60:	e1a08006 	mov	r8, r6
    db64:	e59db040 	ldr	r11, [sp, #64]	; 0x40
    db68:	e59d6030 	ldr	r6, [sp, #48]	; 0x30
    db6c:	ea000002 	b	db7c <_svfprintf_r+0x1894>
    db70:	e2477010 	sub	r7, r7, #16
    db74:	e3570010 	cmp	r7, #16
    db78:	da0000d4 	ble	ded0 <_svfprintf_r+0x1be8>
    db7c:	e2844001 	add	r4, r4, #1
    db80:	e3540007 	cmp	r4, #7
    db84:	e2855010 	add	r5, r5, #16
    db88:	e88a0300 	stm	r10, {r8, r9}
    db8c:	e58d50a4 	str	r5, [sp, #164]	; 0xa4
    db90:	e58d40a0 	str	r4, [sp, #160]	; 0xa0
    db94:	d28aa008 	addle	r10, r10, #8
    db98:	dafffff4 	ble	db70 <_svfprintf_r+0x1888>
    db9c:	e1a0000b 	mov	r0, r11
    dba0:	e1a01006 	mov	r1, r6
    dba4:	e28d209c 	add	r2, sp, #156	; 0x9c
    dba8:	eb000bf3 	bl	10b7c <__ssprint_r>
    dbac:	e3500000 	cmp	r0, #0
    dbb0:	1afffa91 	bne	c5fc <_svfprintf_r+0x314>
    dbb4:	e28d40a0 	add	r4, sp, #160	; 0xa0
    dbb8:	e8940030 	ldm	r4, {r4, r5}
    dbbc:	e28da0d0 	add	r10, sp, #208	; 0xd0
    dbc0:	eaffffea 	b	db70 <_svfprintf_r+0x1888>
    dbc4:	e59d4038 	ldr	r4, [sp, #56]	; 0x38
    dbc8:	e1c44fc4 	bic	r4, r4, r4, asr #31
    dbcc:	e59dc044 	ldr	r12, [sp, #68]	; 0x44
    dbd0:	e58d4028 	str	r4, [sp, #40]	; 0x28
    dbd4:	e5dd307b 	ldrb	r3, [sp, #123]	; 0x7b
    dbd8:	e58d5048 	str	r5, [sp, #72]	; 0x48
    dbdc:	e58dc054 	str	r12, [sp, #84]	; 0x54
    dbe0:	eafffafd 	b	c7dc <_svfprintf_r+0x4f4>
    dbe4:	e59d4048 	ldr	r4, [sp, #72]	; 0x48
    dbe8:	e59dc048 	ldr	r12, [sp, #72]	; 0x48
    dbec:	e5943000 	ldr	r3, [r4]
    dbf0:	e28cc004 	add	r12, r12, #4
    dbf4:	e1a05fc3 	asr	r5, r3, #31
    dbf8:	e1a04003 	mov	r4, r3
    dbfc:	e1a02003 	mov	r2, r3
    dc00:	e58dc048 	str	r12, [sp, #72]	; 0x48
    dc04:	e1a03005 	mov	r3, r5
    dc08:	eafffabd 	b	c704 <_svfprintf_r+0x41c>
    dc0c:	e59d4048 	ldr	r4, [sp, #72]	; 0x48
    dc10:	e59dc048 	ldr	r12, [sp, #72]	; 0x48
    dc14:	e5942000 	ldr	r2, [r4]
    dc18:	e3a05000 	mov	r5, #0
    dc1c:	e1a04002 	mov	r4, r2
    dc20:	e28cc004 	add	r12, r12, #4
    dc24:	e0522005 	subs	r2, r2, r5
    dc28:	13a02001 	movne	r2, #1
    dc2c:	e58dc048 	str	r12, [sp, #72]	; 0x48
    dc30:	e3a03001 	mov	r3, #1
    dc34:	eafffb7a 	b	ca24 <_svfprintf_r+0x73c>
    dc38:	e59d4048 	ldr	r4, [sp, #72]	; 0x48
    dc3c:	e59dc048 	ldr	r12, [sp, #72]	; 0x48
    dc40:	e5942000 	ldr	r2, [r4]
    dc44:	e3a05000 	mov	r5, #0
    dc48:	e1a04002 	mov	r4, r2
    dc4c:	e28cc004 	add	r12, r12, #4
    dc50:	e0522005 	subs	r2, r2, r5
    dc54:	13a02001 	movne	r2, #1
    dc58:	e58dc048 	str	r12, [sp, #72]	; 0x48
    dc5c:	eafffb70 	b	ca24 <_svfprintf_r+0x73c>
    dc60:	e3760001 	cmn	r6, #1
    dc64:	e3c7b020 	bic	r11, r7, #32
    dc68:	03a06006 	moveq	r6, #6
    dc6c:	0a000003 	beq	dc80 <_svfprintf_r+0x1998>
    dc70:	e35b0047 	cmp	r11, #71	; 0x47
    dc74:	1a000001 	bne	dc80 <_svfprintf_r+0x1998>
    dc78:	e3560000 	cmp	r6, #0
    dc7c:	03a06001 	moveq	r6, #1
    dc80:	e59d4020 	ldr	r4, [sp, #32]
    dc84:	e3550000 	cmp	r5, #0
    dc88:	e3844c01 	orr	r4, r4, #256	; 0x100
    dc8c:	e58d403c 	str	r4, [sp, #60]	; 0x3c
    dc90:	b3a0c02d 	movlt	r12, #45	; 0x2d
    dc94:	a3a04000 	movge	r4, #0
    dc98:	a58d4044 	strge	r4, [sp, #68]	; 0x44
    dc9c:	b2855102 	addlt	r5, r5, #-2147483648	; 0x80000000
    dca0:	b58dc044 	strlt	r12, [sp, #68]	; 0x44
    dca4:	e25b3046 	subs	r3, r11, #70	; 0x46
    dca8:	e2734000 	rsbs	r4, r3, #0
    dcac:	e0b44003 	adcs	r4, r4, r3
    dcb0:	e3540000 	cmp	r4, #0
    dcb4:	0a000069 	beq	de60 <_svfprintf_r+0x1b78>
    dcb8:	e3a01003 	mov	r1, #3
    dcbc:	e88d0042 	stm	sp, {r1, r6}
    dcc0:	e28d1080 	add	r1, sp, #128	; 0x80
    dcc4:	e58d1008 	str	r1, [sp, #8]
    dcc8:	e28d1084 	add	r1, sp, #132	; 0x84
    dccc:	e58d100c 	str	r1, [sp, #12]
    dcd0:	e28d1088 	add	r1, sp, #136	; 0x88
    dcd4:	e1a02009 	mov	r2, r9
    dcd8:	e1a03005 	mov	r3, r5
    dcdc:	e58d1010 	str	r1, [sp, #16]
    dce0:	e59d0040 	ldr	r0, [sp, #64]	; 0x40
    dce4:	ebffdcd7 	bl	5048 <_dtoa_r>
    dce8:	e35b0047 	cmp	r11, #71	; 0x47
    dcec:	e1a08000 	mov	r8, r0
    dcf0:	1a000002 	bne	dd00 <_svfprintf_r+0x1a18>
    dcf4:	e59dc020 	ldr	r12, [sp, #32]
    dcf8:	e31c0001 	tst	r12, #1
    dcfc:	0a0000ba 	beq	dfec <_svfprintf_r+0x1d04>
    dd00:	e3540000 	cmp	r4, #0
    dd04:	e0884006 	add	r4, r8, r6
    dd08:	0a000004 	beq	dd20 <_svfprintf_r+0x1a38>
    dd0c:	e5d83000 	ldrb	r3, [r8]
    dd10:	e3530030 	cmp	r3, #48	; 0x30
    dd14:	0a00011a 	beq	e184 <_svfprintf_r+0x1e9c>
    dd18:	e59d3080 	ldr	r3, [sp, #128]	; 0x80
    dd1c:	e0844003 	add	r4, r4, r3
    dd20:	e1a00009 	mov	r0, r9
    dd24:	e1a01005 	mov	r1, r5
    dd28:	e3a02000 	mov	r2, #0
    dd2c:	e3a03000 	mov	r3, #0
    dd30:	eb001152 	bl	12280 <__aeabi_dcmpeq>
    dd34:	e3500000 	cmp	r0, #0
    dd38:	1a000008 	bne	dd60 <_svfprintf_r+0x1a78>
    dd3c:	e59d3088 	ldr	r3, [sp, #136]	; 0x88
    dd40:	e1540003 	cmp	r4, r3
    dd44:	91a04003 	movls	r4, r3
    dd48:	9a000004 	bls	dd60 <_svfprintf_r+0x1a78>
    dd4c:	e3a02030 	mov	r2, #48	; 0x30
    dd50:	e4c32001 	strb	r2, [r3], #1
    dd54:	e1530004 	cmp	r3, r4
    dd58:	e58d3088 	str	r3, [sp, #136]	; 0x88
    dd5c:	1afffffb 	bne	dd50 <_svfprintf_r+0x1a68>
    dd60:	e0684004 	rsb	r4, r8, r4
    dd64:	e35b0047 	cmp	r11, #71	; 0x47
    dd68:	e58d404c 	str	r4, [sp, #76]	; 0x4c
    dd6c:	0a0000a1 	beq	dff8 <_svfprintf_r+0x1d10>
    dd70:	e3570065 	cmp	r7, #101	; 0x65
    dd74:	da000136 	ble	e254 <_svfprintf_r+0x1f6c>
    dd78:	e3570066 	cmp	r7, #102	; 0x66
    dd7c:	e59d3080 	ldr	r3, [sp, #128]	; 0x80
    dd80:	0a0000d6 	beq	e0e0 <_svfprintf_r+0x1df8>
    dd84:	e59dc04c 	ldr	r12, [sp, #76]	; 0x4c
    dd88:	e153000c 	cmp	r3, r12
    dd8c:	ba0000c9 	blt	e0b8 <_svfprintf_r+0x1dd0>
    dd90:	e59d4020 	ldr	r4, [sp, #32]
    dd94:	e3140001 	tst	r4, #1
    dd98:	12834001 	addne	r4, r3, #1
    dd9c:	01c3cfc3 	biceq	r12, r3, r3, asr #31
    dda0:	11c4cfc4 	bicne	r12, r4, r4, asr #31
    dda4:	058dc028 	streq	r12, [sp, #40]	; 0x28
    dda8:	058d3038 	streq	r3, [sp, #56]	; 0x38
    ddac:	158d4038 	strne	r4, [sp, #56]	; 0x38
    ddb0:	158dc028 	strne	r12, [sp, #40]	; 0x28
    ddb4:	e3a07067 	mov	r7, #103	; 0x67
    ddb8:	e58d3054 	str	r3, [sp, #84]	; 0x54
    ddbc:	e59dc044 	ldr	r12, [sp, #68]	; 0x44
    ddc0:	e35c0000 	cmp	r12, #0
    ddc4:	0a000084 	beq	dfdc <_svfprintf_r+0x1cf4>
    ddc8:	e59d403c 	ldr	r4, [sp, #60]	; 0x3c
    ddcc:	e3a0302d 	mov	r3, #45	; 0x2d
    ddd0:	e3a0c000 	mov	r12, #0
    ddd4:	e5cd307b 	strb	r3, [sp, #123]	; 0x7b
    ddd8:	e58d4020 	str	r4, [sp, #32]
    dddc:	e58dc044 	str	r12, [sp, #68]	; 0x44
    dde0:	eafffa7f 	b	c7e4 <_svfprintf_r+0x4fc>
    dde4:	e59d0040 	ldr	r0, [sp, #64]	; 0x40
    dde8:	e59d1030 	ldr	r1, [sp, #48]	; 0x30
    ddec:	e28d209c 	add	r2, sp, #156	; 0x9c
    ddf0:	eb000b61 	bl	10b7c <__ssprint_r>
    ddf4:	e3500000 	cmp	r0, #0
    ddf8:	1afff9ff 	bne	c5fc <_svfprintf_r+0x314>
    ddfc:	e59d50a4 	ldr	r5, [sp, #164]	; 0xa4
    de00:	e28da0d0 	add	r10, sp, #208	; 0xd0
    de04:	eafffcd9 	b	d170 <_svfprintf_r+0xe88>
    de08:	e59d4048 	ldr	r4, [sp, #72]	; 0x48
    de0c:	e59dc020 	ldr	r12, [sp, #32]
    de10:	e5943000 	ldr	r3, [r4]
    de14:	e31c0040 	tst	r12, #64	; 0x40
    de18:	e59dc02c 	ldr	r12, [sp, #44]	; 0x2c
    de1c:	e2844004 	add	r4, r4, #4
    de20:	e58d4048 	str	r4, [sp, #72]	; 0x48
    de24:	11c3c0b0 	strhne	r12, [r3]
    de28:	0583c000 	streq	r12, [r3]
    de2c:	eafff951 	b	c378 <_svfprintf_r+0x90>
    de30:	e59d0040 	ldr	r0, [sp, #64]	; 0x40
    de34:	e3a01040 	mov	r1, #64	; 0x40
    de38:	ebffe704 	bl	7a50 <_malloc_r>
    de3c:	e59dc030 	ldr	r12, [sp, #48]	; 0x30
    de40:	e3500000 	cmp	r0, #0
    de44:	e58c0000 	str	r0, [r12]
    de48:	e58c0010 	str	r0, [r12, #16]
    de4c:	0a0000fa 	beq	e23c <_svfprintf_r+0x1f54>
    de50:	e59dc030 	ldr	r12, [sp, #48]	; 0x30
    de54:	e3a03040 	mov	r3, #64	; 0x40
    de58:	e58c3014 	str	r3, [r12, #20]
    de5c:	eafff937 	b	c340 <_svfprintf_r+0x58>
    de60:	e35b0045 	cmp	r11, #69	; 0x45
    de64:	1a000091 	bne	e0b0 <_svfprintf_r+0x1dc8>
    de68:	e2864001 	add	r4, r6, #1
    de6c:	e3a01002 	mov	r1, #2
    de70:	e88d0012 	stm	sp, {r1, r4}
    de74:	e28d1080 	add	r1, sp, #128	; 0x80
    de78:	e58d1008 	str	r1, [sp, #8]
    de7c:	e28d1084 	add	r1, sp, #132	; 0x84
    de80:	e58d100c 	str	r1, [sp, #12]
    de84:	e28d1088 	add	r1, sp, #136	; 0x88
    de88:	e1a02009 	mov	r2, r9
    de8c:	e1a03005 	mov	r3, r5
    de90:	e58d1010 	str	r1, [sp, #16]
    de94:	e59d0040 	ldr	r0, [sp, #64]	; 0x40
    de98:	ebffdc6a 	bl	5048 <_dtoa_r>
    de9c:	e1a08000 	mov	r8, r0
    dea0:	e0804004 	add	r4, r0, r4
    dea4:	eaffff9d 	b	dd20 <_svfprintf_r+0x1a38>
    dea8:	e59d0040 	ldr	r0, [sp, #64]	; 0x40
    deac:	e59d1030 	ldr	r1, [sp, #48]	; 0x30
    deb0:	e28d209c 	add	r2, sp, #156	; 0x9c
    deb4:	eb000b30 	bl	10b7c <__ssprint_r>
    deb8:	e3500000 	cmp	r0, #0
    debc:	1afff9ce 	bne	c5fc <_svfprintf_r+0x314>
    dec0:	e59d7080 	ldr	r7, [sp, #128]	; 0x80
    dec4:	e59d50a4 	ldr	r5, [sp, #164]	; 0xa4
    dec8:	e28da0d0 	add	r10, sp, #208	; 0xd0
    decc:	eaffff06 	b	daec <_svfprintf_r+0x1804>
    ded0:	e1a06008 	mov	r6, r8
    ded4:	e59d8038 	ldr	r8, [sp, #56]	; 0x38
    ded8:	e2844001 	add	r4, r4, #1
    dedc:	e0855007 	add	r5, r5, r7
    dee0:	e3540007 	cmp	r4, #7
    dee4:	e88a00c0 	stm	r10, {r6, r7}
    dee8:	e58d50a4 	str	r5, [sp, #164]	; 0xa4
    deec:	e58d40a0 	str	r4, [sp, #160]	; 0xa0
    def0:	d28aa008 	addle	r10, r10, #8
    def4:	da000008 	ble	df1c <_svfprintf_r+0x1c34>
    def8:	e59d0040 	ldr	r0, [sp, #64]	; 0x40
    defc:	e59d1030 	ldr	r1, [sp, #48]	; 0x30
    df00:	e28d209c 	add	r2, sp, #156	; 0x9c
    df04:	eb000b1c 	bl	10b7c <__ssprint_r>
    df08:	e3500000 	cmp	r0, #0
    df0c:	1afff9ba 	bne	c5fc <_svfprintf_r+0x314>
    df10:	e28d40a0 	add	r4, sp, #160	; 0xa0
    df14:	e8940030 	ldm	r4, {r4, r5}
    df18:	e28da0d0 	add	r10, sp, #208	; 0xd0
    df1c:	e2844001 	add	r4, r4, #1
    df20:	e59dc04c 	ldr	r12, [sp, #76]	; 0x4c
    df24:	eafffc1d 	b	cfa0 <_svfprintf_r+0xcb8>
    df28:	e59d0040 	ldr	r0, [sp, #64]	; 0x40
    df2c:	e59d1030 	ldr	r1, [sp, #48]	; 0x30
    df30:	e28d209c 	add	r2, sp, #156	; 0x9c
    df34:	eb000b10 	bl	10b7c <__ssprint_r>
    df38:	e3500000 	cmp	r0, #0
    df3c:	1afff9ae 	bne	c5fc <_svfprintf_r+0x314>
    df40:	e28d40a0 	add	r4, sp, #160	; 0xa0
    df44:	e59d7080 	ldr	r7, [sp, #128]	; 0x80
    df48:	e8940030 	ldm	r4, {r4, r5}
    df4c:	e28da0d0 	add	r10, sp, #208	; 0xd0
    df50:	eafffefa 	b	db40 <_svfprintf_r+0x1858>
    df54:	ebffccbf 	bl	1258 <strlen>
    df58:	e58d4044 	str	r4, [sp, #68]	; 0x44
    df5c:	e58d0038 	str	r0, [sp, #56]	; 0x38
    df60:	e1c04fc0 	bic	r4, r0, r0, asr #31
    df64:	eaffff18 	b	dbcc <_svfprintf_r+0x18e4>
    df68:	e59d0040 	ldr	r0, [sp, #64]	; 0x40
    df6c:	e59d1030 	ldr	r1, [sp, #48]	; 0x30
    df70:	e28d209c 	add	r2, sp, #156	; 0x9c
    df74:	eb000b00 	bl	10b7c <__ssprint_r>
    df78:	e3500000 	cmp	r0, #0
    df7c:	1afff99e 	bne	c5fc <_svfprintf_r+0x314>
    df80:	e59d50a4 	ldr	r5, [sp, #164]	; 0xa4
    df84:	e28da0d0 	add	r10, sp, #208	; 0xd0
    df88:	eafffd65 	b	d524 <_svfprintf_r+0x123c>
    df8c:	e59d0040 	ldr	r0, [sp, #64]	; 0x40
    df90:	e59d1030 	ldr	r1, [sp, #48]	; 0x30
    df94:	e28d209c 	add	r2, sp, #156	; 0x9c
    df98:	eb000af7 	bl	10b7c <__ssprint_r>
    df9c:	e3500000 	cmp	r0, #0
    dfa0:	1afff995 	bne	c5fc <_svfprintf_r+0x314>
    dfa4:	e59d3080 	ldr	r3, [sp, #128]	; 0x80
    dfa8:	e59dc04c 	ldr	r12, [sp, #76]	; 0x4c
    dfac:	e59d50a4 	ldr	r5, [sp, #164]	; 0xa4
    dfb0:	e063300c 	rsb	r3, r3, r12
    dfb4:	e28da0d0 	add	r10, sp, #208	; 0xd0
    dfb8:	eafffe06 	b	d7d8 <_svfprintf_r+0x14f0>
    dfbc:	e3560006 	cmp	r6, #6
    dfc0:	23a06006 	movcs	r6, #6
    dfc4:	e1c64fc6 	bic	r4, r6, r6, asr #31
    dfc8:	e58d6038 	str	r6, [sp, #56]	; 0x38
    dfcc:	e58d4028 	str	r4, [sp, #40]	; 0x28
    dfd0:	e58d5048 	str	r5, [sp, #72]	; 0x48
    dfd4:	e51f87b0 	ldr	r8, [pc, #-1968]	; d82c <_svfprintf_r+0x1544>
    dfd8:	eafffaa1 	b	ca64 <_svfprintf_r+0x77c>
    dfdc:	e59dc03c 	ldr	r12, [sp, #60]	; 0x3c
    dfe0:	e5dd307b 	ldrb	r3, [sp, #123]	; 0x7b
    dfe4:	e58dc020 	str	r12, [sp, #32]
    dfe8:	eafff9fb 	b	c7dc <_svfprintf_r+0x4f4>
    dfec:	e59d3088 	ldr	r3, [sp, #136]	; 0x88
    dff0:	e0603003 	rsb	r3, r0, r3
    dff4:	e58d304c 	str	r3, [sp, #76]	; 0x4c
    dff8:	e59d1080 	ldr	r1, [sp, #128]	; 0x80
    dffc:	e3710003 	cmn	r1, #3
    e000:	e1a03001 	mov	r3, r1
    e004:	ba000001 	blt	e010 <_svfprintf_r+0x1d28>
    e008:	e1560001 	cmp	r6, r1
    e00c:	aaffff5c 	bge	dd84 <_svfprintf_r+0x1a9c>
    e010:	e2477002 	sub	r7, r7, #2
    e014:	e2411001 	sub	r1, r1, #1
    e018:	e3510000 	cmp	r1, #0
    e01c:	e58d1080 	str	r1, [sp, #128]	; 0x80
    e020:	b2611000 	rsblt	r1, r1, #0
    e024:	b3a0302d 	movlt	r3, #45	; 0x2d
    e028:	a3a0302b 	movge	r3, #43	; 0x2b
    e02c:	e3510009 	cmp	r1, #9
    e030:	e5cd708c 	strb	r7, [sp, #140]	; 0x8c
    e034:	e5cd308d 	strb	r3, [sp, #141]	; 0x8d
    e038:	ca000033 	bgt	e10c <_svfprintf_r+0x1e24>
    e03c:	e2811030 	add	r1, r1, #48	; 0x30
    e040:	e3a03030 	mov	r3, #48	; 0x30
    e044:	e5cd108f 	strb	r1, [sp, #143]	; 0x8f
    e048:	e5cd308e 	strb	r3, [sp, #142]	; 0x8e
    e04c:	e28d3090 	add	r3, sp, #144	; 0x90
    e050:	e59d404c 	ldr	r4, [sp, #76]	; 0x4c
    e054:	e28d208c 	add	r2, sp, #140	; 0x8c
    e058:	e0622003 	rsb	r2, r2, r3
    e05c:	e084c002 	add	r12, r4, r2
    e060:	e3540001 	cmp	r4, #1
    e064:	e58d2068 	str	r2, [sp, #104]	; 0x68
    e068:	e58dc038 	str	r12, [sp, #56]	; 0x38
    e06c:	da000066 	ble	e20c <_svfprintf_r+0x1f24>
    e070:	e59d3038 	ldr	r3, [sp, #56]	; 0x38
    e074:	e2833001 	add	r3, r3, #1
    e078:	e1c34fc3 	bic	r4, r3, r3, asr #31
    e07c:	e3a0c000 	mov	r12, #0
    e080:	e58d3038 	str	r3, [sp, #56]	; 0x38
    e084:	e58d4028 	str	r4, [sp, #40]	; 0x28
    e088:	e58dc054 	str	r12, [sp, #84]	; 0x54
    e08c:	eaffff4a 	b	ddbc <_svfprintf_r+0x1ad4>
    e090:	e1c6cfc6 	bic	r12, r6, r6, asr #31
    e094:	e58d0044 	str	r0, [sp, #68]	; 0x44
    e098:	e58dc028 	str	r12, [sp, #40]	; 0x28
    e09c:	e5dd307b 	ldrb	r3, [sp, #123]	; 0x7b
    e0a0:	e58d5048 	str	r5, [sp, #72]	; 0x48
    e0a4:	e58d6038 	str	r6, [sp, #56]	; 0x38
    e0a8:	e58d0054 	str	r0, [sp, #84]	; 0x54
    e0ac:	eafff9ca 	b	c7dc <_svfprintf_r+0x4f4>
    e0b0:	e3a01002 	mov	r1, #2
    e0b4:	eaffff00 	b	dcbc <_svfprintf_r+0x19d4>
    e0b8:	e3530000 	cmp	r3, #0
    e0bc:	e59d404c 	ldr	r4, [sp, #76]	; 0x4c
    e0c0:	d2632002 	rsble	r2, r3, #2
    e0c4:	c3a02001 	movgt	r2, #1
    e0c8:	e0822004 	add	r2, r2, r4
    e0cc:	e1c2cfc2 	bic	r12, r2, r2, asr #31
    e0d0:	e58d2038 	str	r2, [sp, #56]	; 0x38
    e0d4:	e58dc028 	str	r12, [sp, #40]	; 0x28
    e0d8:	e3a07067 	mov	r7, #103	; 0x67
    e0dc:	eaffff35 	b	ddb8 <_svfprintf_r+0x1ad0>
    e0e0:	e3530000 	cmp	r3, #0
    e0e4:	da00003f 	ble	e1e8 <_svfprintf_r+0x1f00>
    e0e8:	e3560000 	cmp	r6, #0
    e0ec:	1a00002e 	bne	e1ac <_svfprintf_r+0x1ec4>
    e0f0:	e59d4020 	ldr	r4, [sp, #32]
    e0f4:	e3140001 	tst	r4, #1
    e0f8:	1a00002b 	bne	e1ac <_svfprintf_r+0x1ec4>
    e0fc:	e1c3cfc3 	bic	r12, r3, r3, asr #31
    e100:	e58dc028 	str	r12, [sp, #40]	; 0x28
    e104:	e58d3038 	str	r3, [sp, #56]	; 0x38
    e108:	eaffff2a 	b	ddb8 <_svfprintf_r+0x1ad0>
    e10c:	e28d309a 	add	r3, sp, #154	; 0x9a
    e110:	e51f28e8 	ldr	r2, [pc, #-2280]	; d830 <_svfprintf_r+0x1548>
    e114:	e0c04192 	smull	r4, r0, r2, r1
    e118:	e1a02fc1 	asr	r2, r1, #31
    e11c:	e0622140 	rsb	r2, r2, r0, asr #2
    e120:	e0820102 	add	r0, r2, r2, lsl #2
    e124:	e0410080 	sub	r0, r1, r0, lsl #1
    e128:	e1a01002 	mov	r1, r2
    e12c:	e3510009 	cmp	r1, #9
    e130:	e1a02003 	mov	r2, r3
    e134:	e2803030 	add	r3, r0, #48	; 0x30
    e138:	e5c23000 	strb	r3, [r2]
    e13c:	e2423001 	sub	r3, r2, #1
    e140:	cafffff2 	bgt	e110 <_svfprintf_r+0x1e28>
    e144:	e28dc09b 	add	r12, sp, #155	; 0x9b
    e148:	e2811030 	add	r1, r1, #48	; 0x30
    e14c:	e15c0003 	cmp	r12, r3
    e150:	e5421001 	strb	r1, [r2, #-1]
    e154:	9a000040 	bls	e25c <_svfprintf_r+0x1f74>
    e158:	e28d008d 	add	r0, sp, #141	; 0x8d
    e15c:	e1a03002 	mov	r3, r2
    e160:	ea000000 	b	e168 <_svfprintf_r+0x1e80>
    e164:	e4d31001 	ldrb	r1, [r3], #1
    e168:	e153000c 	cmp	r3, r12
    e16c:	e5e01001 	strb	r1, [r0, #1]!
    e170:	1afffffb 	bne	e164 <_svfprintf_r+0x1e7c>
    e174:	e28dce11 	add	r12, sp, #272	; 0x110
    e178:	e062308c 	rsb	r3, r2, r12, lsl #1
    e17c:	e24330f6 	sub	r3, r3, #246	; 0xf6
    e180:	eaffffb2 	b	e050 <_svfprintf_r+0x1d68>
    e184:	e3a03000 	mov	r3, #0
    e188:	e1a00009 	mov	r0, r9
    e18c:	e1a01005 	mov	r1, r5
    e190:	e3a02000 	mov	r2, #0
    e194:	eb001039 	bl	12280 <__aeabi_dcmpeq>
    e198:	e3500000 	cmp	r0, #0
    e19c:	02663001 	rsbeq	r3, r6, #1
    e1a0:	058d3080 	streq	r3, [sp, #128]	; 0x80
    e1a4:	0afffedc 	beq	dd1c <_svfprintf_r+0x1a34>
    e1a8:	eafffeda 	b	dd18 <_svfprintf_r+0x1a30>
    e1ac:	e2866001 	add	r6, r6, #1
    e1b0:	e0836006 	add	r6, r3, r6
    e1b4:	e1c64fc6 	bic	r4, r6, r6, asr #31
    e1b8:	e58d6038 	str	r6, [sp, #56]	; 0x38
    e1bc:	e58d4028 	str	r4, [sp, #40]	; 0x28
    e1c0:	eafffefc 	b	ddb8 <_svfprintf_r+0x1ad0>
    e1c4:	e59d4048 	ldr	r4, [sp, #72]	; 0x48
    e1c8:	e5946000 	ldr	r6, [r4]
    e1cc:	e2840004 	add	r0, r4, #4
    e1d0:	e3560000 	cmp	r6, #0
    e1d4:	e5d37001 	ldrb	r7, [r3, #1]
    e1d8:	e58d0048 	str	r0, [sp, #72]	; 0x48
    e1dc:	e1a0300c 	mov	r3, r12
    e1e0:	b3e06000 	mvnlt	r6, #0
    e1e4:	eafff88f 	b	c428 <_svfprintf_r+0x140>
    e1e8:	e3560000 	cmp	r6, #0
    e1ec:	1a00000d 	bne	e228 <_svfprintf_r+0x1f40>
    e1f0:	e59dc020 	ldr	r12, [sp, #32]
    e1f4:	e31c0001 	tst	r12, #1
    e1f8:	1a00000a 	bne	e228 <_svfprintf_r+0x1f40>
    e1fc:	e3a04001 	mov	r4, #1
    e200:	e58d4028 	str	r4, [sp, #40]	; 0x28
    e204:	e58d4038 	str	r4, [sp, #56]	; 0x38
    e208:	eafffeea 	b	ddb8 <_svfprintf_r+0x1ad0>
    e20c:	e59d4020 	ldr	r4, [sp, #32]
    e210:	e2143001 	ands	r3, r4, #1
    e214:	1affff95 	bne	e070 <_svfprintf_r+0x1d88>
    e218:	e1cccfcc 	bic	r12, r12, r12, asr #31
    e21c:	e58dc028 	str	r12, [sp, #40]	; 0x28
    e220:	e58d3054 	str	r3, [sp, #84]	; 0x54
    e224:	eafffee4 	b	ddbc <_svfprintf_r+0x1ad4>
    e228:	e2866002 	add	r6, r6, #2
    e22c:	e1c64fc6 	bic	r4, r6, r6, asr #31
    e230:	e58d6038 	str	r6, [sp, #56]	; 0x38
    e234:	e58d4028 	str	r4, [sp, #40]	; 0x28
    e238:	eafffede 	b	ddb8 <_svfprintf_r+0x1ad0>
    e23c:	e59d4040 	ldr	r4, [sp, #64]	; 0x40
    e240:	e3a0300c 	mov	r3, #12
    e244:	e3e0c000 	mvn	r12, #0
    e248:	e5843000 	str	r3, [r4]
    e24c:	e58dc02c 	str	r12, [sp, #44]	; 0x2c
    e250:	eafff8ef 	b	c614 <_svfprintf_r+0x32c>
    e254:	e59d1080 	ldr	r1, [sp, #128]	; 0x80
    e258:	eaffff6d 	b	e014 <_svfprintf_r+0x1d2c>
    e25c:	e28d308e 	add	r3, sp, #142	; 0x8e
    e260:	eaffff7a 	b	e050 <_svfprintf_r+0x1d68>

0000e264 <__submore>:
    e264:	e92d41f0 	push	{r4, r5, r6, r7, r8, lr}
    e268:	e1a04001 	mov	r4, r1
    e26c:	e5911030 	ldr	r1, [r1, #48]	; 0x30
    e270:	e2843040 	add	r3, r4, #64	; 0x40
    e274:	e1510003 	cmp	r1, r3
    e278:	0a000010 	beq	e2c0 <__submore+0x5c>
    e27c:	e5945034 	ldr	r5, [r4, #52]	; 0x34
    e280:	e1a07085 	lsl	r7, r5, #1
    e284:	e1a02007 	mov	r2, r7
    e288:	ebffecdc 	bl	9600 <_realloc_r>
    e28c:	e2506000 	subs	r6, r0, #0
    e290:	0a00001c 	beq	e308 <__submore+0xa4>
    e294:	e0868005 	add	r8, r6, r5
    e298:	e1a00008 	mov	r0, r8
    e29c:	e1a01006 	mov	r1, r6
    e2a0:	e1a02005 	mov	r2, r5
    e2a4:	ebffe86e 	bl	8464 <memcpy>
    e2a8:	e5848000 	str	r8, [r4]
    e2ac:	e5846030 	str	r6, [r4, #48]	; 0x30
    e2b0:	e5847034 	str	r7, [r4, #52]	; 0x34
    e2b4:	e3a00000 	mov	r0, #0
    e2b8:	e8bd41f0 	pop	{r4, r5, r6, r7, r8, lr}
    e2bc:	e12fff1e 	bx	lr
    e2c0:	e3a01b01 	mov	r1, #1024	; 0x400
    e2c4:	ebffe5e1 	bl	7a50 <_malloc_r>
    e2c8:	e3500000 	cmp	r0, #0
    e2cc:	0a00000d 	beq	e308 <__submore+0xa4>
    e2d0:	e5d43042 	ldrb	r3, [r4, #66]	; 0x42
    e2d4:	e3a02b01 	mov	r2, #1024	; 0x400
    e2d8:	e5840030 	str	r0, [r4, #48]	; 0x30
    e2dc:	e5842034 	str	r2, [r4, #52]	; 0x34
    e2e0:	e5c033ff 	strb	r3, [r0, #1023]	; 0x3ff
    e2e4:	e5d43041 	ldrb	r3, [r4, #65]	; 0x41
    e2e8:	e5c033fe 	strb	r3, [r0, #1022]	; 0x3fe
    e2ec:	e2803fff 	add	r3, r0, #1020	; 0x3fc
    e2f0:	e5d42040 	ldrb	r2, [r4, #64]	; 0x40
    e2f4:	e2833001 	add	r3, r3, #1
    e2f8:	e5c023fd 	strb	r2, [r0, #1021]	; 0x3fd
    e2fc:	e3a00000 	mov	r0, #0
    e300:	e5843000 	str	r3, [r4]
    e304:	eaffffeb 	b	e2b8 <__submore+0x54>
    e308:	e3e00000 	mvn	r0, #0
    e30c:	eaffffe9 	b	e2b8 <__submore+0x54>

0000e310 <_ungetc_r>:
    e310:	e3710001 	cmn	r1, #1
    e314:	e92d4070 	push	{r4, r5, r6, lr}
    e318:	e1a06001 	mov	r6, r1
    e31c:	e1a05000 	mov	r5, r0
    e320:	e1a04002 	mov	r4, r2
    e324:	0a00002d 	beq	e3e0 <_ungetc_r+0xd0>
    e328:	e3500000 	cmp	r0, #0
    e32c:	0a000002 	beq	e33c <_ungetc_r+0x2c>
    e330:	e5903038 	ldr	r3, [r0, #56]	; 0x38
    e334:	e3530000 	cmp	r3, #0
    e338:	0a00002a 	beq	e3e8 <_ungetc_r+0xd8>
    e33c:	e1d430bc 	ldrh	r3, [r4, #12]
    e340:	e3130a02 	tst	r3, #8192	; 0x2000
    e344:	05942064 	ldreq	r2, [r4, #100]	; 0x64
    e348:	03c22a02 	biceq	r2, r2, #8192	; 0x2000
    e34c:	05842064 	streq	r2, [r4, #100]	; 0x64
    e350:	e59f212c 	ldr	r2, [pc, #300]	; e484 <_ungetc_r+0x174>
    e354:	03833a02 	orreq	r3, r3, #8192	; 0x2000
    e358:	e0032002 	and	r2, r3, r2
    e35c:	e3130004 	tst	r3, #4
    e360:	e1a01003 	mov	r1, r3
    e364:	e1c420bc 	strh	r2, [r4, #12]
    e368:	1a000005 	bne	e384 <_ungetc_r+0x74>
    e36c:	e3130010 	tst	r3, #16
    e370:	0a00001a 	beq	e3e0 <_ungetc_r+0xd0>
    e374:	e3110008 	tst	r1, #8
    e378:	1a000032 	bne	e448 <_ungetc_r+0x138>
    e37c:	e3822004 	orr	r2, r2, #4
    e380:	e1c420bc 	strh	r2, [r4, #12]
    e384:	e5943030 	ldr	r3, [r4, #48]	; 0x30
    e388:	e3530000 	cmp	r3, #0
    e38c:	e20660ff 	and	r6, r6, #255	; 0xff
    e390:	0a000016 	beq	e3f0 <_ungetc_r+0xe0>
    e394:	e5942004 	ldr	r2, [r4, #4]
    e398:	e5943034 	ldr	r3, [r4, #52]	; 0x34
    e39c:	e1520003 	cmp	r2, r3
    e3a0:	aa000009 	bge	e3cc <_ungetc_r+0xbc>
    e3a4:	e5943000 	ldr	r3, [r4]
    e3a8:	e2432001 	sub	r2, r3, #1
    e3ac:	e5842000 	str	r2, [r4]
    e3b0:	e5436001 	strb	r6, [r3, #-1]
    e3b4:	e5943004 	ldr	r3, [r4, #4]
    e3b8:	e2833001 	add	r3, r3, #1
    e3bc:	e5843004 	str	r3, [r4, #4]
    e3c0:	e1a00006 	mov	r0, r6
    e3c4:	e8bd4070 	pop	{r4, r5, r6, lr}
    e3c8:	e12fff1e 	bx	lr
    e3cc:	e1a00005 	mov	r0, r5
    e3d0:	e1a01004 	mov	r1, r4
    e3d4:	ebffffa2 	bl	e264 <__submore>
    e3d8:	e3500000 	cmp	r0, #0
    e3dc:	0afffff0 	beq	e3a4 <_ungetc_r+0x94>
    e3e0:	e3e06000 	mvn	r6, #0
    e3e4:	eafffff5 	b	e3c0 <_ungetc_r+0xb0>
    e3e8:	ebffe1a2 	bl	6a78 <__sinit>
    e3ec:	eaffffd2 	b	e33c <_ungetc_r+0x2c>
    e3f0:	e5943010 	ldr	r3, [r4, #16]
    e3f4:	e3530000 	cmp	r3, #0
    e3f8:	e5942000 	ldr	r2, [r4]
    e3fc:	0a000004 	beq	e414 <_ungetc_r+0x104>
    e400:	e1530002 	cmp	r3, r2
    e404:	2a000002 	bcs	e414 <_ungetc_r+0x104>
    e408:	e5523001 	ldrb	r3, [r2, #-1]
    e40c:	e1530006 	cmp	r3, r6
    e410:	0a000016 	beq	e470 <_ungetc_r+0x160>
    e414:	e1a03004 	mov	r3, r4
    e418:	e5e36042 	strb	r6, [r3, #66]!	; 0x42
    e41c:	e5940004 	ldr	r0, [r4, #4]
    e420:	e2841040 	add	r1, r4, #64	; 0x40
    e424:	e5842038 	str	r2, [r4, #56]	; 0x38
    e428:	e5843000 	str	r3, [r4]
    e42c:	e3a02003 	mov	r2, #3
    e430:	e3a03001 	mov	r3, #1
    e434:	e584003c 	str	r0, [r4, #60]	; 0x3c
    e438:	e5841030 	str	r1, [r4, #48]	; 0x30
    e43c:	e5842034 	str	r2, [r4, #52]	; 0x34
    e440:	e5843004 	str	r3, [r4, #4]
    e444:	eaffffdd 	b	e3c0 <_ungetc_r+0xb0>
    e448:	e1a00005 	mov	r0, r5
    e44c:	e1a01004 	mov	r1, r4
    e450:	ebffe0ae 	bl	6710 <_fflush_r>
    e454:	e3500000 	cmp	r0, #0
    e458:	1affffe0 	bne	e3e0 <_ungetc_r+0xd0>
    e45c:	e1d420bc 	ldrh	r2, [r4, #12]
    e460:	e5840008 	str	r0, [r4, #8]
    e464:	e3c22008 	bic	r2, r2, #8
    e468:	e5840018 	str	r0, [r4, #24]
    e46c:	eaffffc2 	b	e37c <_ungetc_r+0x6c>
    e470:	e5943004 	ldr	r3, [r4, #4]
    e474:	e2422001 	sub	r2, r2, #1
    e478:	e2833001 	add	r3, r3, #1
    e47c:	e884000c 	stm	r4, {r2, r3}
    e480:	eaffffce 	b	e3c0 <_ungetc_r+0xb0>
    e484:	0000ffdf 	.word	0x0000ffdf

0000e488 <ungetc>:
    e488:	e1a02001 	mov	r2, r1
    e48c:	e59f100c 	ldr	r1, [pc, #12]	; e4a0 <ungetc+0x18>
    e490:	e1a03000 	mov	r3, r0
    e494:	e5910000 	ldr	r0, [r1]
    e498:	e1a01003 	mov	r1, r3
    e49c:	eaffff9b 	b	e310 <_ungetc_r>
    e4a0:	00013c00 	.word	0x00013c00

0000e4a4 <__sprint_r>:
    e4a4:	e5923008 	ldr	r3, [r2, #8]
    e4a8:	e3530000 	cmp	r3, #0
    e4ac:	e92d47f0 	push	{r4, r5, r6, r7, r8, r9, r10, lr}
    e4b0:	e1a07000 	mov	r7, r0
    e4b4:	e1a0a002 	mov	r10, r2
    e4b8:	e1a06001 	mov	r6, r1
    e4bc:	05823004 	streq	r3, [r2, #4]
    e4c0:	01a00003 	moveq	r0, r3
    e4c4:	0a000016 	beq	e524 <__sprint_r+0x80>
    e4c8:	e591c064 	ldr	r12, [r1, #100]	; 0x64
    e4cc:	e31c0a02 	tst	r12, #8192	; 0x2000
    e4d0:	0a00001d 	beq	e54c <__sprint_r+0xa8>
    e4d4:	e5929000 	ldr	r9, [r2]
    e4d8:	e2899008 	add	r9, r9, #8
    e4dc:	e9190120 	ldmdb	r9, {r5, r8}
    e4e0:	e1b08128 	lsrs	r8, r8, #2
    e4e4:	12455004 	subne	r5, r5, #4
    e4e8:	13a04000 	movne	r4, #0
    e4ec:	1a000002 	bne	e4fc <__sprint_r+0x58>
    e4f0:	ea00000e 	b	e530 <__sprint_r+0x8c>
    e4f4:	e1580004 	cmp	r8, r4
    e4f8:	0a00000b 	beq	e52c <__sprint_r+0x88>
    e4fc:	e1a00007 	mov	r0, r7
    e500:	e5b51004 	ldr	r1, [r5, #4]!
    e504:	e1a02006 	mov	r2, r6
    e508:	eb00051e 	bl	f988 <_fputwc_r>
    e50c:	e3700001 	cmn	r0, #1
    e510:	e2844001 	add	r4, r4, #1
    e514:	1afffff6 	bne	e4f4 <__sprint_r+0x50>
    e518:	e3a03000 	mov	r3, #0
    e51c:	e58a3008 	str	r3, [r10, #8]
    e520:	e58a3004 	str	r3, [r10, #4]
    e524:	e8bd47f0 	pop	{r4, r5, r6, r7, r8, r9, r10, lr}
    e528:	e12fff1e 	bx	lr
    e52c:	e59a3008 	ldr	r3, [r10, #8]
    e530:	e0433108 	sub	r3, r3, r8, lsl #2
    e534:	e3530000 	cmp	r3, #0
    e538:	e58a3008 	str	r3, [r10, #8]
    e53c:	e2899008 	add	r9, r9, #8
    e540:	1affffe5 	bne	e4dc <__sprint_r+0x38>
    e544:	e1a00003 	mov	r0, r3
    e548:	eafffff2 	b	e518 <__sprint_r+0x74>
    e54c:	ebffe335 	bl	7228 <__sfvwrite_r>
    e550:	e3a03000 	mov	r3, #0
    e554:	e58a3008 	str	r3, [r10, #8]
    e558:	e58a3004 	str	r3, [r10, #4]
    e55c:	eafffff0 	b	e524 <__sprint_r+0x80>

0000e560 <_vfiprintf_r>:
    e560:	e92d4ff0 	push	{r4, r5, r6, r7, r8, r9, r10, r11, lr}
    e564:	e24dde4e 	sub	sp, sp, #1248	; 0x4e0
    e568:	e24dd00c 	sub	sp, sp, #12
    e56c:	e2504000 	subs	r4, r0, #0
    e570:	e58d4014 	str	r4, [sp, #20]
    e574:	e1a0a001 	mov	r10, r1
    e578:	e1a04002 	mov	r4, r2
    e57c:	e58d301c 	str	r3, [sp, #28]
    e580:	0a000003 	beq	e594 <_vfiprintf_r+0x34>
    e584:	e5903038 	ldr	r3, [r0, #56]	; 0x38
    e588:	e3530000 	cmp	r3, #0
    e58c:	e1a05000 	mov	r5, r0
    e590:	0a000393 	beq	f3e4 <_vfiprintf_r+0xe84>
    e594:	e1da80bc 	ldrh	r8, [r10, #12]
    e598:	e3180a02 	tst	r8, #8192	; 0x2000
    e59c:	059a3064 	ldreq	r3, [r10, #100]	; 0x64
    e5a0:	03888a02 	orreq	r8, r8, #8192	; 0x2000
    e5a4:	03c33a02 	biceq	r3, r3, #8192	; 0x2000
    e5a8:	01ca80bc 	strheq	r8, [r10, #12]
    e5ac:	058a3064 	streq	r3, [r10, #100]	; 0x64
    e5b0:	e3180008 	tst	r8, #8
    e5b4:	0a000332 	beq	f284 <_vfiprintf_r+0xd24>
    e5b8:	e59a3010 	ldr	r3, [r10, #16]
    e5bc:	e3530000 	cmp	r3, #0
    e5c0:	0a00032f 	beq	f284 <_vfiprintf_r+0xd24>
    e5c4:	e208301a 	and	r3, r8, #26
    e5c8:	e353000a 	cmp	r3, #10
    e5cc:	0a000335 	beq	f2a8 <_vfiprintf_r+0xd48>
    e5d0:	e3a03000 	mov	r3, #0
    e5d4:	e28d5080 	add	r5, sp, #128	; 0x80
    e5d8:	e28d607f 	add	r6, sp, #127	; 0x7f
    e5dc:	e28d70e8 	add	r7, sp, #232	; 0xe8
    e5e0:	e1a0b004 	mov	r11, r4
    e5e4:	e58d3034 	str	r3, [sp, #52]	; 0x34
    e5e8:	e0664005 	rsb	r4, r6, r5
    e5ec:	e58d502c 	str	r5, [sp, #44]	; 0x2c
    e5f0:	e58d6030 	str	r6, [sp, #48]	; 0x30
    e5f4:	e58d704c 	str	r7, [sp, #76]	; 0x4c
    e5f8:	e58d3054 	str	r3, [sp, #84]	; 0x54
    e5fc:	e58d3050 	str	r3, [sp, #80]	; 0x50
    e600:	e58d300c 	str	r3, [sp, #12]
    e604:	e58d403c 	str	r4, [sp, #60]	; 0x3c
    e608:	e1a04007 	mov	r4, r7
    e60c:	e5db3000 	ldrb	r3, [r11]
    e610:	e3530025 	cmp	r3, #37	; 0x25
    e614:	13530000 	cmpne	r3, #0
    e618:	0a0002a0 	beq	f0a0 <_vfiprintf_r+0xb40>
    e61c:	e28b3001 	add	r3, r11, #1
    e620:	e1a05003 	mov	r5, r3
    e624:	e5d33000 	ldrb	r3, [r3]
    e628:	e3530025 	cmp	r3, #37	; 0x25
    e62c:	13530000 	cmpne	r3, #0
    e630:	e2853001 	add	r3, r5, #1
    e634:	1afffff9 	bne	e620 <_vfiprintf_r+0xc0>
    e638:	e055600b 	subs	r6, r5, r11
    e63c:	0a00000d 	beq	e678 <_vfiprintf_r+0x118>
    e640:	e59d2050 	ldr	r2, [sp, #80]	; 0x50
    e644:	e59d1054 	ldr	r1, [sp, #84]	; 0x54
    e648:	e2822001 	add	r2, r2, #1
    e64c:	e0811006 	add	r1, r1, r6
    e650:	e3520007 	cmp	r2, #7
    e654:	e584b000 	str	r11, [r4]
    e658:	e5846004 	str	r6, [r4, #4]
    e65c:	e58d1054 	str	r1, [sp, #84]	; 0x54
    e660:	e58d2050 	str	r2, [sp, #80]	; 0x50
    e664:	d2844008 	addle	r4, r4, #8
    e668:	ca00033e 	bgt	f368 <_vfiprintf_r+0xe08>
    e66c:	e59db00c 	ldr	r11, [sp, #12]
    e670:	e08bb006 	add	r11, r11, r6
    e674:	e58db00c 	str	r11, [sp, #12]
    e678:	e5d53000 	ldrb	r3, [r5]
    e67c:	e3530000 	cmp	r3, #0
    e680:	0a00029c 	beq	f0f8 <_vfiprintf_r+0xb98>
    e684:	e3a03000 	mov	r3, #0
    e688:	e1a01003 	mov	r1, r3
    e68c:	e5cd3047 	strb	r3, [sp, #71]	; 0x47
    e690:	e58d1018 	str	r1, [sp, #24]
    e694:	e5d53001 	ldrb	r3, [r5, #1]
    e698:	e285b001 	add	r11, r5, #1
    e69c:	e3e0c000 	mvn	r12, #0
    e6a0:	e1a06001 	mov	r6, r1
    e6a4:	e28bb001 	add	r11, r11, #1
    e6a8:	e2432020 	sub	r2, r3, #32
    e6ac:	e3520058 	cmp	r2, #88	; 0x58
    e6b0:	979ff102 	ldrls	pc, [pc, r2, lsl #2]
    e6b4:	ea000187 	b	ecd8 <_vfiprintf_r+0x778>
    e6b8:	0000ed60 	.word	0x0000ed60
    e6bc:	0000ecd8 	.word	0x0000ecd8
    e6c0:	0000ecd8 	.word	0x0000ecd8
    e6c4:	0000ed54 	.word	0x0000ed54
    e6c8:	0000ecd8 	.word	0x0000ecd8
    e6cc:	0000ecd8 	.word	0x0000ecd8
    e6d0:	0000ecd8 	.word	0x0000ecd8
    e6d4:	0000ecd8 	.word	0x0000ecd8
    e6d8:	0000ecd8 	.word	0x0000ecd8
    e6dc:	0000ecd8 	.word	0x0000ecd8
    e6e0:	0000e934 	.word	0x0000e934
    e6e4:	0000ed48 	.word	0x0000ed48
    e6e8:	0000ecd8 	.word	0x0000ecd8
    e6ec:	0000e960 	.word	0x0000e960
    e6f0:	0000edac 	.word	0x0000edac
    e6f4:	0000ecd8 	.word	0x0000ecd8
    e6f8:	0000eda0 	.word	0x0000eda0
    e6fc:	0000ed70 	.word	0x0000ed70
    e700:	0000ed70 	.word	0x0000ed70
    e704:	0000ed70 	.word	0x0000ed70
    e708:	0000ed70 	.word	0x0000ed70
    e70c:	0000ed70 	.word	0x0000ed70
    e710:	0000ed70 	.word	0x0000ed70
    e714:	0000ed70 	.word	0x0000ed70
    e718:	0000ed70 	.word	0x0000ed70
    e71c:	0000ed70 	.word	0x0000ed70
    e720:	0000ecd8 	.word	0x0000ecd8
    e724:	0000ecd8 	.word	0x0000ecd8
    e728:	0000ecd8 	.word	0x0000ecd8
    e72c:	0000ecd8 	.word	0x0000ecd8
    e730:	0000ecd8 	.word	0x0000ecd8
    e734:	0000ecd8 	.word	0x0000ecd8
    e738:	0000ecd8 	.word	0x0000ecd8
    e73c:	0000ecd8 	.word	0x0000ecd8
    e740:	0000ecd8 	.word	0x0000ecd8
    e744:	0000ecd8 	.word	0x0000ecd8
    e748:	0000ec94 	.word	0x0000ec94
    e74c:	0000ecd8 	.word	0x0000ecd8
    e750:	0000ecd8 	.word	0x0000ecd8
    e754:	0000ecd8 	.word	0x0000ecd8
    e758:	0000ecd8 	.word	0x0000ecd8
    e75c:	0000ecd8 	.word	0x0000ecd8
    e760:	0000ecd8 	.word	0x0000ecd8
    e764:	0000ecd8 	.word	0x0000ecd8
    e768:	0000ecd8 	.word	0x0000ecd8
    e76c:	0000ecd8 	.word	0x0000ecd8
    e770:	0000ecd8 	.word	0x0000ecd8
    e774:	0000e8fc 	.word	0x0000e8fc
    e778:	0000ecd8 	.word	0x0000ecd8
    e77c:	0000ecd8 	.word	0x0000ecd8
    e780:	0000ecd8 	.word	0x0000ecd8
    e784:	0000ecd8 	.word	0x0000ecd8
    e788:	0000ecd8 	.word	0x0000ecd8
    e78c:	0000e81c 	.word	0x0000e81c
    e790:	0000ecd8 	.word	0x0000ecd8
    e794:	0000ecd8 	.word	0x0000ecd8
    e798:	0000ec4c 	.word	0x0000ec4c
    e79c:	0000ecd8 	.word	0x0000ecd8
    e7a0:	0000ecd8 	.word	0x0000ecd8
    e7a4:	0000ecd8 	.word	0x0000ecd8
    e7a8:	0000ecd8 	.word	0x0000ecd8
    e7ac:	0000ecd8 	.word	0x0000ecd8
    e7b0:	0000ecd8 	.word	0x0000ecd8
    e7b4:	0000ecd8 	.word	0x0000ecd8
    e7b8:	0000ecd8 	.word	0x0000ecd8
    e7bc:	0000ecd8 	.word	0x0000ecd8
    e7c0:	0000ecd8 	.word	0x0000ecd8
    e7c4:	0000eaec 	.word	0x0000eaec
    e7c8:	0000ea9c 	.word	0x0000ea9c
    e7cc:	0000ecd8 	.word	0x0000ecd8
    e7d0:	0000ecd8 	.word	0x0000ecd8
    e7d4:	0000ecd8 	.word	0x0000ecd8
    e7d8:	0000ea90 	.word	0x0000ea90
    e7dc:	0000ea9c 	.word	0x0000ea9c
    e7e0:	0000ecd8 	.word	0x0000ecd8
    e7e4:	0000ecd8 	.word	0x0000ecd8
    e7e8:	0000ea70 	.word	0x0000ea70
    e7ec:	0000ecd8 	.word	0x0000ecd8
    e7f0:	0000e96c 	.word	0x0000e96c
    e7f4:	0000e900 	.word	0x0000e900
    e7f8:	0000e9b0 	.word	0x0000e9b0
    e7fc:	0000e9a4 	.word	0x0000e9a4
    e800:	0000ecd8 	.word	0x0000ecd8
    e804:	0000e9f4 	.word	0x0000e9f4
    e808:	0000ecd8 	.word	0x0000ecd8
    e80c:	0000e820 	.word	0x0000e820
    e810:	0000ecd8 	.word	0x0000ecd8
    e814:	0000ecd8 	.word	0x0000ecd8
    e818:	0000ed08 	.word	0x0000ed08
    e81c:	e3866010 	orr	r6, r6, #16
    e820:	e3160020 	tst	r6, #32
    e824:	0a000329 	beq	f4d0 <_vfiprintf_r+0xf70>
    e828:	e59d501c 	ldr	r5, [sp, #28]
    e82c:	e2853007 	add	r3, r5, #7
    e830:	e3c33007 	bic	r3, r3, #7
    e834:	e8930300 	ldm	r3, {r8, r9}
    e838:	e2833008 	add	r3, r3, #8
    e83c:	e1987009 	orrs	r7, r8, r9
    e840:	e58d301c 	str	r3, [sp, #28]
    e844:	03a02000 	moveq	r2, #0
    e848:	13a02001 	movne	r2, #1
    e84c:	e3a03001 	mov	r3, #1
    e850:	e3a05000 	mov	r5, #0
    e854:	e5cd5047 	strb	r5, [sp, #71]	; 0x47
    e858:	e35c0000 	cmp	r12, #0
    e85c:	a3c66080 	bicge	r6, r6, #128	; 0x80
    e860:	e35c0000 	cmp	r12, #0
    e864:	13822001 	orrne	r2, r2, #1
    e868:	e3520000 	cmp	r2, #0
    e86c:	0a00020d 	beq	f0a8 <_vfiprintf_r+0xb48>
    e870:	e3530001 	cmp	r3, #1
    e874:	0a0002f7 	beq	f458 <_vfiprintf_r+0xef8>
    e878:	e3530002 	cmp	r3, #2
    e87c:	e59d0030 	ldr	r0, [sp, #48]	; 0x30
    e880:	0a0002dd 	beq	f3fc <_vfiprintf_r+0xe9c>
    e884:	e58d6004 	str	r6, [sp, #4]
    e888:	e1a011a8 	lsr	r1, r8, #3
    e88c:	e3a06007 	mov	r6, #7
    e890:	e1811e89 	orr	r1, r1, r9, lsl #29
    e894:	e0082006 	and	r2, r8, r6
    e898:	e1a031a9 	lsr	r3, r9, #3
    e89c:	e1a09003 	mov	r9, r3
    e8a0:	e1a08001 	mov	r8, r1
    e8a4:	e2822030 	add	r2, r2, #48	; 0x30
    e8a8:	e20220ff 	and	r2, r2, #255	; 0xff
    e8ac:	e1987009 	orrs	r7, r8, r9
    e8b0:	e1a03000 	mov	r3, r0
    e8b4:	e5c02000 	strb	r2, [r0]
    e8b8:	e2400001 	sub	r0, r0, #1
    e8bc:	1afffff1 	bne	e888 <_vfiprintf_r+0x328>
    e8c0:	e59d6004 	ldr	r6, [sp, #4]
    e8c4:	e3160001 	tst	r6, #1
    e8c8:	e58d3024 	str	r3, [sp, #36]	; 0x24
    e8cc:	0a000336 	beq	f5ac <_vfiprintf_r+0x104c>
    e8d0:	e3520030 	cmp	r2, #48	; 0x30
    e8d4:	13a02030 	movne	r2, #48	; 0x30
    e8d8:	059d302c 	ldreq	r3, [sp, #44]	; 0x2c
    e8dc:	15432001 	strbne	r2, [r3, #-1]
    e8e0:	059d7024 	ldreq	r7, [sp, #36]	; 0x24
    e8e4:	159d302c 	ldrne	r3, [sp, #44]	; 0x2c
    e8e8:	00673003 	rsbeq	r3, r7, r3
    e8ec:	10603003 	rsbne	r3, r0, r3
    e8f0:	158d0024 	strne	r0, [sp, #36]	; 0x24
    e8f4:	e58d3008 	str	r3, [sp, #8]
    e8f8:	ea0001f4 	b	f0d0 <_vfiprintf_r+0xb70>
    e8fc:	e3866010 	orr	r6, r6, #16
    e900:	e2163020 	ands	r3, r6, #32
    e904:	0a0002ff 	beq	f508 <_vfiprintf_r+0xfa8>
    e908:	e59d501c 	ldr	r5, [sp, #28]
    e90c:	e2853007 	add	r3, r5, #7
    e910:	e3c33007 	bic	r3, r3, #7
    e914:	e8930300 	ldm	r3, {r8, r9}
    e918:	e2833008 	add	r3, r3, #8
    e91c:	e1987009 	orrs	r7, r8, r9
    e920:	e58d301c 	str	r3, [sp, #28]
    e924:	03a02000 	moveq	r2, #0
    e928:	13a02001 	movne	r2, #1
    e92c:	e3a03000 	mov	r3, #0
    e930:	eaffffc6 	b	e850 <_vfiprintf_r+0x2f0>
    e934:	e59d701c 	ldr	r7, [sp, #28]
    e938:	e5977000 	ldr	r7, [r7]
    e93c:	e59d501c 	ldr	r5, [sp, #28]
    e940:	e3570000 	cmp	r7, #0
    e944:	e58d7018 	str	r7, [sp, #24]
    e948:	e2852004 	add	r2, r5, #4
    e94c:	aa000304 	bge	f564 <_vfiprintf_r+0x1004>
    e950:	e59d7018 	ldr	r7, [sp, #24]
    e954:	e2677000 	rsb	r7, r7, #0
    e958:	e58d7018 	str	r7, [sp, #24]
    e95c:	e58d201c 	str	r2, [sp, #28]
    e960:	e3866004 	orr	r6, r6, #4
    e964:	e5db3000 	ldrb	r3, [r11]
    e968:	eaffff4d 	b	e6a4 <_vfiprintf_r+0x144>
    e96c:	e3160020 	tst	r6, #32
    e970:	e5cd1047 	strb	r1, [sp, #71]	; 0x47
    e974:	1a00033e 	bne	f674 <_vfiprintf_r+0x1114>
    e978:	e3160010 	tst	r6, #16
    e97c:	1a000345 	bne	f698 <_vfiprintf_r+0x1138>
    e980:	e3160040 	tst	r6, #64	; 0x40
    e984:	0a000343 	beq	f698 <_vfiprintf_r+0x1138>
    e988:	e59dc01c 	ldr	r12, [sp, #28]
    e98c:	e59d500c 	ldr	r5, [sp, #12]
    e990:	e59c3000 	ldr	r3, [r12]
    e994:	e28cc004 	add	r12, r12, #4
    e998:	e58dc01c 	str	r12, [sp, #28]
    e99c:	e1c350b0 	strh	r5, [r3]
    e9a0:	eaffff19 	b	e60c <_vfiprintf_r+0xac>
    e9a4:	e3866020 	orr	r6, r6, #32
    e9a8:	e5db3000 	ldrb	r3, [r11]
    e9ac:	eaffff3c 	b	e6a4 <_vfiprintf_r+0x144>
    e9b0:	e59d301c 	ldr	r3, [sp, #28]
    e9b4:	e5932000 	ldr	r2, [r3]
    e9b8:	e2837004 	add	r7, r3, #4
    e9bc:	e3a09000 	mov	r9, #0
    e9c0:	e3a03030 	mov	r3, #48	; 0x30
    e9c4:	e59f5d58 	ldr	r5, [pc, #3416]	; f724 <_vfiprintf_r+0x11c4>
    e9c8:	e1a08002 	mov	r8, r2
    e9cc:	e5cd3048 	strb	r3, [sp, #72]	; 0x48
    e9d0:	e0522009 	subs	r2, r2, r9
    e9d4:	e3a03078 	mov	r3, #120	; 0x78
    e9d8:	e5cd3049 	strb	r3, [sp, #73]	; 0x49
    e9dc:	e58d701c 	str	r7, [sp, #28]
    e9e0:	e3866002 	orr	r6, r6, #2
    e9e4:	13a02001 	movne	r2, #1
    e9e8:	e58d5034 	str	r5, [sp, #52]	; 0x34
    e9ec:	e3a03002 	mov	r3, #2
    e9f0:	eaffff96 	b	e850 <_vfiprintf_r+0x2f0>
    e9f4:	e59d701c 	ldr	r7, [sp, #28]
    e9f8:	e5977000 	ldr	r7, [r7]
    e9fc:	e58d7024 	str	r7, [sp, #36]	; 0x24
    ea00:	e59d3024 	ldr	r3, [sp, #36]	; 0x24
    ea04:	e3a07000 	mov	r7, #0
    ea08:	e59d501c 	ldr	r5, [sp, #28]
    ea0c:	e1530007 	cmp	r3, r7
    ea10:	e5cd7047 	strb	r7, [sp, #71]	; 0x47
    ea14:	e2858004 	add	r8, r5, #4
    ea18:	0a00032a 	beq	f6c8 <_vfiprintf_r+0x1168>
    ea1c:	e35c0000 	cmp	r12, #0
    ea20:	e59d0024 	ldr	r0, [sp, #36]	; 0x24
    ea24:	ba000322 	blt	f6b4 <_vfiprintf_r+0x1154>
    ea28:	e1a0200c 	mov	r2, r12
    ea2c:	e1a01007 	mov	r1, r7
    ea30:	e58dc000 	str	r12, [sp]
    ea34:	ebffe643 	bl	8348 <memchr>
    ea38:	e3500000 	cmp	r0, #0
    ea3c:	e59dc000 	ldr	r12, [sp]
    ea40:	0a000329 	beq	f6ec <_vfiprintf_r+0x118c>
    ea44:	e59d3024 	ldr	r3, [sp, #36]	; 0x24
    ea48:	e0630000 	rsb	r0, r3, r0
    ea4c:	e150000c 	cmp	r0, r12
    ea50:	e58d0008 	str	r0, [sp, #8]
    ea54:	e5dd5047 	ldrb	r5, [sp, #71]	; 0x47
    ea58:	e58d801c 	str	r8, [sp, #28]
    ea5c:	c58dc008 	strgt	r12, [sp, #8]
    ea60:	c58d7010 	strgt	r7, [sp, #16]
    ea64:	ca00019a 	bgt	f0d4 <_vfiprintf_r+0xb74>
    ea68:	e58d7010 	str	r7, [sp, #16]
    ea6c:	ea000198 	b	f0d4 <_vfiprintf_r+0xb74>
    ea70:	e5db3000 	ldrb	r3, [r11]
    ea74:	e1a0200b 	mov	r2, r11
    ea78:	e353006c 	cmp	r3, #108	; 0x6c
    ea7c:	028bb001 	addeq	r11, r11, #1
    ea80:	03866020 	orreq	r6, r6, #32
    ea84:	05d23001 	ldrbeq	r3, [r2, #1]
    ea88:	13866010 	orrne	r6, r6, #16
    ea8c:	eaffff04 	b	e6a4 <_vfiprintf_r+0x144>
    ea90:	e3866040 	orr	r6, r6, #64	; 0x40
    ea94:	e5db3000 	ldrb	r3, [r11]
    ea98:	eaffff01 	b	e6a4 <_vfiprintf_r+0x144>
    ea9c:	e3160020 	tst	r6, #32
    eaa0:	e5cd1047 	strb	r1, [sp, #71]	; 0x47
    eaa4:	0a00007e 	beq	eca4 <_vfiprintf_r+0x744>
    eaa8:	e59d501c 	ldr	r5, [sp, #28]
    eaac:	e2851007 	add	r1, r5, #7
    eab0:	e3c11007 	bic	r1, r1, #7
    eab4:	e891000c 	ldm	r1, {r2, r3}
    eab8:	e2811008 	add	r1, r1, #8
    eabc:	e58d101c 	str	r1, [sp, #28]
    eac0:	e1a08002 	mov	r8, r2
    eac4:	e1a09003 	mov	r9, r3
    eac8:	e3520000 	cmp	r2, #0
    eacc:	e2d30000 	sbcs	r0, r3, #0
    ead0:	ba0002de 	blt	f650 <_vfiprintf_r+0x10f0>
    ead4:	e1981009 	orrs	r1, r8, r9
    ead8:	e5dd5047 	ldrb	r5, [sp, #71]	; 0x47
    eadc:	03a02000 	moveq	r2, #0
    eae0:	13a02001 	movne	r2, #1
    eae4:	e3a03001 	mov	r3, #1
    eae8:	eaffff5a 	b	e858 <_vfiprintf_r+0x2f8>
    eaec:	e59d301c 	ldr	r3, [sp, #28]
    eaf0:	e5933000 	ldr	r3, [r3]
    eaf4:	e59dc01c 	ldr	r12, [sp, #28]
    eaf8:	e5cd3058 	strb	r3, [sp, #88]	; 0x58
    eafc:	e3a03000 	mov	r3, #0
    eb00:	e3a07001 	mov	r7, #1
    eb04:	e28cc004 	add	r12, r12, #4
    eb08:	e5cd3047 	strb	r3, [sp, #71]	; 0x47
    eb0c:	e28d3058 	add	r3, sp, #88	; 0x58
    eb10:	e58d7004 	str	r7, [sp, #4]
    eb14:	e58dc01c 	str	r12, [sp, #28]
    eb18:	e58d7008 	str	r7, [sp, #8]
    eb1c:	e58d3024 	str	r3, [sp, #36]	; 0x24
    eb20:	e3a0c000 	mov	r12, #0
    eb24:	e58dc010 	str	r12, [sp, #16]
    eb28:	e2163002 	ands	r3, r6, #2
    eb2c:	159d5004 	ldrne	r5, [sp, #4]
    eb30:	12855002 	addne	r5, r5, #2
    eb34:	158d5004 	strne	r5, [sp, #4]
    eb38:	e2167084 	ands	r7, r6, #132	; 0x84
    eb3c:	e58d3020 	str	r3, [sp, #32]
    eb40:	e58d7028 	str	r7, [sp, #40]	; 0x28
    eb44:	1a0000ab 	bne	edf8 <_vfiprintf_r+0x898>
    eb48:	e59dc018 	ldr	r12, [sp, #24]
    eb4c:	e59d3004 	ldr	r3, [sp, #4]
    eb50:	e063500c 	rsb	r5, r3, r12
    eb54:	e3550000 	cmp	r5, #0
    eb58:	da0000a6 	ble	edf8 <_vfiprintf_r+0x898>
    eb5c:	e3550010 	cmp	r5, #16
    eb60:	e59d1054 	ldr	r1, [sp, #84]	; 0x54
    eb64:	e59d2050 	ldr	r2, [sp, #80]	; 0x50
    eb68:	e59f8bb8 	ldr	r8, [pc, #3000]	; f728 <_vfiprintf_r+0x11c8>
    eb6c:	da000023 	ble	ec00 <_vfiprintf_r+0x6a0>
    eb70:	e28d704c 	add	r7, sp, #76	; 0x4c
    eb74:	e58d6038 	str	r6, [sp, #56]	; 0x38
    eb78:	e3a09010 	mov	r9, #16
    eb7c:	e1a06008 	mov	r6, r8
    eb80:	e1a03002 	mov	r3, r2
    eb84:	e1a08005 	mov	r8, r5
    eb88:	e1a05007 	mov	r5, r7
    eb8c:	e59d7014 	ldr	r7, [sp, #20]
    eb90:	ea000002 	b	eba0 <_vfiprintf_r+0x640>
    eb94:	e2488010 	sub	r8, r8, #16
    eb98:	e3580010 	cmp	r8, #16
    eb9c:	da000013 	ble	ebf0 <_vfiprintf_r+0x690>
    eba0:	e2833001 	add	r3, r3, #1
    eba4:	e2811010 	add	r1, r1, #16
    eba8:	e3530007 	cmp	r3, #7
    ebac:	e8840240 	stm	r4, {r6, r9}
    ebb0:	e58d1054 	str	r1, [sp, #84]	; 0x54
    ebb4:	e58d3050 	str	r3, [sp, #80]	; 0x50
    ebb8:	d2844008 	addle	r4, r4, #8
    ebbc:	dafffff4 	ble	eb94 <_vfiprintf_r+0x634>
    ebc0:	e1a00007 	mov	r0, r7
    ebc4:	e1a0100a 	mov	r1, r10
    ebc8:	e1a02005 	mov	r2, r5
    ebcc:	ebfffe34 	bl	e4a4 <__sprint_r>
    ebd0:	e3500000 	cmp	r0, #0
    ebd4:	1a00014f 	bne	f118 <_vfiprintf_r+0xbb8>
    ebd8:	e2488010 	sub	r8, r8, #16
    ebdc:	e3580010 	cmp	r8, #16
    ebe0:	e59d1054 	ldr	r1, [sp, #84]	; 0x54
    ebe4:	e59d3050 	ldr	r3, [sp, #80]	; 0x50
    ebe8:	e28d40e8 	add	r4, sp, #232	; 0xe8
    ebec:	caffffeb 	bgt	eba0 <_vfiprintf_r+0x640>
    ebf0:	e1a05008 	mov	r5, r8
    ebf4:	e1a08006 	mov	r8, r6
    ebf8:	e59d6038 	ldr	r6, [sp, #56]	; 0x38
    ebfc:	e1a02003 	mov	r2, r3
    ec00:	e2822001 	add	r2, r2, #1
    ec04:	e0811005 	add	r1, r1, r5
    ec08:	e3520007 	cmp	r2, #7
    ec0c:	e5848000 	str	r8, [r4]
    ec10:	e5845004 	str	r5, [r4, #4]
    ec14:	e58d1054 	str	r1, [sp, #84]	; 0x54
    ec18:	e58d2050 	str	r2, [sp, #80]	; 0x50
    ec1c:	d2844008 	addle	r4, r4, #8
    ec20:	da000076 	ble	ee00 <_vfiprintf_r+0x8a0>
    ec24:	e59d0014 	ldr	r0, [sp, #20]
    ec28:	e1a0100a 	mov	r1, r10
    ec2c:	e28d204c 	add	r2, sp, #76	; 0x4c
    ec30:	ebfffe1b 	bl	e4a4 <__sprint_r>
    ec34:	e3500000 	cmp	r0, #0
    ec38:	1a000136 	bne	f118 <_vfiprintf_r+0xbb8>
    ec3c:	e59d1054 	ldr	r1, [sp, #84]	; 0x54
    ec40:	e59d2050 	ldr	r2, [sp, #80]	; 0x50
    ec44:	e28d40e8 	add	r4, sp, #232	; 0xe8
    ec48:	ea00006c 	b	ee00 <_vfiprintf_r+0x8a0>
    ec4c:	e59f5ad8 	ldr	r5, [pc, #2776]	; f72c <_vfiprintf_r+0x11cc>
    ec50:	e3160020 	tst	r6, #32
    ec54:	e5cd1047 	strb	r1, [sp, #71]	; 0x47
    ec58:	e58d5034 	str	r5, [sp, #52]	; 0x34
    ec5c:	0a00002e 	beq	ed1c <_vfiprintf_r+0x7bc>
    ec60:	e59d501c 	ldr	r5, [sp, #28]
    ec64:	e2852007 	add	r2, r5, #7
    ec68:	e3c22007 	bic	r2, r2, #7
    ec6c:	e2827008 	add	r7, r2, #8
    ec70:	e58d701c 	str	r7, [sp, #28]
    ec74:	e8920300 	ldm	r2, {r8, r9}
    ec78:	e3160001 	tst	r6, #1
    ec7c:	1a00022f 	bne	f540 <_vfiprintf_r+0xfe0>
    ec80:	e1987009 	orrs	r7, r8, r9
    ec84:	03a02000 	moveq	r2, #0
    ec88:	13a02001 	movne	r2, #1
    ec8c:	e3a03002 	mov	r3, #2
    ec90:	eafffeee 	b	e850 <_vfiprintf_r+0x2f0>
    ec94:	e3866010 	orr	r6, r6, #16
    ec98:	e3160020 	tst	r6, #32
    ec9c:	e5cd1047 	strb	r1, [sp, #71]	; 0x47
    eca0:	1affff80 	bne	eaa8 <_vfiprintf_r+0x548>
    eca4:	e3160010 	tst	r6, #16
    eca8:	1a00025d 	bne	f624 <_vfiprintf_r+0x10c4>
    ecac:	e3160040 	tst	r6, #64	; 0x40
    ecb0:	0a00025b 	beq	f624 <_vfiprintf_r+0x10c4>
    ecb4:	e59d501c 	ldr	r5, [sp, #28]
    ecb8:	e1d530f0 	ldrsh	r3, [r5]
    ecbc:	e2855004 	add	r5, r5, #4
    ecc0:	e1a09fc3 	asr	r9, r3, #31
    ecc4:	e1a08003 	mov	r8, r3
    ecc8:	e1a02003 	mov	r2, r3
    eccc:	e58d501c 	str	r5, [sp, #28]
    ecd0:	e1a03009 	mov	r3, r9
    ecd4:	eaffff7b 	b	eac8 <_vfiprintf_r+0x568>
    ecd8:	e3530000 	cmp	r3, #0
    ecdc:	e5cd1047 	strb	r1, [sp, #71]	; 0x47
    ece0:	0a000104 	beq	f0f8 <_vfiprintf_r+0xb98>
    ece4:	e5cd3058 	strb	r3, [sp, #88]	; 0x58
    ece8:	e3a03000 	mov	r3, #0
    ecec:	e3a0c001 	mov	r12, #1
    ecf0:	e5cd3047 	strb	r3, [sp, #71]	; 0x47
    ecf4:	e28d3058 	add	r3, sp, #88	; 0x58
    ecf8:	e58dc004 	str	r12, [sp, #4]
    ecfc:	e58dc008 	str	r12, [sp, #8]
    ed00:	e58d3024 	str	r3, [sp, #36]	; 0x24
    ed04:	eaffff85 	b	eb20 <_vfiprintf_r+0x5c0>
    ed08:	e59f7a14 	ldr	r7, [pc, #2580]	; f724 <_vfiprintf_r+0x11c4>
    ed0c:	e3160020 	tst	r6, #32
    ed10:	e5cd1047 	strb	r1, [sp, #71]	; 0x47
    ed14:	e58d7034 	str	r7, [sp, #52]	; 0x34
    ed18:	1affffd0 	bne	ec60 <_vfiprintf_r+0x700>
    ed1c:	e3160010 	tst	r6, #16
    ed20:	1a000238 	bne	f608 <_vfiprintf_r+0x10a8>
    ed24:	e3160040 	tst	r6, #64	; 0x40
    ed28:	0a000236 	beq	f608 <_vfiprintf_r+0x10a8>
    ed2c:	e59d701c 	ldr	r7, [sp, #28]
    ed30:	e1d720b0 	ldrh	r2, [r7]
    ed34:	e2877004 	add	r7, r7, #4
    ed38:	e1a08002 	mov	r8, r2
    ed3c:	e3a09000 	mov	r9, #0
    ed40:	e58d701c 	str	r7, [sp, #28]
    ed44:	eaffffcb 	b	ec78 <_vfiprintf_r+0x718>
    ed48:	e5db3000 	ldrb	r3, [r11]
    ed4c:	e3a0102b 	mov	r1, #43	; 0x2b
    ed50:	eafffe53 	b	e6a4 <_vfiprintf_r+0x144>
    ed54:	e3866001 	orr	r6, r6, #1
    ed58:	e5db3000 	ldrb	r3, [r11]
    ed5c:	eafffe50 	b	e6a4 <_vfiprintf_r+0x144>
    ed60:	e3510000 	cmp	r1, #0
    ed64:	e5db3000 	ldrb	r3, [r11]
    ed68:	03a01020 	moveq	r1, #32
    ed6c:	eafffe4c 	b	e6a4 <_vfiprintf_r+0x144>
    ed70:	e1a0000b 	mov	r0, r11
    ed74:	e3a02000 	mov	r2, #0
    ed78:	e2435030 	sub	r5, r3, #48	; 0x30
    ed7c:	e4d03001 	ldrb	r3, [r0], #1
    ed80:	e2437030 	sub	r7, r3, #48	; 0x30
    ed84:	e0822102 	add	r2, r2, r2, lsl #2
    ed88:	e3570009 	cmp	r7, #9
    ed8c:	e0852082 	add	r2, r5, r2, lsl #1
    ed90:	e1a0b000 	mov	r11, r0
    ed94:	9afffff7 	bls	ed78 <_vfiprintf_r+0x818>
    ed98:	e58d2018 	str	r2, [sp, #24]
    ed9c:	eafffe41 	b	e6a8 <_vfiprintf_r+0x148>
    eda0:	e3866080 	orr	r6, r6, #128	; 0x80
    eda4:	e5db3000 	ldrb	r3, [r11]
    eda8:	eafffe3d 	b	e6a4 <_vfiprintf_r+0x144>
    edac:	e1a0000b 	mov	r0, r11
    edb0:	e4d03001 	ldrb	r3, [r0], #1
    edb4:	e353002a 	cmp	r3, #42	; 0x2a
    edb8:	0a000250 	beq	f700 <_vfiprintf_r+0x11a0>
    edbc:	e2432030 	sub	r2, r3, #48	; 0x30
    edc0:	e3520009 	cmp	r2, #9
    edc4:	81a0b000 	movhi	r11, r0
    edc8:	83a0c000 	movhi	r12, #0
    edcc:	8afffe35 	bhi	e6a8 <_vfiprintf_r+0x148>
    edd0:	e3a0c000 	mov	r12, #0
    edd4:	e4d03001 	ldrb	r3, [r0], #1
    edd8:	e08cc10c 	add	r12, r12, r12, lsl #2
    eddc:	e082c08c 	add	r12, r2, r12, lsl #1
    ede0:	e2432030 	sub	r2, r3, #48	; 0x30
    ede4:	e3520009 	cmp	r2, #9
    ede8:	e1a0b000 	mov	r11, r0
    edec:	9afffff8 	bls	edd4 <_vfiprintf_r+0x874>
    edf0:	e18ccfcc 	orr	r12, r12, r12, asr #31
    edf4:	eafffe2b 	b	e6a8 <_vfiprintf_r+0x148>
    edf8:	e59d1054 	ldr	r1, [sp, #84]	; 0x54
    edfc:	e59d2050 	ldr	r2, [sp, #80]	; 0x50
    ee00:	e5dd3047 	ldrb	r3, [sp, #71]	; 0x47
    ee04:	e3530000 	cmp	r3, #0
    ee08:	0a00000a 	beq	ee38 <_vfiprintf_r+0x8d8>
    ee0c:	e2822001 	add	r2, r2, #1
    ee10:	e28d3047 	add	r3, sp, #71	; 0x47
    ee14:	e5843000 	str	r3, [r4]
    ee18:	e2811001 	add	r1, r1, #1
    ee1c:	e3520007 	cmp	r2, #7
    ee20:	e3a03001 	mov	r3, #1
    ee24:	e5843004 	str	r3, [r4, #4]
    ee28:	e58d1054 	str	r1, [sp, #84]	; 0x54
    ee2c:	e58d2050 	str	r2, [sp, #80]	; 0x50
    ee30:	d2844008 	addle	r4, r4, #8
    ee34:	ca00015f 	bgt	f3b8 <_vfiprintf_r+0xe58>
    ee38:	e59d5020 	ldr	r5, [sp, #32]
    ee3c:	e3550000 	cmp	r5, #0
    ee40:	0a00000a 	beq	ee70 <_vfiprintf_r+0x910>
    ee44:	e2822001 	add	r2, r2, #1
    ee48:	e28d3048 	add	r3, sp, #72	; 0x48
    ee4c:	e5843000 	str	r3, [r4]
    ee50:	e2811002 	add	r1, r1, #2
    ee54:	e3520007 	cmp	r2, #7
    ee58:	e3a03002 	mov	r3, #2
    ee5c:	e5843004 	str	r3, [r4, #4]
    ee60:	e58d1054 	str	r1, [sp, #84]	; 0x54
    ee64:	e58d2050 	str	r2, [sp, #80]	; 0x50
    ee68:	d2844008 	addle	r4, r4, #8
    ee6c:	ca000146 	bgt	f38c <_vfiprintf_r+0xe2c>
    ee70:	e59dc028 	ldr	r12, [sp, #40]	; 0x28
    ee74:	e35c0080 	cmp	r12, #128	; 0x80
    ee78:	0a0000b0 	beq	f140 <_vfiprintf_r+0xbe0>
    ee7c:	e59d5010 	ldr	r5, [sp, #16]
    ee80:	e59d7008 	ldr	r7, [sp, #8]
    ee84:	e0678005 	rsb	r8, r7, r5
    ee88:	e3580000 	cmp	r8, #0
    ee8c:	da000035 	ble	ef68 <_vfiprintf_r+0xa08>
    ee90:	e3580010 	cmp	r8, #16
    ee94:	e59f5894 	ldr	r5, [pc, #2196]	; f730 <_vfiprintf_r+0x11d0>
    ee98:	da000021 	ble	ef24 <_vfiprintf_r+0x9c4>
    ee9c:	e28d704c 	add	r7, sp, #76	; 0x4c
    eea0:	e58d6010 	str	r6, [sp, #16]
    eea4:	e3a09010 	mov	r9, #16
    eea8:	e1a06005 	mov	r6, r5
    eeac:	e1a03002 	mov	r3, r2
    eeb0:	e1a05007 	mov	r5, r7
    eeb4:	e59d7014 	ldr	r7, [sp, #20]
    eeb8:	ea000002 	b	eec8 <_vfiprintf_r+0x968>
    eebc:	e2488010 	sub	r8, r8, #16
    eec0:	e3580010 	cmp	r8, #16
    eec4:	da000013 	ble	ef18 <_vfiprintf_r+0x9b8>
    eec8:	e2833001 	add	r3, r3, #1
    eecc:	e2811010 	add	r1, r1, #16
    eed0:	e3530007 	cmp	r3, #7
    eed4:	e8840240 	stm	r4, {r6, r9}
    eed8:	e58d1054 	str	r1, [sp, #84]	; 0x54
    eedc:	e58d3050 	str	r3, [sp, #80]	; 0x50
    eee0:	d2844008 	addle	r4, r4, #8
    eee4:	dafffff4 	ble	eebc <_vfiprintf_r+0x95c>
    eee8:	e1a00007 	mov	r0, r7
    eeec:	e1a0100a 	mov	r1, r10
    eef0:	e1a02005 	mov	r2, r5
    eef4:	ebfffd6a 	bl	e4a4 <__sprint_r>
    eef8:	e3500000 	cmp	r0, #0
    eefc:	1a000085 	bne	f118 <_vfiprintf_r+0xbb8>
    ef00:	e2488010 	sub	r8, r8, #16
    ef04:	e3580010 	cmp	r8, #16
    ef08:	e59d1054 	ldr	r1, [sp, #84]	; 0x54
    ef0c:	e59d3050 	ldr	r3, [sp, #80]	; 0x50
    ef10:	e28d40e8 	add	r4, sp, #232	; 0xe8
    ef14:	caffffeb 	bgt	eec8 <_vfiprintf_r+0x968>
    ef18:	e1a05006 	mov	r5, r6
    ef1c:	e59d6010 	ldr	r6, [sp, #16]
    ef20:	e1a02003 	mov	r2, r3
    ef24:	e2822001 	add	r2, r2, #1
    ef28:	e0811008 	add	r1, r1, r8
    ef2c:	e3520007 	cmp	r2, #7
    ef30:	e8840120 	stm	r4, {r5, r8}
    ef34:	e58d1054 	str	r1, [sp, #84]	; 0x54
    ef38:	e58d2050 	str	r2, [sp, #80]	; 0x50
    ef3c:	d2844008 	addle	r4, r4, #8
    ef40:	da000008 	ble	ef68 <_vfiprintf_r+0xa08>
    ef44:	e59d0014 	ldr	r0, [sp, #20]
    ef48:	e1a0100a 	mov	r1, r10
    ef4c:	e28d204c 	add	r2, sp, #76	; 0x4c
    ef50:	ebfffd53 	bl	e4a4 <__sprint_r>
    ef54:	e3500000 	cmp	r0, #0
    ef58:	1a00006e 	bne	f118 <_vfiprintf_r+0xbb8>
    ef5c:	e59d1054 	ldr	r1, [sp, #84]	; 0x54
    ef60:	e59d2050 	ldr	r2, [sp, #80]	; 0x50
    ef64:	e28d40e8 	add	r4, sp, #232	; 0xe8
    ef68:	e59d5008 	ldr	r5, [sp, #8]
    ef6c:	e2822001 	add	r2, r2, #1
    ef70:	e59d7024 	ldr	r7, [sp, #36]	; 0x24
    ef74:	e0811005 	add	r1, r1, r5
    ef78:	e3520007 	cmp	r2, #7
    ef7c:	e5847000 	str	r7, [r4]
    ef80:	e5845004 	str	r5, [r4, #4]
    ef84:	e58d1054 	str	r1, [sp, #84]	; 0x54
    ef88:	e58d2050 	str	r2, [sp, #80]	; 0x50
    ef8c:	d2844008 	addle	r4, r4, #8
    ef90:	ca0000a6 	bgt	f230 <_vfiprintf_r+0xcd0>
    ef94:	e3160004 	tst	r6, #4
    ef98:	0a000030 	beq	f060 <_vfiprintf_r+0xb00>
    ef9c:	e59d5018 	ldr	r5, [sp, #24]
    efa0:	e59d7004 	ldr	r7, [sp, #4]
    efa4:	e0676005 	rsb	r6, r7, r5
    efa8:	e3560000 	cmp	r6, #0
    efac:	da00002b 	ble	f060 <_vfiprintf_r+0xb00>
    efb0:	e3560010 	cmp	r6, #16
    efb4:	e59d2050 	ldr	r2, [sp, #80]	; 0x50
    efb8:	e59f8768 	ldr	r8, [pc, #1896]	; f728 <_vfiprintf_r+0x11c8>
    efbc:	da00001f 	ble	f040 <_vfiprintf_r+0xae0>
    efc0:	e3a07010 	mov	r7, #16
    efc4:	e28d504c 	add	r5, sp, #76	; 0x4c
    efc8:	e59d9014 	ldr	r9, [sp, #20]
    efcc:	e1a03002 	mov	r3, r2
    efd0:	e1a0c001 	mov	r12, r1
    efd4:	ea000002 	b	efe4 <_vfiprintf_r+0xa84>
    efd8:	e2466010 	sub	r6, r6, #16
    efdc:	e3560010 	cmp	r6, #16
    efe0:	da000014 	ble	f038 <_vfiprintf_r+0xad8>
    efe4:	e2833001 	add	r3, r3, #1
    efe8:	e28cc010 	add	r12, r12, #16
    efec:	e3530007 	cmp	r3, #7
    eff0:	e5848000 	str	r8, [r4]
    eff4:	e5847004 	str	r7, [r4, #4]
    eff8:	e58dc054 	str	r12, [sp, #84]	; 0x54
    effc:	e58d3050 	str	r3, [sp, #80]	; 0x50
    f000:	d2844008 	addle	r4, r4, #8
    f004:	dafffff3 	ble	efd8 <_vfiprintf_r+0xa78>
    f008:	e1a00009 	mov	r0, r9
    f00c:	e1a0100a 	mov	r1, r10
    f010:	e1a02005 	mov	r2, r5
    f014:	ebfffd22 	bl	e4a4 <__sprint_r>
    f018:	e3500000 	cmp	r0, #0
    f01c:	1a00003d 	bne	f118 <_vfiprintf_r+0xbb8>
    f020:	e2466010 	sub	r6, r6, #16
    f024:	e28d3050 	add	r3, sp, #80	; 0x50
    f028:	e3560010 	cmp	r6, #16
    f02c:	e8931008 	ldm	r3, {r3, r12}
    f030:	e28d40e8 	add	r4, sp, #232	; 0xe8
    f034:	caffffea 	bgt	efe4 <_vfiprintf_r+0xa84>
    f038:	e1a02003 	mov	r2, r3
    f03c:	e1a0100c 	mov	r1, r12
    f040:	e2822001 	add	r2, r2, #1
    f044:	e0861001 	add	r1, r6, r1
    f048:	e3520007 	cmp	r2, #7
    f04c:	e5848000 	str	r8, [r4]
    f050:	e5846004 	str	r6, [r4, #4]
    f054:	e58d1054 	str	r1, [sp, #84]	; 0x54
    f058:	e58d2050 	str	r2, [sp, #80]	; 0x50
    f05c:	ca000143 	bgt	f570 <_vfiprintf_r+0x1010>
    f060:	e59d400c 	ldr	r4, [sp, #12]
    f064:	e59d5004 	ldr	r5, [sp, #4]
    f068:	e59d6018 	ldr	r6, [sp, #24]
    f06c:	e1550006 	cmp	r5, r6
    f070:	a0844005 	addge	r4, r4, r5
    f074:	b0844006 	addlt	r4, r4, r6
    f078:	e3510000 	cmp	r1, #0
    f07c:	e58d400c 	str	r4, [sp, #12]
    f080:	1a000073 	bne	f254 <_vfiprintf_r+0xcf4>
    f084:	e3a03000 	mov	r3, #0
    f088:	e58d3050 	str	r3, [sp, #80]	; 0x50
    f08c:	e5db3000 	ldrb	r3, [r11]
    f090:	e3530025 	cmp	r3, #37	; 0x25
    f094:	13530000 	cmpne	r3, #0
    f098:	e28d40e8 	add	r4, sp, #232	; 0xe8
    f09c:	1afffd5e 	bne	e61c <_vfiprintf_r+0xbc>
    f0a0:	e1a0500b 	mov	r5, r11
    f0a4:	eafffd73 	b	e678 <_vfiprintf_r+0x118>
    f0a8:	e3530000 	cmp	r3, #0
    f0ac:	1a000070 	bne	f274 <_vfiprintf_r+0xd14>
    f0b0:	e3160001 	tst	r6, #1
    f0b4:	0a0000cc 	beq	f3ec <_vfiprintf_r+0xe8c>
    f0b8:	e59d703c 	ldr	r7, [sp, #60]	; 0x3c
    f0bc:	e58d7008 	str	r7, [sp, #8]
    f0c0:	e59d7030 	ldr	r7, [sp, #48]	; 0x30
    f0c4:	e3a03030 	mov	r3, #48	; 0x30
    f0c8:	e5cd307f 	strb	r3, [sp, #127]	; 0x7f
    f0cc:	e58d7024 	str	r7, [sp, #36]	; 0x24
    f0d0:	e58dc010 	str	r12, [sp, #16]
    f0d4:	e59d7008 	ldr	r7, [sp, #8]
    f0d8:	e59dc010 	ldr	r12, [sp, #16]
    f0dc:	e157000c 	cmp	r7, r12
    f0e0:	b1a0700c 	movlt	r7, r12
    f0e4:	e3550000 	cmp	r5, #0
    f0e8:	e58d7004 	str	r7, [sp, #4]
    f0ec:	12877001 	addne	r7, r7, #1
    f0f0:	158d7004 	strne	r7, [sp, #4]
    f0f4:	eafffe8b 	b	eb28 <_vfiprintf_r+0x5c8>
    f0f8:	e59d3054 	ldr	r3, [sp, #84]	; 0x54
    f0fc:	e3530000 	cmp	r3, #0
    f100:	0a000004 	beq	f118 <_vfiprintf_r+0xbb8>
    f104:	e59d0014 	ldr	r0, [sp, #20]
    f108:	e1a0100a 	mov	r1, r10
    f10c:	e28d204c 	add	r2, sp, #76	; 0x4c
    f110:	e28db058 	add	r11, sp, #88	; 0x58
    f114:	ebfffce2 	bl	e4a4 <__sprint_r>
    f118:	e1da30bc 	ldrh	r3, [r10, #12]
    f11c:	e3130040 	tst	r3, #64	; 0x40
    f120:	0a000001 	beq	f12c <_vfiprintf_r+0xbcc>
    f124:	e3e06000 	mvn	r6, #0
    f128:	e58d600c 	str	r6, [sp, #12]
    f12c:	e59d000c 	ldr	r0, [sp, #12]
    f130:	e28dd0ec 	add	sp, sp, #236	; 0xec
    f134:	e28ddb01 	add	sp, sp, #1024	; 0x400
    f138:	e8bd4ff0 	pop	{r4, r5, r6, r7, r8, r9, r10, r11, lr}
    f13c:	e12fff1e 	bx	lr
    f140:	e59d5018 	ldr	r5, [sp, #24]
    f144:	e59d7004 	ldr	r7, [sp, #4]
    f148:	e0678005 	rsb	r8, r7, r5
    f14c:	e3580000 	cmp	r8, #0
    f150:	daffff49 	ble	ee7c <_vfiprintf_r+0x91c>
    f154:	e3580010 	cmp	r8, #16
    f158:	e59f55d0 	ldr	r5, [pc, #1488]	; f730 <_vfiprintf_r+0x11d0>
    f15c:	da000021 	ble	f1e8 <_vfiprintf_r+0xc88>
    f160:	e28d704c 	add	r7, sp, #76	; 0x4c
    f164:	e58d6020 	str	r6, [sp, #32]
    f168:	e3a09010 	mov	r9, #16
    f16c:	e1a06005 	mov	r6, r5
    f170:	e1a03002 	mov	r3, r2
    f174:	e1a05007 	mov	r5, r7
    f178:	e59d7014 	ldr	r7, [sp, #20]
    f17c:	ea000002 	b	f18c <_vfiprintf_r+0xc2c>
    f180:	e2488010 	sub	r8, r8, #16
    f184:	e3580010 	cmp	r8, #16
    f188:	da000013 	ble	f1dc <_vfiprintf_r+0xc7c>
    f18c:	e2833001 	add	r3, r3, #1
    f190:	e2811010 	add	r1, r1, #16
    f194:	e3530007 	cmp	r3, #7
    f198:	e8840240 	stm	r4, {r6, r9}
    f19c:	e58d1054 	str	r1, [sp, #84]	; 0x54
    f1a0:	e58d3050 	str	r3, [sp, #80]	; 0x50
    f1a4:	d2844008 	addle	r4, r4, #8
    f1a8:	dafffff4 	ble	f180 <_vfiprintf_r+0xc20>
    f1ac:	e1a00007 	mov	r0, r7
    f1b0:	e1a0100a 	mov	r1, r10
    f1b4:	e1a02005 	mov	r2, r5
    f1b8:	ebfffcb9 	bl	e4a4 <__sprint_r>
    f1bc:	e3500000 	cmp	r0, #0
    f1c0:	1affffd4 	bne	f118 <_vfiprintf_r+0xbb8>
    f1c4:	e2488010 	sub	r8, r8, #16
    f1c8:	e3580010 	cmp	r8, #16
    f1cc:	e59d1054 	ldr	r1, [sp, #84]	; 0x54
    f1d0:	e59d3050 	ldr	r3, [sp, #80]	; 0x50
    f1d4:	e28d40e8 	add	r4, sp, #232	; 0xe8
    f1d8:	caffffeb 	bgt	f18c <_vfiprintf_r+0xc2c>
    f1dc:	e1a05006 	mov	r5, r6
    f1e0:	e59d6020 	ldr	r6, [sp, #32]
    f1e4:	e1a02003 	mov	r2, r3
    f1e8:	e2822001 	add	r2, r2, #1
    f1ec:	e0811008 	add	r1, r1, r8
    f1f0:	e3520007 	cmp	r2, #7
    f1f4:	e8840120 	stm	r4, {r5, r8}
    f1f8:	e58d1054 	str	r1, [sp, #84]	; 0x54
    f1fc:	e58d2050 	str	r2, [sp, #80]	; 0x50
    f200:	d2844008 	addle	r4, r4, #8
    f204:	daffff1c 	ble	ee7c <_vfiprintf_r+0x91c>
    f208:	e59d0014 	ldr	r0, [sp, #20]
    f20c:	e1a0100a 	mov	r1, r10
    f210:	e28d204c 	add	r2, sp, #76	; 0x4c
    f214:	ebfffca2 	bl	e4a4 <__sprint_r>
    f218:	e3500000 	cmp	r0, #0
    f21c:	1affffbd 	bne	f118 <_vfiprintf_r+0xbb8>
    f220:	e59d1054 	ldr	r1, [sp, #84]	; 0x54
    f224:	e59d2050 	ldr	r2, [sp, #80]	; 0x50
    f228:	e28d40e8 	add	r4, sp, #232	; 0xe8
    f22c:	eaffff12 	b	ee7c <_vfiprintf_r+0x91c>
    f230:	e59d0014 	ldr	r0, [sp, #20]
    f234:	e1a0100a 	mov	r1, r10
    f238:	e28d204c 	add	r2, sp, #76	; 0x4c
    f23c:	ebfffc98 	bl	e4a4 <__sprint_r>
    f240:	e3500000 	cmp	r0, #0
    f244:	1affffb3 	bne	f118 <_vfiprintf_r+0xbb8>
    f248:	e59d1054 	ldr	r1, [sp, #84]	; 0x54
    f24c:	e28d40e8 	add	r4, sp, #232	; 0xe8
    f250:	eaffff4f 	b	ef94 <_vfiprintf_r+0xa34>
    f254:	e59d0014 	ldr	r0, [sp, #20]
    f258:	e1a0100a 	mov	r1, r10
    f25c:	e28d204c 	add	r2, sp, #76	; 0x4c
    f260:	ebfffc8f 	bl	e4a4 <__sprint_r>
    f264:	e3500000 	cmp	r0, #0
    f268:	e28d7058 	add	r7, sp, #88	; 0x58
    f26c:	0affff84 	beq	f084 <_vfiprintf_r+0xb24>
    f270:	eaffffa8 	b	f118 <_vfiprintf_r+0xbb8>
    f274:	e59d702c 	ldr	r7, [sp, #44]	; 0x2c
    f278:	e58d2008 	str	r2, [sp, #8]
    f27c:	e58d7024 	str	r7, [sp, #36]	; 0x24
    f280:	eaffff92 	b	f0d0 <_vfiprintf_r+0xb70>
    f284:	e59d0014 	ldr	r0, [sp, #20]
    f288:	e1a0100a 	mov	r1, r10
    f28c:	ebffd601 	bl	4a98 <__swsetup_r>
    f290:	e3500000 	cmp	r0, #0
    f294:	01da80bc 	ldrheq	r8, [r10, #12]
    f298:	1affffa1 	bne	f124 <_vfiprintf_r+0xbc4>
    f29c:	e208301a 	and	r3, r8, #26
    f2a0:	e353000a 	cmp	r3, #10
    f2a4:	1afffcc9 	bne	e5d0 <_vfiprintf_r+0x70>
    f2a8:	e1dac0be 	ldrh	r12, [r10, #14]
    f2ac:	e31c0902 	tst	r12, #32768	; 0x8000
    f2b0:	1afffcc6 	bne	e5d0 <_vfiprintf_r+0x70>
    f2b4:	e1a02004 	mov	r2, r4
    f2b8:	e28dbe4e 	add	r11, sp, #1248	; 0x4e0
    f2bc:	e59f4470 	ldr	r4, [pc, #1136]	; f734 <_vfiprintf_r+0x11d4>
    f2c0:	e28bb008 	add	r11, r11, #8
    f2c4:	e3c88002 	bic	r8, r8, #2
    f2c8:	e18b80b4 	strh	r8, [r11, r4]
    f2cc:	e59a7064 	ldr	r7, [r10, #100]	; 0x64
    f2d0:	e59a601c 	ldr	r6, [r10, #28]
    f2d4:	e59a9024 	ldr	r9, [r10, #36]	; 0x24
    f2d8:	e2844002 	add	r4, r4, #2
    f2dc:	e3a0eb01 	mov	lr, #1024	; 0x400
    f2e0:	e28d50e8 	add	r5, sp, #232	; 0xe8
    f2e4:	e18bc0b4 	strh	r12, [r11, r4]
    f2e8:	e59d0014 	ldr	r0, [sp, #20]
    f2ec:	e3a0c000 	mov	r12, #0
    f2f0:	e28d1080 	add	r1, sp, #128	; 0x80
    f2f4:	e59d301c 	ldr	r3, [sp, #28]
    f2f8:	e58d70e4 	str	r7, [sp, #228]	; 0xe4
    f2fc:	e58d609c 	str	r6, [sp, #156]	; 0x9c
    f300:	e58d90a4 	str	r9, [sp, #164]	; 0xa4
    f304:	e58d5080 	str	r5, [sp, #128]	; 0x80
    f308:	e58d5090 	str	r5, [sp, #144]	; 0x90
    f30c:	e58de088 	str	lr, [sp, #136]	; 0x88
    f310:	e58de094 	str	lr, [sp, #148]	; 0x94
    f314:	e58dc098 	str	r12, [sp, #152]	; 0x98
    f318:	ebfffc90 	bl	e560 <_vfiprintf_r>
    f31c:	e3500000 	cmp	r0, #0
    f320:	e58d000c 	str	r0, [sp, #12]
    f324:	ba000006 	blt	f344 <_vfiprintf_r+0xde4>
    f328:	e59d0014 	ldr	r0, [sp, #20]
    f32c:	e28d1080 	add	r1, sp, #128	; 0x80
    f330:	ebffdcf6 	bl	6710 <_fflush_r>
    f334:	e59dc00c 	ldr	r12, [sp, #12]
    f338:	e3500000 	cmp	r0, #0
    f33c:	13e0c000 	mvnne	r12, #0
    f340:	e58dc00c 	str	r12, [sp, #12]
    f344:	e59f33e8 	ldr	r3, [pc, #1000]	; f734 <_vfiprintf_r+0x11d4>
    f348:	e28d0e4e 	add	r0, sp, #1248	; 0x4e0
    f34c:	e2800008 	add	r0, r0, #8
    f350:	e19030b3 	ldrh	r3, [r0, r3]
    f354:	e3130040 	tst	r3, #64	; 0x40
    f358:	11da30bc 	ldrhne	r3, [r10, #12]
    f35c:	13833040 	orrne	r3, r3, #64	; 0x40
    f360:	11ca30bc 	strhne	r3, [r10, #12]
    f364:	eaffff70 	b	f12c <_vfiprintf_r+0xbcc>
    f368:	e59d0014 	ldr	r0, [sp, #20]
    f36c:	e1a0100a 	mov	r1, r10
    f370:	e28d204c 	add	r2, sp, #76	; 0x4c
    f374:	ebfffc4a 	bl	e4a4 <__sprint_r>
    f378:	e3500000 	cmp	r0, #0
    f37c:	e28d7058 	add	r7, sp, #88	; 0x58
    f380:	1affff64 	bne	f118 <_vfiprintf_r+0xbb8>
    f384:	e28d40e8 	add	r4, sp, #232	; 0xe8
    f388:	eafffcb7 	b	e66c <_vfiprintf_r+0x10c>
    f38c:	e59d0014 	ldr	r0, [sp, #20]
    f390:	e1a0100a 	mov	r1, r10
    f394:	e28d204c 	add	r2, sp, #76	; 0x4c
    f398:	ebfffc41 	bl	e4a4 <__sprint_r>
    f39c:	e3500000 	cmp	r0, #0
    f3a0:	e28d7058 	add	r7, sp, #88	; 0x58
    f3a4:	1affff5b 	bne	f118 <_vfiprintf_r+0xbb8>
    f3a8:	e59d1054 	ldr	r1, [sp, #84]	; 0x54
    f3ac:	e59d2050 	ldr	r2, [sp, #80]	; 0x50
    f3b0:	e28d40e8 	add	r4, sp, #232	; 0xe8
    f3b4:	eafffead 	b	ee70 <_vfiprintf_r+0x910>
    f3b8:	e59d0014 	ldr	r0, [sp, #20]
    f3bc:	e1a0100a 	mov	r1, r10
    f3c0:	e28d204c 	add	r2, sp, #76	; 0x4c
    f3c4:	ebfffc36 	bl	e4a4 <__sprint_r>
    f3c8:	e3500000 	cmp	r0, #0
    f3cc:	e28d4058 	add	r4, sp, #88	; 0x58
    f3d0:	1affff50 	bne	f118 <_vfiprintf_r+0xbb8>
    f3d4:	e59d1054 	ldr	r1, [sp, #84]	; 0x54
    f3d8:	e59d2050 	ldr	r2, [sp, #80]	; 0x50
    f3dc:	e28d40e8 	add	r4, sp, #232	; 0xe8
    f3e0:	eafffe94 	b	ee38 <_vfiprintf_r+0x8d8>
    f3e4:	ebffdda3 	bl	6a78 <__sinit>
    f3e8:	eafffc69 	b	e594 <_vfiprintf_r+0x34>
    f3ec:	e59d702c 	ldr	r7, [sp, #44]	; 0x2c
    f3f0:	e58d3008 	str	r3, [sp, #8]
    f3f4:	e58d7024 	str	r7, [sp, #36]	; 0x24
    f3f8:	eaffff34 	b	f0d0 <_vfiprintf_r+0xb70>
    f3fc:	e58d4004 	str	r4, [sp, #4]
    f400:	e59d7034 	ldr	r7, [sp, #52]	; 0x34
    f404:	e58d5008 	str	r5, [sp, #8]
    f408:	e3a0400f 	mov	r4, #15
    f40c:	e1a01228 	lsr	r1, r8, #4
    f410:	e0082004 	and	r2, r8, r4
    f414:	e1811e09 	orr	r1, r1, r9, lsl #28
    f418:	e1a03229 	lsr	r3, r9, #4
    f41c:	e0872002 	add	r2, r7, r2
    f420:	e1a09003 	mov	r9, r3
    f424:	e1a08001 	mov	r8, r1
    f428:	e5d22000 	ldrb	r2, [r2]
    f42c:	e1985009 	orrs	r5, r8, r9
    f430:	e1a03000 	mov	r3, r0
    f434:	e5c02000 	strb	r2, [r0]
    f438:	e2400001 	sub	r0, r0, #1
    f43c:	1afffff1 	bne	f408 <_vfiprintf_r+0xea8>
    f440:	e59d702c 	ldr	r7, [sp, #44]	; 0x2c
    f444:	e0637007 	rsb	r7, r3, r7
    f448:	e99d0030 	ldmib	sp, {r4, r5}
    f44c:	e58d3024 	str	r3, [sp, #36]	; 0x24
    f450:	e58d7008 	str	r7, [sp, #8]
    f454:	eaffff1d 	b	f0d0 <_vfiprintf_r+0xb70>
    f458:	e3590000 	cmp	r9, #0
    f45c:	03580009 	cmpeq	r8, #9
    f460:	9a00004a 	bls	f590 <_vfiprintf_r+0x1030>
    f464:	e59d7030 	ldr	r7, [sp, #48]	; 0x30
    f468:	e98d1010 	stmib	sp, {r4, r12}
    f46c:	e1a04007 	mov	r4, r7
    f470:	e1a00008 	mov	r0, r8
    f474:	e1a01009 	mov	r1, r9
    f478:	e3a0200a 	mov	r2, #10
    f47c:	e3a03000 	mov	r3, #0
    f480:	eb000c35 	bl	1255c <__aeabi_uldivmod>
    f484:	e2822030 	add	r2, r2, #48	; 0x30
    f488:	e5c42000 	strb	r2, [r4]
    f48c:	e1a00008 	mov	r0, r8
    f490:	e1a01009 	mov	r1, r9
    f494:	e3a0200a 	mov	r2, #10
    f498:	e3a03000 	mov	r3, #0
    f49c:	eb000c2e 	bl	1255c <__aeabi_uldivmod>
    f4a0:	e1a08000 	mov	r8, r0
    f4a4:	e1a09001 	mov	r9, r1
    f4a8:	e198c009 	orrs	r12, r8, r9
    f4ac:	e1a07004 	mov	r7, r4
    f4b0:	e2444001 	sub	r4, r4, #1
    f4b4:	1affffed 	bne	f470 <_vfiprintf_r+0xf10>
    f4b8:	e59d302c 	ldr	r3, [sp, #44]	; 0x2c
    f4bc:	e0673003 	rsb	r3, r7, r3
    f4c0:	e99d1010 	ldmib	sp, {r4, r12}
    f4c4:	e58d7024 	str	r7, [sp, #36]	; 0x24
    f4c8:	e58d3008 	str	r3, [sp, #8]
    f4cc:	eafffeff 	b	f0d0 <_vfiprintf_r+0xb70>
    f4d0:	e3160010 	tst	r6, #16
    f4d4:	1a000038 	bne	f5bc <_vfiprintf_r+0x105c>
    f4d8:	e3160040 	tst	r6, #64	; 0x40
    f4dc:	0a000036 	beq	f5bc <_vfiprintf_r+0x105c>
    f4e0:	e59d701c 	ldr	r7, [sp, #28]
    f4e4:	e1d720b0 	ldrh	r2, [r7]
    f4e8:	e3a09000 	mov	r9, #0
    f4ec:	e1a08002 	mov	r8, r2
    f4f0:	e2877004 	add	r7, r7, #4
    f4f4:	e0522009 	subs	r2, r2, r9
    f4f8:	13a02001 	movne	r2, #1
    f4fc:	e58d701c 	str	r7, [sp, #28]
    f500:	e3a03001 	mov	r3, #1
    f504:	eafffcd1 	b	e850 <_vfiprintf_r+0x2f0>
    f508:	e2161010 	ands	r1, r6, #16
    f50c:	1a000034 	bne	f5e4 <_vfiprintf_r+0x1084>
    f510:	e2163040 	ands	r3, r6, #64	; 0x40
    f514:	0a000032 	beq	f5e4 <_vfiprintf_r+0x1084>
    f518:	e59d701c 	ldr	r7, [sp, #28]
    f51c:	e1d720b0 	ldrh	r2, [r7]
    f520:	e3a09000 	mov	r9, #0
    f524:	e1a08002 	mov	r8, r2
    f528:	e2877004 	add	r7, r7, #4
    f52c:	e0522009 	subs	r2, r2, r9
    f530:	13a02001 	movne	r2, #1
    f534:	e58d701c 	str	r7, [sp, #28]
    f538:	e1a03001 	mov	r3, r1
    f53c:	eafffcc3 	b	e850 <_vfiprintf_r+0x2f0>
    f540:	e1980009 	orrs	r0, r8, r9
    f544:	13a02030 	movne	r2, #48	; 0x30
    f548:	15cd2048 	strbne	r2, [sp, #72]	; 0x48
    f54c:	15cd3049 	strbne	r3, [sp, #73]	; 0x49
    f550:	13866002 	orrne	r6, r6, #2
    f554:	13a02001 	movne	r2, #1
    f558:	03a02000 	moveq	r2, #0
    f55c:	e3a03002 	mov	r3, #2
    f560:	eafffcba 	b	e850 <_vfiprintf_r+0x2f0>
    f564:	e5db3000 	ldrb	r3, [r11]
    f568:	e58d201c 	str	r2, [sp, #28]
    f56c:	eafffc4c 	b	e6a4 <_vfiprintf_r+0x144>
    f570:	e59d0014 	ldr	r0, [sp, #20]
    f574:	e1a0100a 	mov	r1, r10
    f578:	e28d204c 	add	r2, sp, #76	; 0x4c
    f57c:	ebfffbc8 	bl	e4a4 <__sprint_r>
    f580:	e3500000 	cmp	r0, #0
    f584:	1afffee3 	bne	f118 <_vfiprintf_r+0xbb8>
    f588:	e59d1054 	ldr	r1, [sp, #84]	; 0x54
    f58c:	eafffeb3 	b	f060 <_vfiprintf_r+0xb00>
    f590:	e59d703c 	ldr	r7, [sp, #60]	; 0x3c
    f594:	e58d7008 	str	r7, [sp, #8]
    f598:	e59d7030 	ldr	r7, [sp, #48]	; 0x30
    f59c:	e2888030 	add	r8, r8, #48	; 0x30
    f5a0:	e5cd807f 	strb	r8, [sp, #127]	; 0x7f
    f5a4:	e58d7024 	str	r7, [sp, #36]	; 0x24
    f5a8:	eafffec8 	b	f0d0 <_vfiprintf_r+0xb70>
    f5ac:	e59d702c 	ldr	r7, [sp, #44]	; 0x2c
    f5b0:	e0633007 	rsb	r3, r3, r7
    f5b4:	e58d3008 	str	r3, [sp, #8]
    f5b8:	eafffec4 	b	f0d0 <_vfiprintf_r+0xb70>
    f5bc:	e59d501c 	ldr	r5, [sp, #28]
    f5c0:	e5952000 	ldr	r2, [r5]
    f5c4:	e3a09000 	mov	r9, #0
    f5c8:	e1a08002 	mov	r8, r2
    f5cc:	e2855004 	add	r5, r5, #4
    f5d0:	e0522009 	subs	r2, r2, r9
    f5d4:	13a02001 	movne	r2, #1
    f5d8:	e58d501c 	str	r5, [sp, #28]
    f5dc:	e3a03001 	mov	r3, #1
    f5e0:	eafffc9a 	b	e850 <_vfiprintf_r+0x2f0>
    f5e4:	e59d501c 	ldr	r5, [sp, #28]
    f5e8:	e5952000 	ldr	r2, [r5]
    f5ec:	e3a09000 	mov	r9, #0
    f5f0:	e1a08002 	mov	r8, r2
    f5f4:	e2855004 	add	r5, r5, #4
    f5f8:	e0522009 	subs	r2, r2, r9
    f5fc:	13a02001 	movne	r2, #1
    f600:	e58d501c 	str	r5, [sp, #28]
    f604:	eafffc91 	b	e850 <_vfiprintf_r+0x2f0>
    f608:	e59d501c 	ldr	r5, [sp, #28]
    f60c:	e5952000 	ldr	r2, [r5]
    f610:	e2855004 	add	r5, r5, #4
    f614:	e1a08002 	mov	r8, r2
    f618:	e3a09000 	mov	r9, #0
    f61c:	e58d501c 	str	r5, [sp, #28]
    f620:	eafffd94 	b	ec78 <_vfiprintf_r+0x718>
    f624:	e59d701c 	ldr	r7, [sp, #28]
    f628:	e5973000 	ldr	r3, [r7]
    f62c:	e1a09fc3 	asr	r9, r3, #31
    f630:	e1a02003 	mov	r2, r3
    f634:	e1a08003 	mov	r8, r3
    f638:	e1a03009 	mov	r3, r9
    f63c:	e2877004 	add	r7, r7, #4
    f640:	e3520000 	cmp	r2, #0
    f644:	e2d30000 	sbcs	r0, r3, #0
    f648:	e58d701c 	str	r7, [sp, #28]
    f64c:	aafffd20 	bge	ead4 <_vfiprintf_r+0x574>
    f650:	e2788000 	rsbs	r8, r8, #0
    f654:	e2e99000 	rsc	r9, r9, #0
    f658:	e3a0502d 	mov	r5, #45	; 0x2d
    f65c:	e1982009 	orrs	r2, r8, r9
    f660:	e5cd5047 	strb	r5, [sp, #71]	; 0x47
    f664:	03a02000 	moveq	r2, #0
    f668:	13a02001 	movne	r2, #1
    f66c:	e3a03001 	mov	r3, #1
    f670:	eafffc78 	b	e858 <_vfiprintf_r+0x2f8>
    f674:	e59d501c 	ldr	r5, [sp, #28]
    f678:	e59d200c 	ldr	r2, [sp, #12]
    f67c:	e5953000 	ldr	r3, [r5]
    f680:	e1a01fc2 	asr	r1, r2, #31
    f684:	e2855004 	add	r5, r5, #4
    f688:	e5832000 	str	r2, [r3]
    f68c:	e5831004 	str	r1, [r3, #4]
    f690:	e58d501c 	str	r5, [sp, #28]
    f694:	eafffbdc 	b	e60c <_vfiprintf_r+0xac>
    f698:	e59d601c 	ldr	r6, [sp, #28]
    f69c:	e59d700c 	ldr	r7, [sp, #12]
    f6a0:	e5963000 	ldr	r3, [r6]
    f6a4:	e2866004 	add	r6, r6, #4
    f6a8:	e58d601c 	str	r6, [sp, #28]
    f6ac:	e5837000 	str	r7, [r3]
    f6b0:	eafffbd5 	b	e60c <_vfiprintf_r+0xac>
    f6b4:	ebffc6e7 	bl	1258 <strlen>
    f6b8:	e5dd5047 	ldrb	r5, [sp, #71]	; 0x47
    f6bc:	e58d0008 	str	r0, [sp, #8]
    f6c0:	e58d801c 	str	r8, [sp, #28]
    f6c4:	eafffce7 	b	ea68 <_vfiprintf_r+0x508>
    f6c8:	e35c0006 	cmp	r12, #6
    f6cc:	23a0c006 	movcs	r12, #6
    f6d0:	e1cc7fcc 	bic	r7, r12, r12, asr #31
    f6d4:	e58dc008 	str	r12, [sp, #8]
    f6d8:	e59fc058 	ldr	r12, [pc, #88]	; f738 <_vfiprintf_r+0x11d8>
    f6dc:	e58d7004 	str	r7, [sp, #4]
    f6e0:	e58d801c 	str	r8, [sp, #28]
    f6e4:	e58dc024 	str	r12, [sp, #36]	; 0x24
    f6e8:	eafffd0c 	b	eb20 <_vfiprintf_r+0x5c0>
    f6ec:	e5dd5047 	ldrb	r5, [sp, #71]	; 0x47
    f6f0:	e58d801c 	str	r8, [sp, #28]
    f6f4:	e58dc008 	str	r12, [sp, #8]
    f6f8:	e58d0010 	str	r0, [sp, #16]
    f6fc:	eafffe74 	b	f0d4 <_vfiprintf_r+0xb74>
    f700:	e59d501c 	ldr	r5, [sp, #28]
    f704:	e595c000 	ldr	r12, [r5]
    f708:	e2852004 	add	r2, r5, #4
    f70c:	e35c0000 	cmp	r12, #0
    f710:	e5db3001 	ldrb	r3, [r11, #1]
    f714:	e58d201c 	str	r2, [sp, #28]
    f718:	e1a0b000 	mov	r11, r0
    f71c:	b3e0c000 	mvnlt	r12, #0
    f720:	eafffbdf 	b	e6a4 <_vfiprintf_r+0x144>
    f724:	00013850 	.word	0x00013850
    f728:	00013b40 	.word	0x00013b40
    f72c:	0001383c 	.word	0x0001383c
    f730:	00013b50 	.word	0x00013b50
    f734:	fffffba4 	.word	0xfffffba4
    f738:	00013864 	.word	0x00013864

0000f73c <vfiprintf>:
    f73c:	e52d4004 	push	{r4}		; (str r4, [sp, #-4]!)
    f740:	e1a03002 	mov	r3, r2
    f744:	e59f2018 	ldr	r2, [pc, #24]	; f764 <vfiprintf+0x28>
    f748:	e1a04000 	mov	r4, r0
    f74c:	e1a0c001 	mov	r12, r1
    f750:	e5920000 	ldr	r0, [r2]
    f754:	e1a01004 	mov	r1, r4
    f758:	e1a0200c 	mov	r2, r12
    f75c:	e8bd0010 	ldmfd	sp!, {r4}
    f760:	eafffb7e 	b	e560 <_vfiprintf_r>
    f764:	00013c00 	.word	0x00013c00

0000f768 <_write_r>:
    f768:	e92d4038 	push	{r3, r4, r5, lr}
    f76c:	e59f4034 	ldr	r4, [pc, #52]	; f7a8 <_write_r+0x40>
    f770:	e1a05000 	mov	r5, r0
    f774:	e1a00001 	mov	r0, r1
    f778:	e1a01002 	mov	r1, r2
    f77c:	e1a02003 	mov	r2, r3
    f780:	e3a03000 	mov	r3, #0
    f784:	e5843000 	str	r3, [r4]
    f788:	eb000eb0 	bl	13250 <_write>
    f78c:	e3700001 	cmn	r0, #1
    f790:	1a000002 	bne	f7a0 <_write_r+0x38>
    f794:	e5943000 	ldr	r3, [r4]
    f798:	e3530000 	cmp	r3, #0
    f79c:	15853000 	strne	r3, [r5]
    f7a0:	e8bd4038 	pop	{r3, r4, r5, lr}
    f7a4:	e12fff1e 	bx	lr
    f7a8:	00014654 	.word	0x00014654

0000f7ac <_calloc_r>:
    f7ac:	e92d4010 	push	{r4, lr}
    f7b0:	e0010192 	mul	r1, r2, r1
    f7b4:	ebffe0a5 	bl	7a50 <_malloc_r>
    f7b8:	e2504000 	subs	r4, r0, #0
    f7bc:	0a00000b 	beq	f7f0 <_calloc_r+0x44>
    f7c0:	e5142004 	ldr	r2, [r4, #-4]
    f7c4:	e3c22003 	bic	r2, r2, #3
    f7c8:	e2422004 	sub	r2, r2, #4
    f7cc:	e3520024 	cmp	r2, #36	; 0x24
    f7d0:	8a000017 	bhi	f834 <_calloc_r+0x88>
    f7d4:	e3520013 	cmp	r2, #19
    f7d8:	91a03004 	movls	r3, r4
    f7dc:	8a000006 	bhi	f7fc <_calloc_r+0x50>
    f7e0:	e3a02000 	mov	r2, #0
    f7e4:	e5832000 	str	r2, [r3]
    f7e8:	e5832004 	str	r2, [r3, #4]
    f7ec:	e5832008 	str	r2, [r3, #8]
    f7f0:	e1a00004 	mov	r0, r4
    f7f4:	e8bd4010 	pop	{r4, lr}
    f7f8:	e12fff1e 	bx	lr
    f7fc:	e3a03000 	mov	r3, #0
    f800:	e352001b 	cmp	r2, #27
    f804:	e5843000 	str	r3, [r4]
    f808:	e5843004 	str	r3, [r4, #4]
    f80c:	92843008 	addls	r3, r4, #8
    f810:	9afffff2 	bls	f7e0 <_calloc_r+0x34>
    f814:	e3520024 	cmp	r2, #36	; 0x24
    f818:	e5843008 	str	r3, [r4, #8]
    f81c:	e584300c 	str	r3, [r4, #12]
    f820:	05843010 	streq	r3, [r4, #16]
    f824:	05843014 	streq	r3, [r4, #20]
    f828:	12843010 	addne	r3, r4, #16
    f82c:	02843018 	addeq	r3, r4, #24
    f830:	eaffffea 	b	f7e0 <_calloc_r+0x34>
    f834:	e3a01000 	mov	r1, #0
    f838:	ebffe3d9 	bl	87a4 <memset>
    f83c:	eaffffeb 	b	f7f0 <_calloc_r+0x44>

0000f840 <_close_r>:
    f840:	e92d4038 	push	{r3, r4, r5, lr}
    f844:	e59f402c 	ldr	r4, [pc, #44]	; f878 <_close_r+0x38>
    f848:	e3a03000 	mov	r3, #0
    f84c:	e1a05000 	mov	r5, r0
    f850:	e1a00001 	mov	r0, r1
    f854:	e5843000 	str	r3, [r4]
    f858:	eb000df2 	bl	13028 <_close>
    f85c:	e3700001 	cmn	r0, #1
    f860:	1a000002 	bne	f870 <_close_r+0x30>
    f864:	e5943000 	ldr	r3, [r4]
    f868:	e3530000 	cmp	r3, #0
    f86c:	15853000 	strne	r3, [r5]
    f870:	e8bd4038 	pop	{r3, r4, r5, lr}
    f874:	e12fff1e 	bx	lr
    f878:	00014654 	.word	0x00014654

0000f87c <_fclose_r>:
    f87c:	e92d4070 	push	{r4, r5, r6, lr}
    f880:	e2514000 	subs	r4, r1, #0
    f884:	e1a05000 	mov	r5, r0
    f888:	01a06004 	moveq	r6, r4
    f88c:	0a00002b 	beq	f940 <_fclose_r+0xc4>
    f890:	ebffdcd4 	bl	6be8 <__sfp_lock_acquire>
    f894:	e3550000 	cmp	r5, #0
    f898:	0a000002 	beq	f8a8 <_fclose_r+0x2c>
    f89c:	e5953038 	ldr	r3, [r5, #56]	; 0x38
    f8a0:	e3530000 	cmp	r3, #0
    f8a4:	0a000028 	beq	f94c <_fclose_r+0xd0>
    f8a8:	e1d460fc 	ldrsh	r6, [r4, #12]
    f8ac:	e3560000 	cmp	r6, #0
    f8b0:	0a000021 	beq	f93c <_fclose_r+0xc0>
    f8b4:	e1a00005 	mov	r0, r5
    f8b8:	e1a01004 	mov	r1, r4
    f8bc:	ebffdb93 	bl	6710 <_fflush_r>
    f8c0:	e594302c 	ldr	r3, [r4, #44]	; 0x2c
    f8c4:	e3530000 	cmp	r3, #0
    f8c8:	e1a06000 	mov	r6, r0
    f8cc:	0a000005 	beq	f8e8 <_fclose_r+0x6c>
    f8d0:	e1a00005 	mov	r0, r5
    f8d4:	e594101c 	ldr	r1, [r4, #28]
    f8d8:	e1a0e00f 	mov	lr, pc
    f8dc:	e12fff13 	bx	r3
    f8e0:	e3500000 	cmp	r0, #0
    f8e4:	b3e06000 	mvnlt	r6, #0
    f8e8:	e1d430bc 	ldrh	r3, [r4, #12]
    f8ec:	e3130080 	tst	r3, #128	; 0x80
    f8f0:	1a00001b 	bne	f964 <_fclose_r+0xe8>
    f8f4:	e5941030 	ldr	r1, [r4, #48]	; 0x30
    f8f8:	e3510000 	cmp	r1, #0
    f8fc:	0a000005 	beq	f918 <_fclose_r+0x9c>
    f900:	e2843040 	add	r3, r4, #64	; 0x40
    f904:	e1510003 	cmp	r1, r3
    f908:	11a00005 	movne	r0, r5
    f90c:	1bffddaa 	blne	6fbc <_free_r>
    f910:	e3a03000 	mov	r3, #0
    f914:	e5843030 	str	r3, [r4, #48]	; 0x30
    f918:	e5941044 	ldr	r1, [r4, #68]	; 0x44
    f91c:	e3510000 	cmp	r1, #0
    f920:	0a000003 	beq	f934 <_fclose_r+0xb8>
    f924:	e1a00005 	mov	r0, r5
    f928:	ebffdda3 	bl	6fbc <_free_r>
    f92c:	e3a03000 	mov	r3, #0
    f930:	e5843044 	str	r3, [r4, #68]	; 0x44
    f934:	e3a03000 	mov	r3, #0
    f938:	e1c430bc 	strh	r3, [r4, #12]
    f93c:	ebffdcaa 	bl	6bec <__sfp_lock_release>
    f940:	e1a00006 	mov	r0, r6
    f944:	e8bd4070 	pop	{r4, r5, r6, lr}
    f948:	e12fff1e 	bx	lr
    f94c:	e1a00005 	mov	r0, r5
    f950:	ebffdc48 	bl	6a78 <__sinit>
    f954:	e1d460fc 	ldrsh	r6, [r4, #12]
    f958:	e3560000 	cmp	r6, #0
    f95c:	1affffd4 	bne	f8b4 <_fclose_r+0x38>
    f960:	eafffff5 	b	f93c <_fclose_r+0xc0>
    f964:	e1a00005 	mov	r0, r5
    f968:	e5941010 	ldr	r1, [r4, #16]
    f96c:	ebffdd92 	bl	6fbc <_free_r>
    f970:	eaffffdf 	b	f8f4 <_fclose_r+0x78>

0000f974 <fclose>:
    f974:	e59f3008 	ldr	r3, [pc, #8]	; f984 <fclose+0x10>
    f978:	e1a01000 	mov	r1, r0
    f97c:	e5930000 	ldr	r0, [r3]
    f980:	eaffffbd 	b	f87c <_fclose_r>
    f984:	00013c00 	.word	0x00013c00

0000f988 <_fputwc_r>:
    f988:	e1d230bc 	ldrh	r3, [r2, #12]
    f98c:	e92d45f0 	push	{r4, r5, r6, r7, r8, r10, lr}
    f990:	e3130a02 	tst	r3, #8192	; 0x2000
    f994:	e1a04002 	mov	r4, r2
    f998:	05922064 	ldreq	r2, [r2, #100]	; 0x64
    f99c:	03833a02 	orreq	r3, r3, #8192	; 0x2000
    f9a0:	03822a02 	orreq	r2, r2, #8192	; 0x2000
    f9a4:	01c430bc 	strheq	r3, [r4, #12]
    f9a8:	05842064 	streq	r2, [r4, #100]	; 0x64
    f9ac:	e24dd00c 	sub	sp, sp, #12
    f9b0:	e1a07000 	mov	r7, r0
    f9b4:	e1a06001 	mov	r6, r1
    f9b8:	ebffdfb7 	bl	789c <__locale_mb_cur_max>
    f9bc:	e3500001 	cmp	r0, #1
    f9c0:	0a000039 	beq	faac <_fputwc_r+0x124>
    f9c4:	e28d8004 	add	r8, sp, #4
    f9c8:	e1a00007 	mov	r0, r7
    f9cc:	e1a01008 	mov	r1, r8
    f9d0:	e1a02006 	mov	r2, r6
    f9d4:	e284305c 	add	r3, r4, #92	; 0x5c
    f9d8:	eb000943 	bl	11eec <_wcrtomb_r>
    f9dc:	e3700001 	cmn	r0, #1
    f9e0:	e1a0a000 	mov	r10, r0
    f9e4:	0a000022 	beq	fa74 <_fputwc_r+0xec>
    f9e8:	e3500000 	cmp	r0, #0
    f9ec:	0a000035 	beq	fac8 <_fputwc_r+0x140>
    f9f0:	e3a05000 	mov	r5, #0
    f9f4:	ea000008 	b	fa1c <_fputwc_r+0x94>
    f9f8:	e5943000 	ldr	r3, [r4]
    f9fc:	e7d82005 	ldrb	r2, [r8, r5]
    fa00:	e5c32000 	strb	r2, [r3]
    fa04:	e5943000 	ldr	r3, [r4]
    fa08:	e2833001 	add	r3, r3, #1
    fa0c:	e5843000 	str	r3, [r4]
    fa10:	e2855001 	add	r5, r5, #1
    fa14:	e155000a 	cmp	r5, r10
    fa18:	2a00002a 	bcs	fac8 <_fputwc_r+0x140>
    fa1c:	e5943008 	ldr	r3, [r4, #8]
    fa20:	e2433001 	sub	r3, r3, #1
    fa24:	e3530000 	cmp	r3, #0
    fa28:	e5843008 	str	r3, [r4, #8]
    fa2c:	aafffff1 	bge	f9f8 <_fputwc_r+0x70>
    fa30:	e5942018 	ldr	r2, [r4, #24]
    fa34:	e1530002 	cmp	r3, r2
    fa38:	ba000013 	blt	fa8c <_fputwc_r+0x104>
    fa3c:	e5943000 	ldr	r3, [r4]
    fa40:	e7d82005 	ldrb	r2, [r8, r5]
    fa44:	e5c32000 	strb	r2, [r3]
    fa48:	e5943000 	ldr	r3, [r4]
    fa4c:	e5d31000 	ldrb	r1, [r3]
    fa50:	e351000a 	cmp	r1, #10
    fa54:	0a00001d 	beq	fad0 <_fputwc_r+0x148>
    fa58:	e2833001 	add	r3, r3, #1
    fa5c:	e5843000 	str	r3, [r4]
    fa60:	e3a00000 	mov	r0, #0
    fa64:	e3500000 	cmp	r0, #0
    fa68:	0affffe8 	beq	fa10 <_fputwc_r+0x88>
    fa6c:	e3e00000 	mvn	r0, #0
    fa70:	ea000002 	b	fa80 <_fputwc_r+0xf8>
    fa74:	e1d430bc 	ldrh	r3, [r4, #12]
    fa78:	e3833040 	orr	r3, r3, #64	; 0x40
    fa7c:	e1c430bc 	strh	r3, [r4, #12]
    fa80:	e28dd00c 	add	sp, sp, #12
    fa84:	e8bd45f0 	pop	{r4, r5, r6, r7, r8, r10, lr}
    fa88:	e12fff1e 	bx	lr
    fa8c:	e7d81005 	ldrb	r1, [r8, r5]
    fa90:	e1a00007 	mov	r0, r7
    fa94:	e1a02004 	mov	r2, r4
    fa98:	eb0008c0 	bl	11da0 <__swbuf_r>
    fa9c:	e3700001 	cmn	r0, #1
    faa0:	13a00000 	movne	r0, #0
    faa4:	03a00001 	moveq	r0, #1
    faa8:	eaffffed 	b	fa64 <_fputwc_r+0xdc>
    faac:	e2463001 	sub	r3, r6, #1
    fab0:	e35300fe 	cmp	r3, #254	; 0xfe
    fab4:	8affffc2 	bhi	f9c4 <_fputwc_r+0x3c>
    fab8:	e28d8008 	add	r8, sp, #8
    fabc:	e5686004 	strb	r6, [r8, #-4]!
    fac0:	e1a0a000 	mov	r10, r0
    fac4:	eaffffc9 	b	f9f0 <_fputwc_r+0x68>
    fac8:	e1a00006 	mov	r0, r6
    facc:	eaffffeb 	b	fa80 <_fputwc_r+0xf8>
    fad0:	e1a00007 	mov	r0, r7
    fad4:	eaffffee 	b	fa94 <_fputwc_r+0x10c>

0000fad8 <fputwc>:
    fad8:	e92d4070 	push	{r4, r5, r6, lr}
    fadc:	e59f403c 	ldr	r4, [pc, #60]	; fb20 <fputwc+0x48>
    fae0:	e5943000 	ldr	r3, [r4]
    fae4:	e3530000 	cmp	r3, #0
    fae8:	e1a06000 	mov	r6, r0
    faec:	e1a05001 	mov	r5, r1
    faf0:	0a000005 	beq	fb0c <fputwc+0x34>
    faf4:	e5932038 	ldr	r2, [r3, #56]	; 0x38
    faf8:	e3520000 	cmp	r2, #0
    fafc:	1a000002 	bne	fb0c <fputwc+0x34>
    fb00:	e1a00003 	mov	r0, r3
    fb04:	ebffdbdb 	bl	6a78 <__sinit>
    fb08:	e5943000 	ldr	r3, [r4]
    fb0c:	e1a00003 	mov	r0, r3
    fb10:	e1a01006 	mov	r1, r6
    fb14:	e1a02005 	mov	r2, r5
    fb18:	e8bd4070 	pop	{r4, r5, r6, lr}
    fb1c:	eaffff99 	b	f988 <_fputwc_r>
    fb20:	00013c00 	.word	0x00013c00

0000fb24 <_fstat_r>:
    fb24:	e92d4038 	push	{r3, r4, r5, lr}
    fb28:	e59f4030 	ldr	r4, [pc, #48]	; fb60 <_fstat_r+0x3c>
    fb2c:	e3a03000 	mov	r3, #0
    fb30:	e1a05000 	mov	r5, r0
    fb34:	e1a00001 	mov	r0, r1
    fb38:	e1a01002 	mov	r1, r2
    fb3c:	e5843000 	str	r3, [r4]
    fb40:	eb000d5c 	bl	130b8 <_fstat>
    fb44:	e3700001 	cmn	r0, #1
    fb48:	1a000002 	bne	fb58 <_fstat_r+0x34>
    fb4c:	e5943000 	ldr	r3, [r4]
    fb50:	e3530000 	cmp	r3, #0
    fb54:	15853000 	strne	r3, [r5]
    fb58:	e8bd4038 	pop	{r3, r4, r5, lr}
    fb5c:	e12fff1e 	bx	lr
    fb60:	00014654 	.word	0x00014654

0000fb64 <rshift>:
    fb64:	e5902010 	ldr	r2, [r0, #16]
    fb68:	e1a032c1 	asr	r3, r1, #5
    fb6c:	e1530002 	cmp	r3, r2
    fb70:	e92d01f0 	push	{r4, r5, r6, r7, r8}
    fb74:	e2806014 	add	r6, r0, #20
    fb78:	aa000020 	bge	fc00 <rshift+0x9c>
    fb7c:	e2833004 	add	r3, r3, #4
    fb80:	e0802102 	add	r2, r0, r2, lsl #2
    fb84:	e0803103 	add	r3, r0, r3, lsl #2
    fb88:	e211101f 	ands	r1, r1, #31
    fb8c:	e2822014 	add	r2, r2, #20
    fb90:	e2837004 	add	r7, r3, #4
    fb94:	0a00001f 	beq	fc18 <rshift+0xb4>
    fb98:	e593c004 	ldr	r12, [r3, #4]
    fb9c:	e2873004 	add	r3, r7, #4
    fba0:	e1520003 	cmp	r2, r3
    fba4:	e2618020 	rsb	r8, r1, #32
    fba8:	e1a0c13c 	lsr	r12, r12, r1
    fbac:	9a00002c 	bls	fc64 <rshift+0x100>
    fbb0:	e1a04006 	mov	r4, r6
    fbb4:	e5935000 	ldr	r5, [r3]
    fbb8:	e18cc815 	orr	r12, r12, r5, lsl r8
    fbbc:	e484c004 	str	r12, [r4], #4
    fbc0:	e493c004 	ldr	r12, [r3], #4
    fbc4:	e1520003 	cmp	r2, r3
    fbc8:	e1a0c13c 	lsr	r12, r12, r1
    fbcc:	8afffff8 	bhi	fbb4 <rshift+0x50>
    fbd0:	e0673002 	rsb	r3, r7, r2
    fbd4:	e2433005 	sub	r3, r3, #5
    fbd8:	e3c33003 	bic	r3, r3, #3
    fbdc:	e0803003 	add	r3, r0, r3
    fbe0:	e2833018 	add	r3, r3, #24
    fbe4:	e35c0000 	cmp	r12, #0
    fbe8:	e583c000 	str	r12, [r3]
    fbec:	0a000016 	beq	fc4c <rshift+0xe8>
    fbf0:	e2833004 	add	r3, r3, #4
    fbf4:	e0666003 	rsb	r6, r6, r3
    fbf8:	e1a06146 	asr	r6, r6, #2
    fbfc:	ea000014 	b	fc54 <rshift+0xf0>
    fc00:	e3a03000 	mov	r3, #0
    fc04:	e5803010 	str	r3, [r0, #16]
    fc08:	e3a03000 	mov	r3, #0
    fc0c:	e5803014 	str	r3, [r0, #20]
    fc10:	e8bd01f0 	pop	{r4, r5, r6, r7, r8}
    fc14:	e12fff1e 	bx	lr
    fc18:	e1520007 	cmp	r2, r7
    fc1c:	81a03007 	movhi	r3, r7
    fc20:	81a01006 	movhi	r1, r6
    fc24:	9afffff5 	bls	fc00 <rshift+0x9c>
    fc28:	e493c004 	ldr	r12, [r3], #4
    fc2c:	e1520003 	cmp	r2, r3
    fc30:	e481c004 	str	r12, [r1], #4
    fc34:	8afffffb 	bhi	fc28 <rshift+0xc4>
    fc38:	e1e03007 	mvn	r3, r7
    fc3c:	e0833002 	add	r3, r3, r2
    fc40:	e3c33003 	bic	r3, r3, #3
    fc44:	e0803003 	add	r3, r0, r3
    fc48:	e2833018 	add	r3, r3, #24
    fc4c:	e0666003 	rsb	r6, r6, r3
    fc50:	e1a06146 	asr	r6, r6, #2
    fc54:	e3560000 	cmp	r6, #0
    fc58:	e5806010 	str	r6, [r0, #16]
    fc5c:	1affffeb 	bne	fc10 <rshift+0xac>
    fc60:	eaffffe8 	b	fc08 <rshift+0xa4>
    fc64:	e1a03006 	mov	r3, r6
    fc68:	eaffffdd 	b	fbe4 <rshift+0x80>

0000fc6c <__hexdig_init>:
    fc6c:	e59f006c 	ldr	r0, [pc, #108]	; fce0 <__hexdig_init+0x74>
    fc70:	e59f306c 	ldr	r3, [pc, #108]	; fce4 <__hexdig_init+0x78>
    fc74:	e3a01010 	mov	r1, #16
    fc78:	e3a02030 	mov	r2, #48	; 0x30
    fc7c:	e7c31002 	strb	r1, [r3, r2]
    fc80:	e5f02001 	ldrb	r2, [r0, #1]!
    fc84:	e2811001 	add	r1, r1, #1
    fc88:	e3520000 	cmp	r2, #0
    fc8c:	e20110ff 	and	r1, r1, #255	; 0xff
    fc90:	1afffff9 	bne	fc7c <__hexdig_init+0x10>
    fc94:	e59f004c 	ldr	r0, [pc, #76]	; fce8 <__hexdig_init+0x7c>
    fc98:	e3a0101a 	mov	r1, #26
    fc9c:	e3a02061 	mov	r2, #97	; 0x61
    fca0:	e7c31002 	strb	r1, [r3, r2]
    fca4:	e5f02001 	ldrb	r2, [r0, #1]!
    fca8:	e2811001 	add	r1, r1, #1
    fcac:	e3520000 	cmp	r2, #0
    fcb0:	e20110ff 	and	r1, r1, #255	; 0xff
    fcb4:	1afffff9 	bne	fca0 <__hexdig_init+0x34>
    fcb8:	e59f002c 	ldr	r0, [pc, #44]	; fcec <__hexdig_init+0x80>
    fcbc:	e3a0101a 	mov	r1, #26
    fcc0:	e3a02041 	mov	r2, #65	; 0x41
    fcc4:	e7c31002 	strb	r1, [r3, r2]
    fcc8:	e5f02001 	ldrb	r2, [r0, #1]!
    fccc:	e2811001 	add	r1, r1, #1
    fcd0:	e3520000 	cmp	r2, #0
    fcd4:	e20110ff 	and	r1, r1, #255	; 0xff
    fcd8:	1afffff9 	bne	fcc4 <__hexdig_init+0x58>
    fcdc:	e12fff1e 	bx	lr
    fce0:	00013b70 	.word	0x00013b70
    fce4:	00014554 	.word	0x00014554
    fce8:	00013b68 	.word	0x00013b68
    fcec:	00013b60 	.word	0x00013b60

0000fcf0 <__gethex>:
    fcf0:	e92d4ff0 	push	{r4, r5, r6, r7, r8, r9, r10, r11, lr}
    fcf4:	e24dd02c 	sub	sp, sp, #44	; 0x2c
    fcf8:	e1a08001 	mov	r8, r1
    fcfc:	e58d2018 	str	r2, [sp, #24]
    fd00:	e58d3024 	str	r3, [sp, #36]	; 0x24
    fd04:	e58d001c 	str	r0, [sp, #28]
    fd08:	ebffdeec 	bl	78c0 <_localeconv_r>
    fd0c:	e5900000 	ldr	r0, [r0]
    fd10:	e58d0008 	str	r0, [sp, #8]
    fd14:	ebffc54f 	bl	1258 <strlen>
    fd18:	e59f6810 	ldr	r6, [pc, #2064]	; 10530 <__gethex+0x840>
    fd1c:	e59d1008 	ldr	r1, [sp, #8]
    fd20:	e5d62030 	ldrb	r2, [r6, #48]	; 0x30
    fd24:	e0813000 	add	r3, r1, r0
    fd28:	e3520000 	cmp	r2, #0
    fd2c:	e58d000c 	str	r0, [sp, #12]
    fd30:	e5539001 	ldrb	r9, [r3, #-1]
    fd34:	0a0000e6 	beq	100d4 <__gethex+0x3e4>
    fd38:	e5983000 	ldr	r3, [r8]
    fd3c:	e5d32002 	ldrb	r2, [r3, #2]
    fd40:	e3520030 	cmp	r2, #48	; 0x30
    fd44:	e2835002 	add	r5, r3, #2
    fd48:	1a000146 	bne	10268 <__gethex+0x578>
    fd4c:	e2833003 	add	r3, r3, #3
    fd50:	e3a07000 	mov	r7, #0
    fd54:	e1a05003 	mov	r5, r3
    fd58:	e4d32001 	ldrb	r2, [r3], #1
    fd5c:	e3520030 	cmp	r2, #48	; 0x30
    fd60:	e2877001 	add	r7, r7, #1
    fd64:	0afffffa 	beq	fd54 <__gethex+0x64>
    fd68:	e7d6b002 	ldrb	r11, [r6, r2]
    fd6c:	e35b0000 	cmp	r11, #0
    fd70:	e59f47b8 	ldr	r4, [pc, #1976]	; 10530 <__gethex+0x840>
    fd74:	0a0000b9 	beq	10060 <__gethex+0x370>
    fd78:	e5d53000 	ldrb	r3, [r5]
    fd7c:	e7d44003 	ldrb	r4, [r4, r3]
    fd80:	e3540000 	cmp	r4, #0
    fd84:	13a0b000 	movne	r11, #0
    fd88:	0a0001de 	beq	10508 <__gethex+0x818>
    fd8c:	e2853001 	add	r3, r5, #1
    fd90:	e1a04003 	mov	r4, r3
    fd94:	e5d33000 	ldrb	r3, [r3]
    fd98:	e7d6a003 	ldrb	r10, [r6, r3]
    fd9c:	e35a0000 	cmp	r10, #0
    fda0:	e2843001 	add	r3, r4, #1
    fda4:	1afffff9 	bne	fd90 <__gethex+0xa0>
    fda8:	e28d1008 	add	r1, sp, #8
    fdac:	e1a00004 	mov	r0, r4
    fdb0:	e8910006 	ldm	r1, {r1, r2}
    fdb4:	eb000320 	bl	10a3c <strncmp>
    fdb8:	e3500000 	cmp	r0, #0
    fdbc:	0a000014 	beq	fe14 <__gethex+0x124>
    fdc0:	e35b0000 	cmp	r11, #0
    fdc4:	e5d43000 	ldrb	r3, [r4]
    fdc8:	0a000001 	beq	fdd4 <__gethex+0xe4>
    fdcc:	e064b00b 	rsb	r11, r4, r11
    fdd0:	e1a0b10b 	lsl	r11, r11, #2
    fdd4:	e58db014 	str	r11, [sp, #20]
    fdd8:	e3530050 	cmp	r3, #80	; 0x50
    fddc:	0a000077 	beq	ffc0 <__gethex+0x2d0>
    fde0:	e3530070 	cmp	r3, #112	; 0x70
    fde4:	0a000075 	beq	ffc0 <__gethex+0x2d0>
    fde8:	e1a02004 	mov	r2, r4
    fdec:	e35a0000 	cmp	r10, #0
    fdf0:	e5882000 	str	r2, [r8]
    fdf4:	0a00000a 	beq	fe24 <__gethex+0x134>
    fdf8:	e3570000 	cmp	r7, #0
    fdfc:	03a07006 	moveq	r7, #6
    fe00:	13a07000 	movne	r7, #0
    fe04:	e1a00007 	mov	r0, r7
    fe08:	e28dd02c 	add	sp, sp, #44	; 0x2c
    fe0c:	e8bd4ff0 	pop	{r4, r5, r6, r7, r8, r9, r10, r11, lr}
    fe10:	e12fff1e 	bx	lr
    fe14:	e35b0000 	cmp	r11, #0
    fe18:	0a000130 	beq	102e0 <__gethex+0x5f0>
    fe1c:	e5d43000 	ldrb	r3, [r4]
    fe20:	eaffffe9 	b	fdcc <__gethex+0xdc>
    fe24:	e0653004 	rsb	r3, r5, r4
    fe28:	e2433001 	sub	r3, r3, #1
    fe2c:	e3530007 	cmp	r3, #7
    fe30:	e1a0100a 	mov	r1, r10
    fe34:	da000003 	ble	fe48 <__gethex+0x158>
    fe38:	e1a030c3 	asr	r3, r3, #1
    fe3c:	e3530007 	cmp	r3, #7
    fe40:	e2811001 	add	r1, r1, #1
    fe44:	cafffffb 	bgt	fe38 <__gethex+0x148>
    fe48:	e59d001c 	ldr	r0, [sp, #28]
    fe4c:	ebffe2a3 	bl	88e0 <_Balloc>
    fe50:	e1550004 	cmp	r5, r4
    fe54:	e2803014 	add	r3, r0, #20
    fe58:	e58d0010 	str	r0, [sp, #16]
    fe5c:	e58d3020 	str	r3, [sp, #32]
    fe60:	2a000167 	bcs	10404 <__gethex+0x714>
    fe64:	e1a0b003 	mov	r11, r3
    fe68:	e59d300c 	ldr	r3, [sp, #12]
    fe6c:	e3a08000 	mov	r8, #0
    fe70:	e1a07008 	mov	r7, r8
    fe74:	e263c001 	rsb	r12, r3, #1
    fe78:	ea00000a 	b	fea8 <__gethex+0x1b8>
    fe7c:	e3570020 	cmp	r7, #32
    fe80:	11a03007 	movne	r3, r7
    fe84:	12877004 	addne	r7, r7, #4
    fe88:	0a000047 	beq	ffac <__gethex+0x2bc>
    fe8c:	e5542001 	ldrb	r2, [r4, #-1]
    fe90:	e7d62002 	ldrb	r2, [r6, r2]
    fe94:	e1a0400a 	mov	r4, r10
    fe98:	e202200f 	and	r2, r2, #15
    fe9c:	e1550004 	cmp	r5, r4
    fea0:	e1888312 	orr	r8, r8, r2, lsl r3
    fea4:	2a000013 	bcs	fef8 <__gethex+0x208>
    fea8:	e5543001 	ldrb	r3, [r4, #-1]
    feac:	e1530009 	cmp	r3, r9
    feb0:	e244a001 	sub	r10, r4, #1
    feb4:	1afffff0 	bne	fe7c <__gethex+0x18c>
    feb8:	e08a300c 	add	r3, r10, r12
    febc:	e1550003 	cmp	r5, r3
    fec0:	8affffed 	bhi	fe7c <__gethex+0x18c>
    fec4:	e28d1008 	add	r1, sp, #8
    fec8:	e8910006 	ldm	r1, {r1, r2}
    fecc:	e1a00003 	mov	r0, r3
    fed0:	e58d3004 	str	r3, [sp, #4]
    fed4:	e58dc000 	str	r12, [sp]
    fed8:	eb0002d7 	bl	10a3c <strncmp>
    fedc:	e59d3004 	ldr	r3, [sp, #4]
    fee0:	e3500000 	cmp	r0, #0
    fee4:	e59dc000 	ldr	r12, [sp]
    fee8:	01a04003 	moveq	r4, r3
    feec:	1affffe2 	bne	fe7c <__gethex+0x18c>
    fef0:	e1550004 	cmp	r5, r4
    fef4:	3affffeb 	bcc	fea8 <__gethex+0x1b8>
    fef8:	e48b8004 	str	r8, [r11], #4
    fefc:	e59d3020 	ldr	r3, [sp, #32]
    ff00:	e063b00b 	rsb	r11, r3, r11
    ff04:	e59d3010 	ldr	r3, [sp, #16]
    ff08:	e1a0b14b 	asr	r11, r11, #2
    ff0c:	e583b010 	str	r11, [r3, #16]
    ff10:	e1a00008 	mov	r0, r8
    ff14:	ebffe30e 	bl	8b54 <__hi0bits>
    ff18:	e59d1018 	ldr	r1, [sp, #24]
    ff1c:	e1a0b28b 	lsl	r11, r11, #5
    ff20:	e5914000 	ldr	r4, [r1]
    ff24:	e060000b 	rsb	r0, r0, r11
    ff28:	e1500004 	cmp	r0, r4
    ff2c:	ca0000a0 	bgt	101b4 <__gethex+0x4c4>
    ff30:	a3a05000 	movge	r5, #0
    ff34:	ba0000be 	blt	10234 <__gethex+0x544>
    ff38:	e59d0018 	ldr	r0, [sp, #24]
    ff3c:	e59d1014 	ldr	r1, [sp, #20]
    ff40:	e5903008 	ldr	r3, [r0, #8]
    ff44:	e1510003 	cmp	r1, r3
    ff48:	ca000074 	bgt	10120 <__gethex+0x430>
    ff4c:	e59d0018 	ldr	r0, [sp, #24]
    ff50:	e59d1014 	ldr	r1, [sp, #20]
    ff54:	e5903004 	ldr	r3, [r0, #4]
    ff58:	e1510003 	cmp	r1, r3
    ff5c:	ba00007c 	blt	10154 <__gethex+0x464>
    ff60:	e3a07001 	mov	r7, #1
    ff64:	e3550000 	cmp	r5, #0
    ff68:	0a000008 	beq	ff90 <__gethex+0x2a0>
    ff6c:	e59d0018 	ldr	r0, [sp, #24]
    ff70:	e590300c 	ldr	r3, [r0, #12]
    ff74:	e3530002 	cmp	r3, #2
    ff78:	0a000128 	beq	10420 <__gethex+0x730>
    ff7c:	e3530003 	cmp	r3, #3
    ff80:	0a000122 	beq	10410 <__gethex+0x720>
    ff84:	e3530001 	cmp	r3, #1
    ff88:	0a0000f4 	beq	10360 <__gethex+0x670>
    ff8c:	e3877010 	orr	r7, r7, #16
    ff90:	e59d3010 	ldr	r3, [sp, #16]
    ff94:	e59d0050 	ldr	r0, [sp, #80]	; 0x50
    ff98:	e5803000 	str	r3, [r0]
    ff9c:	e59d3014 	ldr	r3, [sp, #20]
    ffa0:	e59d0024 	ldr	r0, [sp, #36]	; 0x24
    ffa4:	e5803000 	str	r3, [r0]
    ffa8:	eaffff95 	b	fe04 <__gethex+0x114>
    ffac:	e48b8004 	str	r8, [r11], #4
    ffb0:	e3a08000 	mov	r8, #0
    ffb4:	e3a07004 	mov	r7, #4
    ffb8:	e1a03008 	mov	r3, r8
    ffbc:	eaffffb2 	b	fe8c <__gethex+0x19c>
    ffc0:	e5d43001 	ldrb	r3, [r4, #1]
    ffc4:	e353002b 	cmp	r3, #43	; 0x2b
    ffc8:	0a000073 	beq	1019c <__gethex+0x4ac>
    ffcc:	e353002d 	cmp	r3, #45	; 0x2d
    ffd0:	0a000075 	beq	101ac <__gethex+0x4bc>
    ffd4:	e2840001 	add	r0, r4, #1
    ffd8:	e3a0b000 	mov	r11, #0
    ffdc:	e7d61003 	ldrb	r1, [r6, r3]
    ffe0:	e3510000 	cmp	r1, #0
    ffe4:	0affff7f 	beq	fde8 <__gethex+0xf8>
    ffe8:	e3510019 	cmp	r1, #25
    ffec:	caffff7d 	bgt	fde8 <__gethex+0xf8>
    fff0:	e59f2538 	ldr	r2, [pc, #1336]	; 10530 <__gethex+0x840>
    fff4:	e5d03001 	ldrb	r3, [r0, #1]
    fff8:	e7d23003 	ldrb	r3, [r2, r3]
    fffc:	e3530000 	cmp	r3, #0
   10000:	e2411010 	sub	r1, r1, #16
   10004:	e2802001 	add	r2, r0, #1
   10008:	0a00000e 	beq	10048 <__gethex+0x358>
   1000c:	e3530019 	cmp	r3, #25
   10010:	ca00000c 	bgt	10048 <__gethex+0x358>
   10014:	e2800002 	add	r0, r0, #2
   10018:	ea000001 	b	10024 <__gethex+0x334>
   1001c:	e3530019 	cmp	r3, #25
   10020:	ca000008 	bgt	10048 <__gethex+0x358>
   10024:	e5d0c000 	ldrb	r12, [r0]
   10028:	e0811101 	add	r1, r1, r1, lsl #2
   1002c:	e0831081 	add	r1, r3, r1, lsl #1
   10030:	e7d6300c 	ldrb	r3, [r6, r12]
   10034:	e3530000 	cmp	r3, #0
   10038:	e1a02000 	mov	r2, r0
   1003c:	e2411010 	sub	r1, r1, #16
   10040:	e2800001 	add	r0, r0, #1
   10044:	1afffff4 	bne	1001c <__gethex+0x32c>
   10048:	e59d3014 	ldr	r3, [sp, #20]
   1004c:	e35b0000 	cmp	r11, #0
   10050:	12611000 	rsbne	r1, r1, #0
   10054:	e0833001 	add	r3, r3, r1
   10058:	e58d3014 	str	r3, [sp, #20]
   1005c:	eaffff62 	b	fdec <__gethex+0xfc>
   10060:	e28d1008 	add	r1, sp, #8
   10064:	e1a00005 	mov	r0, r5
   10068:	e8910006 	ldm	r1, {r1, r2}
   1006c:	eb000272 	bl	10a3c <strncmp>
   10070:	e3500000 	cmp	r0, #0
   10074:	1a000031 	bne	10140 <__gethex+0x450>
   10078:	e59d200c 	ldr	r2, [sp, #12]
   1007c:	e7d53002 	ldrb	r3, [r5, r2]
   10080:	e7d4b003 	ldrb	r11, [r4, r3]
   10084:	e35b0000 	cmp	r11, #0
   10088:	e0854002 	add	r4, r5, r2
   1008c:	058db014 	streq	r11, [sp, #20]
   10090:	03a0a001 	moveq	r10, #1
   10094:	0affff4f 	beq	fdd8 <__gethex+0xe8>
   10098:	e3530030 	cmp	r3, #48	; 0x30
   1009c:	1a00009c 	bne	10314 <__gethex+0x624>
   100a0:	e2843001 	add	r3, r4, #1
   100a4:	e1a05003 	mov	r5, r3
   100a8:	e4d32001 	ldrb	r2, [r3], #1
   100ac:	e3520030 	cmp	r2, #48	; 0x30
   100b0:	0afffffb 	beq	100a4 <__gethex+0x3b4>
   100b4:	e7d63002 	ldrb	r3, [r6, r2]
   100b8:	e3530000 	cmp	r3, #0
   100bc:	1a000095 	bne	10318 <__gethex+0x628>
   100c0:	e3a0a001 	mov	r10, #1
   100c4:	e1a0b004 	mov	r11, r4
   100c8:	e1a0700a 	mov	r7, r10
   100cc:	e1a04005 	mov	r4, r5
   100d0:	eaffff34 	b	fda8 <__gethex+0xb8>
   100d4:	ebfffee4 	bl	fc6c <__hexdig_init>
   100d8:	eaffff16 	b	fd38 <__gethex+0x48>
   100dc:	e59d3010 	ldr	r3, [sp, #16]
   100e0:	e0835105 	add	r5, r3, r5, lsl #2
   100e4:	e5950010 	ldr	r0, [r5, #16]
   100e8:	ebffe299 	bl	8b54 <__hi0bits>
   100ec:	e2643020 	rsb	r3, r4, #32
   100f0:	e1500003 	cmp	r0, r3
   100f4:	aa0000c0 	bge	103fc <__gethex+0x70c>
   100f8:	e3a01001 	mov	r1, #1
   100fc:	e59d0010 	ldr	r0, [sp, #16]
   10100:	ebfffe97 	bl	fb64 <rshift>
   10104:	e59d1018 	ldr	r1, [sp, #24]
   10108:	e59d2014 	ldr	r2, [sp, #20]
   1010c:	e5913008 	ldr	r3, [r1, #8]
   10110:	e2822001 	add	r2, r2, #1
   10114:	e1520003 	cmp	r2, r3
   10118:	e58d2014 	str	r2, [sp, #20]
   1011c:	da0000b6 	ble	103fc <__gethex+0x70c>
   10120:	e59d001c 	ldr	r0, [sp, #28]
   10124:	e59d1010 	ldr	r1, [sp, #16]
   10128:	ebffe20f 	bl	896c <_Bfree>
   1012c:	e59d2050 	ldr	r2, [sp, #80]	; 0x50
   10130:	e3a03000 	mov	r3, #0
   10134:	e5823000 	str	r3, [r2]
   10138:	e3a070a3 	mov	r7, #163	; 0xa3
   1013c:	eaffff30 	b	fe04 <__gethex+0x114>
   10140:	e5d53000 	ldrb	r3, [r5]
   10144:	e1a04005 	mov	r4, r5
   10148:	e58db014 	str	r11, [sp, #20]
   1014c:	e3a0a001 	mov	r10, #1
   10150:	eaffff20 	b	fdd8 <__gethex+0xe8>
   10154:	e0616003 	rsb	r6, r1, r3
   10158:	e1540006 	cmp	r4, r6
   1015c:	ca000043 	bgt	10270 <__gethex+0x580>
   10160:	e590200c 	ldr	r2, [r0, #12]
   10164:	e3520002 	cmp	r2, #2
   10168:	0a00006d 	beq	10324 <__gethex+0x634>
   1016c:	e3520003 	cmp	r2, #3
   10170:	0a0000b9 	beq	1045c <__gethex+0x76c>
   10174:	e3520001 	cmp	r2, #1
   10178:	0a0000ab 	beq	1042c <__gethex+0x73c>
   1017c:	e59d1010 	ldr	r1, [sp, #16]
   10180:	e59d001c 	ldr	r0, [sp, #28]
   10184:	ebffe1f8 	bl	896c <_Bfree>
   10188:	e59d1050 	ldr	r1, [sp, #80]	; 0x50
   1018c:	e3a03000 	mov	r3, #0
   10190:	e5813000 	str	r3, [r1]
   10194:	e3a07050 	mov	r7, #80	; 0x50
   10198:	eaffff19 	b	fe04 <__gethex+0x114>
   1019c:	e3a0b000 	mov	r11, #0
   101a0:	e5d43002 	ldrb	r3, [r4, #2]
   101a4:	e2840002 	add	r0, r4, #2
   101a8:	eaffff8b 	b	ffdc <__gethex+0x2ec>
   101ac:	e3a0b001 	mov	r11, #1
   101b0:	eafffffa 	b	101a0 <__gethex+0x4b0>
   101b4:	e0646000 	rsb	r6, r4, r0
   101b8:	e1a01006 	mov	r1, r6
   101bc:	e59d0010 	ldr	r0, [sp, #16]
   101c0:	ebffe4ec 	bl	9578 <__any_on>
   101c4:	e3500000 	cmp	r0, #0
   101c8:	01a05000 	moveq	r5, r0
   101cc:	0a000011 	beq	10218 <__gethex+0x528>
   101d0:	e2463001 	sub	r3, r6, #1
   101d4:	e59d0010 	ldr	r0, [sp, #16]
   101d8:	e1a022c3 	asr	r2, r3, #5
   101dc:	e0802102 	add	r2, r0, r2, lsl #2
   101e0:	e5922014 	ldr	r2, [r2, #20]
   101e4:	e203101f 	and	r1, r3, #31
   101e8:	e3a05001 	mov	r5, #1
   101ec:	e0122115 	ands	r2, r2, r5, lsl r1
   101f0:	0a000008 	beq	10218 <__gethex+0x528>
   101f4:	e1530005 	cmp	r3, r5
   101f8:	da000005 	ble	10214 <__gethex+0x524>
   101fc:	e59d0010 	ldr	r0, [sp, #16]
   10200:	e2461002 	sub	r1, r6, #2
   10204:	ebffe4db 	bl	9578 <__any_on>
   10208:	e3500000 	cmp	r0, #0
   1020c:	13a05003 	movne	r5, #3
   10210:	1a000000 	bne	10218 <__gethex+0x528>
   10214:	e3a05002 	mov	r5, #2
   10218:	e59d0010 	ldr	r0, [sp, #16]
   1021c:	e1a01006 	mov	r1, r6
   10220:	ebfffe4f 	bl	fb64 <rshift>
   10224:	e59d3014 	ldr	r3, [sp, #20]
   10228:	e0833006 	add	r3, r3, r6
   1022c:	e58d3014 	str	r3, [sp, #20]
   10230:	eaffff40 	b	ff38 <__gethex+0x248>
   10234:	e0605004 	rsb	r5, r0, r4
   10238:	e1a02005 	mov	r2, r5
   1023c:	e59d001c 	ldr	r0, [sp, #28]
   10240:	e59d1010 	ldr	r1, [sp, #16]
   10244:	ebffe33a 	bl	8f34 <__lshift>
   10248:	e59d3014 	ldr	r3, [sp, #20]
   1024c:	e0653003 	rsb	r3, r5, r3
   10250:	e58d3014 	str	r3, [sp, #20]
   10254:	e2803014 	add	r3, r0, #20
   10258:	e58d0010 	str	r0, [sp, #16]
   1025c:	e58d3020 	str	r3, [sp, #32]
   10260:	e3a05000 	mov	r5, #0
   10264:	eaffff33 	b	ff38 <__gethex+0x248>
   10268:	e3a07000 	mov	r7, #0
   1026c:	eafffebd 	b	fd68 <__gethex+0x78>
   10270:	e3550000 	cmp	r5, #0
   10274:	e2467001 	sub	r7, r6, #1
   10278:	13a05001 	movne	r5, #1
   1027c:	1a000005 	bne	10298 <__gethex+0x5a8>
   10280:	e3570000 	cmp	r7, #0
   10284:	da000003 	ble	10298 <__gethex+0x5a8>
   10288:	e59d0010 	ldr	r0, [sp, #16]
   1028c:	e1a01007 	mov	r1, r7
   10290:	ebffe4b8 	bl	9578 <__any_on>
   10294:	e1a05000 	mov	r5, r0
   10298:	e59d2020 	ldr	r2, [sp, #32]
   1029c:	e1a032c7 	asr	r3, r7, #5
   102a0:	e7923103 	ldr	r3, [r2, r3, lsl #2]
   102a4:	e207701f 	and	r7, r7, #31
   102a8:	e3a02001 	mov	r2, #1
   102ac:	e0133712 	ands	r3, r3, r2, lsl r7
   102b0:	e59d0010 	ldr	r0, [sp, #16]
   102b4:	e1a01006 	mov	r1, r6
   102b8:	13855002 	orrne	r5, r5, #2
   102bc:	ebfffe28 	bl	fb64 <rshift>
   102c0:	e59d3018 	ldr	r3, [sp, #24]
   102c4:	e5933004 	ldr	r3, [r3, #4]
   102c8:	e0664004 	rsb	r4, r6, r4
   102cc:	e58d3014 	str	r3, [sp, #20]
   102d0:	e3a07002 	mov	r7, #2
   102d4:	eaffff22 	b	ff64 <__gethex+0x274>
   102d8:	e1a04005 	mov	r4, r5
   102dc:	e1a0a000 	mov	r10, r0
   102e0:	e59d000c 	ldr	r0, [sp, #12]
   102e4:	e7d43000 	ldrb	r3, [r4, r0]
   102e8:	e7d62003 	ldrb	r2, [r6, r3]
   102ec:	e3520000 	cmp	r2, #0
   102f0:	e084b000 	add	r11, r4, r0
   102f4:	0a000081 	beq	10500 <__gethex+0x810>
   102f8:	e28b2001 	add	r2, r11, #1
   102fc:	e1a04002 	mov	r4, r2
   10300:	e4d23001 	ldrb	r3, [r2], #1
   10304:	e7d61003 	ldrb	r1, [r6, r3]
   10308:	e3510000 	cmp	r1, #0
   1030c:	1afffffa 	bne	102fc <__gethex+0x60c>
   10310:	eafffead 	b	fdcc <__gethex+0xdc>
   10314:	e1a05004 	mov	r5, r4
   10318:	e1a0b004 	mov	r11, r4
   1031c:	e3a07001 	mov	r7, #1
   10320:	eafffe99 	b	fd8c <__gethex+0x9c>
   10324:	e59d0054 	ldr	r0, [sp, #84]	; 0x54
   10328:	e3500000 	cmp	r0, #0
   1032c:	1affff92 	bne	1017c <__gethex+0x48c>
   10330:	e59d0024 	ldr	r0, [sp, #36]	; 0x24
   10334:	e5803000 	str	r3, [r0]
   10338:	e59d3010 	ldr	r3, [sp, #16]
   1033c:	e3a02001 	mov	r2, #1
   10340:	e5832010 	str	r2, [r3, #16]
   10344:	e59d3020 	ldr	r3, [sp, #32]
   10348:	e59d0050 	ldr	r0, [sp, #80]	; 0x50
   1034c:	e5832000 	str	r2, [r3]
   10350:	e59d3010 	ldr	r3, [sp, #16]
   10354:	e3a07062 	mov	r7, #98	; 0x62
   10358:	e5803000 	str	r3, [r0]
   1035c:	eafffea8 	b	fe04 <__gethex+0x114>
   10360:	e3150002 	tst	r5, #2
   10364:	0affff08 	beq	ff8c <__gethex+0x29c>
   10368:	e59d1020 	ldr	r1, [sp, #32]
   1036c:	e5913000 	ldr	r3, [r1]
   10370:	e1855003 	orr	r5, r5, r3
   10374:	e3150001 	tst	r5, #1
   10378:	0affff03 	beq	ff8c <__gethex+0x29c>
   1037c:	e59d3010 	ldr	r3, [sp, #16]
   10380:	e5935010 	ldr	r5, [r3, #16]
   10384:	e0830105 	add	r0, r3, r5, lsl #2
   10388:	e59d3020 	ldr	r3, [sp, #32]
   1038c:	e2800014 	add	r0, r0, #20
   10390:	e3a06000 	mov	r6, #0
   10394:	e1a01003 	mov	r1, r3
   10398:	e4932004 	ldr	r2, [r3], #4
   1039c:	e3720001 	cmn	r2, #1
   103a0:	1a000041 	bne	104ac <__gethex+0x7bc>
   103a4:	e1500003 	cmp	r0, r3
   103a8:	e5036004 	str	r6, [r3, #-4]
   103ac:	8afffff8 	bhi	10394 <__gethex+0x6a4>
   103b0:	e59d0010 	ldr	r0, [sp, #16]
   103b4:	e5903008 	ldr	r3, [r0, #8]
   103b8:	e1550003 	cmp	r5, r3
   103bc:	b1a03005 	movlt	r3, r5
   103c0:	aa00003c 	bge	104b8 <__gethex+0x7c8>
   103c4:	e59d0010 	ldr	r0, [sp, #16]
   103c8:	e3a01001 	mov	r1, #1
   103cc:	e0802103 	add	r2, r0, r3, lsl #2
   103d0:	e2833001 	add	r3, r3, #1
   103d4:	e5821014 	str	r1, [r2, #20]
   103d8:	e5803010 	str	r3, [r0, #16]
   103dc:	e3570002 	cmp	r7, #2
   103e0:	0a000021 	beq	1046c <__gethex+0x77c>
   103e4:	e59d0010 	ldr	r0, [sp, #16]
   103e8:	e5903010 	ldr	r3, [r0, #16]
   103ec:	e1550003 	cmp	r5, r3
   103f0:	baffff40 	blt	100f8 <__gethex+0x408>
   103f4:	e214401f 	ands	r4, r4, #31
   103f8:	1affff37 	bne	100dc <__gethex+0x3ec>
   103fc:	e3a07021 	mov	r7, #33	; 0x21
   10400:	eafffee2 	b	ff90 <__gethex+0x2a0>
   10404:	e59db020 	ldr	r11, [sp, #32]
   10408:	e3a08000 	mov	r8, #0
   1040c:	eafffeb9 	b	fef8 <__gethex+0x208>
   10410:	e59d3054 	ldr	r3, [sp, #84]	; 0x54
   10414:	e3530000 	cmp	r3, #0
   10418:	0afffedb 	beq	ff8c <__gethex+0x29c>
   1041c:	eaffffd6 	b	1037c <__gethex+0x68c>
   10420:	e59d2054 	ldr	r2, [sp, #84]	; 0x54
   10424:	e2623001 	rsb	r3, r2, #1
   10428:	eafffff9 	b	10414 <__gethex+0x724>
   1042c:	e1560004 	cmp	r6, r4
   10430:	1affff51 	bne	1017c <__gethex+0x48c>
   10434:	e3540001 	cmp	r4, #1
   10438:	daffffbc 	ble	10330 <__gethex+0x640>
   1043c:	e59d0010 	ldr	r0, [sp, #16]
   10440:	e2441001 	sub	r1, r4, #1
   10444:	ebffe44b 	bl	9578 <__any_on>
   10448:	e3500000 	cmp	r0, #0
   1044c:	0affff4a 	beq	1017c <__gethex+0x48c>
   10450:	e59d2018 	ldr	r2, [sp, #24]
   10454:	e5923004 	ldr	r3, [r2, #4]
   10458:	eaffffb4 	b	10330 <__gethex+0x640>
   1045c:	e59d1054 	ldr	r1, [sp, #84]	; 0x54
   10460:	e3510000 	cmp	r1, #0
   10464:	0affff44 	beq	1017c <__gethex+0x48c>
   10468:	eaffffb0 	b	10330 <__gethex+0x640>
   1046c:	e59d1018 	ldr	r1, [sp, #24]
   10470:	e5913000 	ldr	r3, [r1]
   10474:	e2433001 	sub	r3, r3, #1
   10478:	e1530004 	cmp	r3, r4
   1047c:	13a07022 	movne	r7, #34	; 0x22
   10480:	1afffec2 	bne	ff90 <__gethex+0x2a0>
   10484:	e59d2010 	ldr	r2, [sp, #16]
   10488:	e1a032c4 	asr	r3, r4, #5
   1048c:	e0823103 	add	r3, r2, r3, lsl #2
   10490:	e5933014 	ldr	r3, [r3, #20]
   10494:	e204401f 	and	r4, r4, #31
   10498:	e3a02001 	mov	r2, #1
   1049c:	e0133412 	ands	r3, r3, r2, lsl r4
   104a0:	13a07021 	movne	r7, #33	; 0x21
   104a4:	03a07022 	moveq	r7, #34	; 0x22
   104a8:	eafffeb8 	b	ff90 <__gethex+0x2a0>
   104ac:	e2822001 	add	r2, r2, #1
   104b0:	e5812000 	str	r2, [r1]
   104b4:	eaffffc8 	b	103dc <__gethex+0x6ec>
   104b8:	e5901004 	ldr	r1, [r0, #4]
   104bc:	e59d001c 	ldr	r0, [sp, #28]
   104c0:	e2811001 	add	r1, r1, #1
   104c4:	ebffe105 	bl	88e0 <_Balloc>
   104c8:	e59d3010 	ldr	r3, [sp, #16]
   104cc:	e5932010 	ldr	r2, [r3, #16]
   104d0:	e2822002 	add	r2, r2, #2
   104d4:	e283100c 	add	r1, r3, #12
   104d8:	e1a06000 	mov	r6, r0
   104dc:	e1a02102 	lsl	r2, r2, #2
   104e0:	e280000c 	add	r0, r0, #12
   104e4:	ebffdfde 	bl	8464 <memcpy>
   104e8:	e59d001c 	ldr	r0, [sp, #28]
   104ec:	e59d1010 	ldr	r1, [sp, #16]
   104f0:	ebffe11d 	bl	896c <_Bfree>
   104f4:	e58d6010 	str	r6, [sp, #16]
   104f8:	e5963010 	ldr	r3, [r6, #16]
   104fc:	eaffffb0 	b	103c4 <__gethex+0x6d4>
   10500:	e1a0400b 	mov	r4, r11
   10504:	eafffe30 	b	fdcc <__gethex+0xdc>
   10508:	e28d1008 	add	r1, sp, #8
   1050c:	e1a00005 	mov	r0, r5
   10510:	e8910006 	ldm	r1, {r1, r2}
   10514:	eb000148 	bl	10a3c <strncmp>
   10518:	e3500000 	cmp	r0, #0
   1051c:	0affff6d 	beq	102d8 <__gethex+0x5e8>
   10520:	e1a0a004 	mov	r10, r4
   10524:	e1a0b00a 	mov	r11, r10
   10528:	e1a04005 	mov	r4, r5
   1052c:	eafffe23 	b	fdc0 <__gethex+0xd0>
   10530:	00014554 	.word	0x00014554

00010534 <__hexnan>:
   10534:	e92d4ff0 	push	{r4, r5, r6, r7, r8, r9, r10, r11, lr}
   10538:	e59f8298 	ldr	r8, [pc, #664]	; 107d8 <__hexnan+0x2a4>
   1053c:	e5d83030 	ldrb	r3, [r8, #48]	; 0x30
   10540:	e24dd014 	sub	sp, sp, #20
   10544:	e3530000 	cmp	r3, #0
   10548:	e58d0008 	str	r0, [sp, #8]
   1054c:	e1a04001 	mov	r4, r1
   10550:	e1a09002 	mov	r9, r2
   10554:	0a000087 	beq	10778 <__hexnan+0x244>
   10558:	e5943000 	ldr	r3, [r4]
   1055c:	e1a022c3 	asr	r2, r3, #5
   10560:	e0892102 	add	r2, r9, r2, lsl #2
   10564:	e213301f 	ands	r3, r3, #31
   10568:	e58d2000 	str	r2, [sp]
   1056c:	12822004 	addne	r2, r2, #4
   10570:	158d2000 	strne	r2, [sp]
   10574:	e59d2000 	ldr	r2, [sp]
   10578:	e58d300c 	str	r3, [sp, #12]
   1057c:	e3a03000 	mov	r3, #0
   10580:	e1a0a003 	mov	r10, r3
   10584:	e5023004 	str	r3, [r2, #-4]
   10588:	e59d3008 	ldr	r3, [sp, #8]
   1058c:	e5930000 	ldr	r0, [r3]
   10590:	e59d1000 	ldr	r1, [sp]
   10594:	e5d03001 	ldrb	r3, [r0, #1]
   10598:	e2411004 	sub	r1, r1, #4
   1059c:	e3530000 	cmp	r3, #0
   105a0:	e58d1004 	str	r1, [sp, #4]
   105a4:	e1a07001 	mov	r7, r1
   105a8:	e1a0b00a 	mov	r11, r10
   105ac:	e1a0500a 	mov	r5, r10
   105b0:	0a000026 	beq	10650 <__hexnan+0x11c>
   105b4:	e7d82003 	ldrb	r2, [r8, r3]
   105b8:	e3520000 	cmp	r2, #0
   105bc:	1a000056 	bne	1071c <__hexnan+0x1e8>
   105c0:	e3530020 	cmp	r3, #32
   105c4:	8a000065 	bhi	10760 <__hexnan+0x22c>
   105c8:	e155000b 	cmp	r5, r11
   105cc:	da00001b 	ble	10640 <__hexnan+0x10c>
   105d0:	e35a0007 	cmp	r10, #7
   105d4:	c3a03000 	movgt	r3, #0
   105d8:	d3a03001 	movle	r3, #1
   105dc:	e1510007 	cmp	r1, r7
   105e0:	23a03000 	movcs	r3, #0
   105e4:	e3530000 	cmp	r3, #0
   105e8:	0a00000b 	beq	1061c <__hexnan+0xe8>
   105ec:	e26aa008 	rsb	r10, r10, #8
   105f0:	e1a0a10a 	lsl	r10, r10, #2
   105f4:	e5912000 	ldr	r2, [r1]
   105f8:	e26a6020 	rsb	r6, r10, #32
   105fc:	e1a03001 	mov	r3, r1
   10600:	e593c004 	ldr	r12, [r3, #4]
   10604:	e182461c 	orr	r4, r2, r12, lsl r6
   10608:	e1a02a3c 	lsr	r2, r12, r10
   1060c:	e5834000 	str	r4, [r3]
   10610:	e5a32004 	str	r2, [r3, #4]!
   10614:	e1570003 	cmp	r7, r3
   10618:	8afffff8 	bhi	10600 <__hexnan+0xcc>
   1061c:	e1510009 	cmp	r1, r9
   10620:	93a0a008 	movls	r10, #8
   10624:	9a000005 	bls	10640 <__hexnan+0x10c>
   10628:	e3a02000 	mov	r2, #0
   1062c:	e5012004 	str	r2, [r1, #-4]
   10630:	e2411004 	sub	r1, r1, #4
   10634:	e1a0b005 	mov	r11, r5
   10638:	e1a07001 	mov	r7, r1
   1063c:	e1a0a002 	mov	r10, r2
   10640:	e2800001 	add	r0, r0, #1
   10644:	e5d03001 	ldrb	r3, [r0, #1]
   10648:	e3530000 	cmp	r3, #0
   1064c:	1affffd8 	bne	105b4 <__hexnan+0x80>
   10650:	e1a02001 	mov	r2, r1
   10654:	e3550000 	cmp	r5, #0
   10658:	0a000042 	beq	10768 <__hexnan+0x234>
   1065c:	e35a0007 	cmp	r10, #7
   10660:	c3a03000 	movgt	r3, #0
   10664:	d3a03001 	movle	r3, #1
   10668:	e1510007 	cmp	r1, r7
   1066c:	23a03000 	movcs	r3, #0
   10670:	e3530000 	cmp	r3, #0
   10674:	0a00000a 	beq	106a4 <__hexnan+0x170>
   10678:	e26aa008 	rsb	r10, r10, #8
   1067c:	e1a0a10a 	lsl	r10, r10, #2
   10680:	e5913000 	ldr	r3, [r1]
   10684:	e26a4020 	rsb	r4, r10, #32
   10688:	e5910004 	ldr	r0, [r1, #4]
   1068c:	e183c410 	orr	r12, r3, r0, lsl r4
   10690:	e1a03a30 	lsr	r3, r0, r10
   10694:	e581c000 	str	r12, [r1]
   10698:	e5a13004 	str	r3, [r1, #4]!
   1069c:	e1510007 	cmp	r1, r7
   106a0:	3afffff8 	bcc	10688 <__hexnan+0x154>
   106a4:	e1590002 	cmp	r9, r2
   106a8:	2a000034 	bcs	10780 <__hexnan+0x24c>
   106ac:	e59dc004 	ldr	r12, [sp, #4]
   106b0:	e1a01009 	mov	r1, r9
   106b4:	e4920004 	ldr	r0, [r2], #4
   106b8:	e1a03001 	mov	r3, r1
   106bc:	e4830004 	str	r0, [r3], #4
   106c0:	e15c0002 	cmp	r12, r2
   106c4:	e1a01003 	mov	r1, r3
   106c8:	2afffff9 	bcs	106b4 <__hexnan+0x180>
   106cc:	e59d1004 	ldr	r1, [sp, #4]
   106d0:	e3a02000 	mov	r2, #0
   106d4:	e4832004 	str	r2, [r3], #4
   106d8:	e1510003 	cmp	r1, r3
   106dc:	2afffffc 	bcs	106d4 <__hexnan+0x1a0>
   106e0:	e59d1000 	ldr	r1, [sp]
   106e4:	e5113004 	ldr	r3, [r1, #-4]
   106e8:	e3530000 	cmp	r3, #0
   106ec:	1a000008 	bne	10714 <__hexnan+0x1e0>
   106f0:	e59d3004 	ldr	r3, [sp, #4]
   106f4:	e1590003 	cmp	r9, r3
   106f8:	1a000002 	bne	10708 <__hexnan+0x1d4>
   106fc:	ea00002b 	b	107b0 <__hexnan+0x27c>
   10700:	e1590003 	cmp	r9, r3
   10704:	0a00002a 	beq	107b4 <__hexnan+0x280>
   10708:	e5332004 	ldr	r2, [r3, #-4]!
   1070c:	e3520000 	cmp	r2, #0
   10710:	0afffffa 	beq	10700 <__hexnan+0x1cc>
   10714:	e3a00005 	mov	r0, #5
   10718:	ea000013 	b	1076c <__hexnan+0x238>
   1071c:	e28aa001 	add	r10, r10, #1
   10720:	e35a0008 	cmp	r10, #8
   10724:	e2855001 	add	r5, r5, #1
   10728:	ca000005 	bgt	10744 <__hexnan+0x210>
   1072c:	e5913000 	ldr	r3, [r1]
   10730:	e1a03203 	lsl	r3, r3, #4
   10734:	e202200f 	and	r2, r2, #15
   10738:	e1832002 	orr	r2, r3, r2
   1073c:	e5812000 	str	r2, [r1]
   10740:	eaffffbe 	b	10640 <__hexnan+0x10c>
   10744:	e1510009 	cmp	r1, r9
   10748:	9affffbc 	bls	10640 <__hexnan+0x10c>
   1074c:	e3a03000 	mov	r3, #0
   10750:	e5013004 	str	r3, [r1, #-4]
   10754:	e3a0a001 	mov	r10, #1
   10758:	e2411004 	sub	r1, r1, #4
   1075c:	eafffff4 	b	10734 <__hexnan+0x200>
   10760:	e3530029 	cmp	r3, #41	; 0x29
   10764:	0a000016 	beq	107c4 <__hexnan+0x290>
   10768:	e3a00004 	mov	r0, #4
   1076c:	e28dd014 	add	sp, sp, #20
   10770:	e8bd4ff0 	pop	{r4, r5, r6, r7, r8, r9, r10, r11, lr}
   10774:	e12fff1e 	bx	lr
   10778:	ebfffd3b 	bl	fc6c <__hexdig_init>
   1077c:	eaffff75 	b	10558 <__hexnan+0x24>
   10780:	e59d200c 	ldr	r2, [sp, #12]
   10784:	e3520000 	cmp	r2, #0
   10788:	0affffd4 	beq	106e0 <__hexnan+0x1ac>
   1078c:	e59d3000 	ldr	r3, [sp]
   10790:	e59d100c 	ldr	r1, [sp, #12]
   10794:	e5132004 	ldr	r2, [r3, #-4]
   10798:	e2613020 	rsb	r3, r1, #32
   1079c:	e3e01000 	mvn	r1, #0
   107a0:	e0023331 	and	r3, r2, r1, lsr r3
   107a4:	e59d2000 	ldr	r2, [sp]
   107a8:	e5023004 	str	r3, [r2, #-4]
   107ac:	eaffffcd 	b	106e8 <__hexnan+0x1b4>
   107b0:	e1a03009 	mov	r3, r9
   107b4:	e3a02001 	mov	r2, #1
   107b8:	e5832000 	str	r2, [r3]
   107bc:	e3a00005 	mov	r0, #5
   107c0:	eaffffe9 	b	1076c <__hexnan+0x238>
   107c4:	e59d3008 	ldr	r3, [sp, #8]
   107c8:	e2800002 	add	r0, r0, #2
   107cc:	e5830000 	str	r0, [r3]
   107d0:	e1a02001 	mov	r2, r1
   107d4:	eaffff9e 	b	10654 <__hexnan+0x120>
   107d8:	00014554 	.word	0x00014554

000107dc <_isatty_r>:
   107dc:	e92d4038 	push	{r3, r4, r5, lr}
   107e0:	e59f402c 	ldr	r4, [pc, #44]	; 10814 <_isatty_r+0x38>
   107e4:	e3a03000 	mov	r3, #0
   107e8:	e1a05000 	mov	r5, r0
   107ec:	e1a00001 	mov	r0, r1
   107f0:	e5843000 	str	r3, [r4]
   107f4:	eb000a47 	bl	13118 <_isatty>
   107f8:	e3700001 	cmn	r0, #1
   107fc:	1a000002 	bne	1080c <_isatty_r+0x30>
   10800:	e5943000 	ldr	r3, [r4]
   10804:	e3530000 	cmp	r3, #0
   10808:	15853000 	strne	r3, [r5]
   1080c:	e8bd4038 	pop	{r3, r4, r5, lr}
   10810:	e12fff1e 	bx	lr
   10814:	00014654 	.word	0x00014654

00010818 <_lseek_r>:
   10818:	e92d4038 	push	{r3, r4, r5, lr}
   1081c:	e59f4034 	ldr	r4, [pc, #52]	; 10858 <_lseek_r+0x40>
   10820:	e1a05000 	mov	r5, r0
   10824:	e1a00001 	mov	r0, r1
   10828:	e1a01002 	mov	r1, r2
   1082c:	e1a02003 	mov	r2, r3
   10830:	e3a03000 	mov	r3, #0
   10834:	e5843000 	str	r3, [r4]
   10838:	eb000a40 	bl	13140 <_lseek>
   1083c:	e3700001 	cmn	r0, #1
   10840:	1a000002 	bne	10850 <_lseek_r+0x38>
   10844:	e5943000 	ldr	r3, [r4]
   10848:	e3530000 	cmp	r3, #0
   1084c:	15853000 	strne	r3, [r5]
   10850:	e8bd4038 	pop	{r3, r4, r5, lr}
   10854:	e12fff1e 	bx	lr
   10858:	00014654 	.word	0x00014654

0001085c <_read_r>:
   1085c:	e92d4038 	push	{r3, r4, r5, lr}
   10860:	e59f4034 	ldr	r4, [pc, #52]	; 1089c <_read_r+0x40>
   10864:	e1a05000 	mov	r5, r0
   10868:	e1a00001 	mov	r0, r1
   1086c:	e1a01002 	mov	r1, r2
   10870:	e1a02003 	mov	r2, r3
   10874:	e3a03000 	mov	r3, #0
   10878:	e5843000 	str	r3, [r4]
   1087c:	eb000a5b 	bl	131f0 <_read>
   10880:	e3700001 	cmn	r0, #1
   10884:	1a000002 	bne	10894 <_read_r+0x38>
   10888:	e5943000 	ldr	r3, [r4]
   1088c:	e3530000 	cmp	r3, #0
   10890:	15853000 	strne	r3, [r5]
   10894:	e8bd4038 	pop	{r3, r4, r5, lr}
   10898:	e12fff1e 	bx	lr
   1089c:	00014654 	.word	0x00014654

000108a0 <cleanup_glue>:
   108a0:	e92d4038 	push	{r3, r4, r5, lr}
   108a4:	e1a04001 	mov	r4, r1
   108a8:	e5911000 	ldr	r1, [r1]
   108ac:	e3510000 	cmp	r1, #0
   108b0:	e1a05000 	mov	r5, r0
   108b4:	1bfffff9 	blne	108a0 <cleanup_glue>
   108b8:	e1a00005 	mov	r0, r5
   108bc:	e1a01004 	mov	r1, r4
   108c0:	ebffd9bd 	bl	6fbc <_free_r>
   108c4:	e8bd4038 	pop	{r3, r4, r5, lr}
   108c8:	e12fff1e 	bx	lr

000108cc <_reclaim_reent>:
   108cc:	e59f30f0 	ldr	r3, [pc, #240]	; 109c4 <_reclaim_reent+0xf8>
   108d0:	e5933000 	ldr	r3, [r3]
   108d4:	e1500003 	cmp	r0, r3
   108d8:	e92d4070 	push	{r4, r5, r6, lr}
   108dc:	e1a05000 	mov	r5, r0
   108e0:	0a00002b 	beq	10994 <_reclaim_reent+0xc8>
   108e4:	e590204c 	ldr	r2, [r0, #76]	; 0x4c
   108e8:	e3520000 	cmp	r2, #0
   108ec:	0a000011 	beq	10938 <_reclaim_reent+0x6c>
   108f0:	e3a03000 	mov	r3, #0
   108f4:	e1a06003 	mov	r6, r3
   108f8:	e7921103 	ldr	r1, [r2, r3, lsl #2]
   108fc:	e3510000 	cmp	r1, #0
   10900:	0a000005 	beq	1091c <_reclaim_reent+0x50>
   10904:	e5914000 	ldr	r4, [r1]
   10908:	e1a00005 	mov	r0, r5
   1090c:	ebffd9aa 	bl	6fbc <_free_r>
   10910:	e2541000 	subs	r1, r4, #0
   10914:	1afffffa 	bne	10904 <_reclaim_reent+0x38>
   10918:	e595204c 	ldr	r2, [r5, #76]	; 0x4c
   1091c:	e2866001 	add	r6, r6, #1
   10920:	e3560020 	cmp	r6, #32
   10924:	e1a03006 	mov	r3, r6
   10928:	1afffff2 	bne	108f8 <_reclaim_reent+0x2c>
   1092c:	e1a00005 	mov	r0, r5
   10930:	e1a01002 	mov	r1, r2
   10934:	ebffd9a0 	bl	6fbc <_free_r>
   10938:	e5951040 	ldr	r1, [r5, #64]	; 0x40
   1093c:	e3510000 	cmp	r1, #0
   10940:	11a00005 	movne	r0, r5
   10944:	1bffd99c 	blne	6fbc <_free_r>
   10948:	e5951148 	ldr	r1, [r5, #328]	; 0x148
   1094c:	e3510000 	cmp	r1, #0
   10950:	0a000008 	beq	10978 <_reclaim_reent+0xac>
   10954:	e2856f53 	add	r6, r5, #332	; 0x14c
   10958:	e1510006 	cmp	r1, r6
   1095c:	0a000005 	beq	10978 <_reclaim_reent+0xac>
   10960:	e5914000 	ldr	r4, [r1]
   10964:	e1a00005 	mov	r0, r5
   10968:	ebffd993 	bl	6fbc <_free_r>
   1096c:	e1560004 	cmp	r6, r4
   10970:	e1a01004 	mov	r1, r4
   10974:	1afffff9 	bne	10960 <_reclaim_reent+0x94>
   10978:	e5951054 	ldr	r1, [r5, #84]	; 0x54
   1097c:	e3510000 	cmp	r1, #0
   10980:	11a00005 	movne	r0, r5
   10984:	1bffd98c 	blne	6fbc <_free_r>
   10988:	e5953038 	ldr	r3, [r5, #56]	; 0x38
   1098c:	e3530000 	cmp	r3, #0
   10990:	1a000001 	bne	1099c <_reclaim_reent+0xd0>
   10994:	e8bd4070 	pop	{r4, r5, r6, lr}
   10998:	e12fff1e 	bx	lr
   1099c:	e1a00005 	mov	r0, r5
   109a0:	e595c03c 	ldr	r12, [r5, #60]	; 0x3c
   109a4:	e1a0e00f 	mov	lr, pc
   109a8:	e12fff1c 	bx	r12
   109ac:	e59512e0 	ldr	r1, [r5, #736]	; 0x2e0
   109b0:	e3510000 	cmp	r1, #0
   109b4:	0afffff6 	beq	10994 <_reclaim_reent+0xc8>
   109b8:	e1a00005 	mov	r0, r5
   109bc:	e8bd4070 	pop	{r4, r5, r6, lr}
   109c0:	eaffffb6 	b	108a0 <cleanup_glue>
   109c4:	00013c00 	.word	0x00013c00

000109c8 <_wrapup_reent>:
   109c8:	e92d40f8 	push	{r3, r4, r5, r6, r7, lr}
   109cc:	e2507000 	subs	r7, r0, #0
   109d0:	059f3060 	ldreq	r3, [pc, #96]	; 10a38 <_wrapup_reent+0x70>
   109d4:	05937000 	ldreq	r7, [r3]
   109d8:	e5976148 	ldr	r6, [r7, #328]	; 0x148
   109dc:	e3560000 	cmp	r6, #0
   109e0:	0a00000d 	beq	10a1c <_wrapup_reent+0x54>
   109e4:	e5965004 	ldr	r5, [r6, #4]
   109e8:	e2554001 	subs	r4, r5, #1
   109ec:	52855002 	addpl	r5, r5, #2
   109f0:	50865105 	addpl	r5, r6, r5, lsl #2
   109f4:	4a000005 	bmi	10a10 <_wrapup_reent+0x48>
   109f8:	e5353004 	ldr	r3, [r5, #-4]!
   109fc:	e2444001 	sub	r4, r4, #1
   10a00:	e1a0e00f 	mov	lr, pc
   10a04:	e12fff13 	bx	r3
   10a08:	e3740001 	cmn	r4, #1
   10a0c:	1afffff9 	bne	109f8 <_wrapup_reent+0x30>
   10a10:	e5966000 	ldr	r6, [r6]
   10a14:	e3560000 	cmp	r6, #0
   10a18:	1afffff1 	bne	109e4 <_wrapup_reent+0x1c>
   10a1c:	e597303c 	ldr	r3, [r7, #60]	; 0x3c
   10a20:	e3530000 	cmp	r3, #0
   10a24:	11a00007 	movne	r0, r7
   10a28:	11a0e00f 	movne	lr, pc
   10a2c:	112fff13 	bxne	r3
   10a30:	e8bd40f8 	pop	{r3, r4, r5, r6, r7, lr}
   10a34:	e12fff1e 	bx	lr
   10a38:	00013c00 	.word	0x00013c00

00010a3c <strncmp>:
   10a3c:	e3520000 	cmp	r2, #0
   10a40:	e92d0030 	push	{r4, r5}
   10a44:	0a00002c 	beq	10afc <strncmp+0xc0>
   10a48:	e1813000 	orr	r3, r1, r0
   10a4c:	e2133003 	ands	r3, r3, #3
   10a50:	1a00002c 	bne	10b08 <strncmp+0xcc>
   10a54:	e3520003 	cmp	r2, #3
   10a58:	9a00002a 	bls	10b08 <strncmp+0xcc>
   10a5c:	e590c000 	ldr	r12, [r0]
   10a60:	e5914000 	ldr	r4, [r1]
   10a64:	e15c0004 	cmp	r12, r4
   10a68:	1a000026 	bne	10b08 <strncmp+0xcc>
   10a6c:	e2522004 	subs	r2, r2, #4
   10a70:	0a000021 	beq	10afc <strncmp+0xc0>
   10a74:	e59f50f8 	ldr	r5, [pc, #248]	; 10b74 <strncmp+0x138>
   10a78:	e59f40f8 	ldr	r4, [pc, #248]	; 10b78 <strncmp+0x13c>
   10a7c:	e08c5005 	add	r5, r12, r5
   10a80:	e1c5c00c 	bic	r12, r5, r12
   10a84:	e00c4004 	and	r4, r12, r4
   10a88:	e3540000 	cmp	r4, #0
   10a8c:	0a00000b 	beq	10ac0 <strncmp+0x84>
   10a90:	ea000035 	b	10b6c <strncmp+0x130>
   10a94:	e59cc004 	ldr	r12, [r12, #4]
   10a98:	e5955004 	ldr	r5, [r5, #4]
   10a9c:	e08c3003 	add	r3, r12, r3
   10aa0:	e1c3300c 	bic	r3, r3, r12
   10aa4:	e15c0005 	cmp	r12, r5
   10aa8:	e0034004 	and	r4, r3, r4
   10aac:	1a000015 	bne	10b08 <strncmp+0xcc>
   10ab0:	e2522004 	subs	r2, r2, #4
   10ab4:	0a000010 	beq	10afc <strncmp+0xc0>
   10ab8:	e3540000 	cmp	r4, #0
   10abc:	1a000028 	bne	10b64 <strncmp+0x128>
   10ac0:	e3520003 	cmp	r2, #3
   10ac4:	e1a05001 	mov	r5, r1
   10ac8:	e1a0c000 	mov	r12, r0
   10acc:	e59f30a0 	ldr	r3, [pc, #160]	; 10b74 <strncmp+0x138>
   10ad0:	e59f40a0 	ldr	r4, [pc, #160]	; 10b78 <strncmp+0x13c>
   10ad4:	e2811004 	add	r1, r1, #4
   10ad8:	e2800004 	add	r0, r0, #4
   10adc:	8affffec 	bhi	10a94 <strncmp+0x58>
   10ae0:	e3520000 	cmp	r2, #0
   10ae4:	e2423001 	sub	r3, r2, #1
   10ae8:	1a000007 	bne	10b0c <strncmp+0xd0>
   10aec:	e5dc2004 	ldrb	r2, [r12, #4]
   10af0:	e5d5c004 	ldrb	r12, [r5, #4]
   10af4:	e06c0002 	rsb	r0, r12, r2
   10af8:	ea000000 	b	10b00 <strncmp+0xc4>
   10afc:	e1a00002 	mov	r0, r2
   10b00:	e8bd0030 	pop	{r4, r5}
   10b04:	e12fff1e 	bx	lr
   10b08:	e2423001 	sub	r3, r2, #1
   10b0c:	e5d02000 	ldrb	r2, [r0]
   10b10:	e5d1c000 	ldrb	r12, [r1]
   10b14:	e152000c 	cmp	r2, r12
   10b18:	1afffff5 	bne	10af4 <strncmp+0xb8>
   10b1c:	e3530000 	cmp	r3, #0
   10b20:	0a000011 	beq	10b6c <strncmp+0x130>
   10b24:	e3520000 	cmp	r2, #0
   10b28:	12832001 	addne	r2, r3, #1
   10b2c:	12813002 	addne	r3, r1, #2
   10b30:	10811002 	addne	r1, r1, r2
   10b34:	1a000005 	bne	10b50 <strncmp+0x114>
   10b38:	eaffffef 	b	10afc <strncmp+0xc0>
   10b3c:	e1530001 	cmp	r3, r1
   10b40:	0a000007 	beq	10b64 <strncmp+0x128>
   10b44:	e3520000 	cmp	r2, #0
   10b48:	e2833001 	add	r3, r3, #1
   10b4c:	0affffea 	beq	10afc <strncmp+0xc0>
   10b50:	e553c001 	ldrb	r12, [r3, #-1]
   10b54:	e5f02001 	ldrb	r2, [r0, #1]!
   10b58:	e152000c 	cmp	r2, r12
   10b5c:	0afffff6 	beq	10b3c <strncmp+0x100>
   10b60:	eaffffe3 	b	10af4 <strncmp+0xb8>
   10b64:	e3a00000 	mov	r0, #0
   10b68:	eaffffe4 	b	10b00 <strncmp+0xc4>
   10b6c:	e1a00003 	mov	r0, r3
   10b70:	eaffffe2 	b	10b00 <strncmp+0xc4>
   10b74:	fefefeff 	.word	0xfefefeff
   10b78:	80808080 	.word	0x80808080

00010b7c <__ssprint_r>:
   10b7c:	e92d4ff0 	push	{r4, r5, r6, r7, r8, r9, r10, r11, lr}
   10b80:	e5924008 	ldr	r4, [r2, #8]
   10b84:	e3540000 	cmp	r4, #0
   10b88:	e24dd00c 	sub	sp, sp, #12
   10b8c:	e1a09002 	mov	r9, r2
   10b90:	e1a0a000 	mov	r10, r0
   10b94:	e1a05001 	mov	r5, r1
   10b98:	e5927000 	ldr	r7, [r2]
   10b9c:	0a00005a 	beq	10d0c <__ssprint_r+0x190>
   10ba0:	e3a0b000 	mov	r11, #0
   10ba4:	e1a0400b 	mov	r4, r11
   10ba8:	e3540000 	cmp	r4, #0
   10bac:	e5910000 	ldr	r0, [r1]
   10bb0:	e5913008 	ldr	r3, [r1, #8]
   10bb4:	0a000038 	beq	10c9c <__ssprint_r+0x120>
   10bb8:	e1540003 	cmp	r4, r3
   10bbc:	e1a06003 	mov	r6, r3
   10bc0:	e1a08003 	mov	r8, r3
   10bc4:	3a00003d 	bcc	10cc0 <__ssprint_r+0x144>
   10bc8:	e1d530bc 	ldrh	r3, [r5, #12]
   10bcc:	e3130d12 	tst	r3, #1152	; 0x480
   10bd0:	0a000023 	beq	10c64 <__ssprint_r+0xe8>
   10bd4:	e2851010 	add	r1, r5, #16
   10bd8:	e8910042 	ldm	r1, {r1, r6}
   10bdc:	e0866086 	add	r6, r6, r6, lsl #1
   10be0:	e0618000 	rsb	r8, r1, r0
   10be4:	e0866fa6 	add	r6, r6, r6, lsr #31
   10be8:	e2840001 	add	r0, r4, #1
   10bec:	e1a060c6 	asr	r6, r6, #1
   10bf0:	e0800008 	add	r0, r0, r8
   10bf4:	e1560000 	cmp	r6, r0
   10bf8:	e1a02006 	mov	r2, r6
   10bfc:	31a06000 	movcc	r6, r0
   10c00:	31a02006 	movcc	r2, r6
   10c04:	e3130b01 	tst	r3, #1024	; 0x400
   10c08:	e1a0000a 	mov	r0, r10
   10c0c:	0a00002e 	beq	10ccc <__ssprint_r+0x150>
   10c10:	e1a01002 	mov	r1, r2
   10c14:	ebffdb8d 	bl	7a50 <_malloc_r>
   10c18:	e2503000 	subs	r3, r0, #0
   10c1c:	0a000030 	beq	10ce4 <__ssprint_r+0x168>
   10c20:	e5951010 	ldr	r1, [r5, #16]
   10c24:	e1a02008 	mov	r2, r8
   10c28:	e58d3004 	str	r3, [sp, #4]
   10c2c:	ebffde0c 	bl	8464 <memcpy>
   10c30:	e1d520bc 	ldrh	r2, [r5, #12]
   10c34:	e3c22d12 	bic	r2, r2, #1152	; 0x480
   10c38:	e3822080 	orr	r2, r2, #128	; 0x80
   10c3c:	e1c520bc 	strh	r2, [r5, #12]
   10c40:	e59d3004 	ldr	r3, [sp, #4]
   10c44:	e0830008 	add	r0, r3, r8
   10c48:	e5853010 	str	r3, [r5, #16]
   10c4c:	e0688006 	rsb	r8, r8, r6
   10c50:	e5850000 	str	r0, [r5]
   10c54:	e5856014 	str	r6, [r5, #20]
   10c58:	e5858008 	str	r8, [r5, #8]
   10c5c:	e1a06004 	mov	r6, r4
   10c60:	e1a08004 	mov	r8, r4
   10c64:	e1a02008 	mov	r2, r8
   10c68:	e1a0100b 	mov	r1, r11
   10c6c:	ebffde7f 	bl	8670 <memmove>
   10c70:	e5992008 	ldr	r2, [r9, #8]
   10c74:	e5953008 	ldr	r3, [r5, #8]
   10c78:	e5950000 	ldr	r0, [r5]
   10c7c:	e0644002 	rsb	r4, r4, r2
   10c80:	e0663003 	rsb	r3, r6, r3
   10c84:	e0800008 	add	r0, r0, r8
   10c88:	e3540000 	cmp	r4, #0
   10c8c:	e5853008 	str	r3, [r5, #8]
   10c90:	e5850000 	str	r0, [r5]
   10c94:	e5894008 	str	r4, [r9, #8]
   10c98:	0a00001b 	beq	10d0c <__ssprint_r+0x190>
   10c9c:	e5974004 	ldr	r4, [r7, #4]
   10ca0:	e3540000 	cmp	r4, #0
   10ca4:	e597b000 	ldr	r11, [r7]
   10ca8:	e2877008 	add	r7, r7, #8
   10cac:	0afffffa 	beq	10c9c <__ssprint_r+0x120>
   10cb0:	e1540003 	cmp	r4, r3
   10cb4:	e1a06003 	mov	r6, r3
   10cb8:	e1a08003 	mov	r8, r3
   10cbc:	2affffc1 	bcs	10bc8 <__ssprint_r+0x4c>
   10cc0:	e1a06004 	mov	r6, r4
   10cc4:	e1a08004 	mov	r8, r4
   10cc8:	eaffffe5 	b	10c64 <__ssprint_r+0xe8>
   10ccc:	ebffe24b 	bl	9600 <_realloc_r>
   10cd0:	e2503000 	subs	r3, r0, #0
   10cd4:	1affffda 	bne	10c44 <__ssprint_r+0xc8>
   10cd8:	e1a0000a 	mov	r0, r10
   10cdc:	e5951010 	ldr	r1, [r5, #16]
   10ce0:	ebffd8b5 	bl	6fbc <_free_r>
   10ce4:	e1d520bc 	ldrh	r2, [r5, #12]
   10ce8:	e3a0300c 	mov	r3, #12
   10cec:	e58a3000 	str	r3, [r10]
   10cf0:	e3822040 	orr	r2, r2, #64	; 0x40
   10cf4:	e3a03000 	mov	r3, #0
   10cf8:	e1c520bc 	strh	r2, [r5, #12]
   10cfc:	e3e00000 	mvn	r0, #0
   10d00:	e5893008 	str	r3, [r9, #8]
   10d04:	e5893004 	str	r3, [r9, #4]
   10d08:	ea000001 	b	10d14 <__ssprint_r+0x198>
   10d0c:	e5894004 	str	r4, [r9, #4]
   10d10:	e1a00004 	mov	r0, r4
   10d14:	e28dd00c 	add	sp, sp, #12
   10d18:	e8bd4ff0 	pop	{r4, r5, r6, r7, r8, r9, r10, r11, lr}
   10d1c:	e12fff1e 	bx	lr

00010d20 <_svfiprintf_r>:
   10d20:	e92d4ff0 	push	{r4, r5, r6, r7, r8, r9, r10, r11, lr}
   10d24:	e24dd0c4 	sub	sp, sp, #196	; 0xc4
   10d28:	e58d1018 	str	r1, [sp, #24]
   10d2c:	e1d110bc 	ldrh	r1, [r1, #12]
   10d30:	e3110080 	tst	r1, #128	; 0x80
   10d34:	e58d0020 	str	r0, [sp, #32]
   10d38:	e58d3024 	str	r3, [sp, #36]	; 0x24
   10d3c:	0a000003 	beq	10d50 <_svfiprintf_r+0x30>
   10d40:	e59dc018 	ldr	r12, [sp, #24]
   10d44:	e59c3010 	ldr	r3, [r12, #16]
   10d48:	e3530000 	cmp	r3, #0
   10d4c:	0a0003e5 	beq	11ce8 <_svfiprintf_r+0xfc8>
   10d50:	e28dc080 	add	r12, sp, #128	; 0x80
   10d54:	e58dc00c 	str	r12, [sp, #12]
   10d58:	e28dc07f 	add	r12, sp, #127	; 0x7f
   10d5c:	e3a03000 	mov	r3, #0
   10d60:	e58dc008 	str	r12, [sp, #8]
   10d64:	e58d3034 	str	r3, [sp, #52]	; 0x34
   10d68:	e58d3054 	str	r3, [sp, #84]	; 0x54
   10d6c:	e58d3050 	str	r3, [sp, #80]	; 0x50
   10d70:	e58d3010 	str	r3, [sp, #16]
   10d74:	e59d3008 	ldr	r3, [sp, #8]
   10d78:	e28d1080 	add	r1, sp, #128	; 0x80
   10d7c:	e1a08002 	mov	r8, r2
   10d80:	e0632001 	rsb	r2, r3, r1
   10d84:	e58d104c 	str	r1, [sp, #76]	; 0x4c
   10d88:	e58d203c 	str	r2, [sp, #60]	; 0x3c
   10d8c:	e1a04001 	mov	r4, r1
   10d90:	e5d83000 	ldrb	r3, [r8]
   10d94:	e3530000 	cmp	r3, #0
   10d98:	13530025 	cmpne	r3, #37	; 0x25
   10d9c:	0a0002a7 	beq	11840 <_svfiprintf_r+0xb20>
   10da0:	e2883001 	add	r3, r8, #1
   10da4:	e1a05003 	mov	r5, r3
   10da8:	e5d33000 	ldrb	r3, [r3]
   10dac:	e3530025 	cmp	r3, #37	; 0x25
   10db0:	13530000 	cmpne	r3, #0
   10db4:	e2853001 	add	r3, r5, #1
   10db8:	1afffff9 	bne	10da4 <_svfiprintf_r+0x84>
   10dbc:	e0556008 	subs	r6, r5, r8
   10dc0:	0a00000d 	beq	10dfc <_svfiprintf_r+0xdc>
   10dc4:	e59d2050 	ldr	r2, [sp, #80]	; 0x50
   10dc8:	e59d1054 	ldr	r1, [sp, #84]	; 0x54
   10dcc:	e2822001 	add	r2, r2, #1
   10dd0:	e0811006 	add	r1, r1, r6
   10dd4:	e3520007 	cmp	r2, #7
   10dd8:	e5848000 	str	r8, [r4]
   10ddc:	e5846004 	str	r6, [r4, #4]
   10de0:	e58d1054 	str	r1, [sp, #84]	; 0x54
   10de4:	e58d2050 	str	r2, [sp, #80]	; 0x50
   10de8:	d2844008 	addle	r4, r4, #8
   10dec:	ca000304 	bgt	11a04 <_svfiprintf_r+0xce4>
   10df0:	e59dc010 	ldr	r12, [sp, #16]
   10df4:	e08cc006 	add	r12, r12, r6
   10df8:	e58dc010 	str	r12, [sp, #16]
   10dfc:	e5d53000 	ldrb	r3, [r5]
   10e00:	e3530000 	cmp	r3, #0
   10e04:	0a000299 	beq	11870 <_svfiprintf_r+0xb50>
   10e08:	e3a03000 	mov	r3, #0
   10e0c:	e1a01003 	mov	r1, r3
   10e10:	e58d101c 	str	r1, [sp, #28]
   10e14:	e2858001 	add	r8, r5, #1
   10e18:	e5cd3047 	strb	r3, [sp, #71]	; 0x47
   10e1c:	e3e09000 	mvn	r9, #0
   10e20:	e5d53001 	ldrb	r3, [r5, #1]
   10e24:	e1a05001 	mov	r5, r1
   10e28:	e2888001 	add	r8, r8, #1
   10e2c:	e2432020 	sub	r2, r3, #32
   10e30:	e3520058 	cmp	r2, #88	; 0x58
   10e34:	979ff102 	ldrls	pc, [pc, r2, lsl #2]
   10e38:	ea00017a 	b	11428 <_svfiprintf_r+0x708>
   10e3c:	00011418 	.word	0x00011418
   10e40:	00011428 	.word	0x00011428
   10e44:	00011428 	.word	0x00011428
   10e48:	0001140c 	.word	0x0001140c
   10e4c:	00011428 	.word	0x00011428
   10e50:	00011428 	.word	0x00011428
   10e54:	00011428 	.word	0x00011428
   10e58:	00011428 	.word	0x00011428
   10e5c:	00011428 	.word	0x00011428
   10e60:	00011428 	.word	0x00011428
   10e64:	000110a8 	.word	0x000110a8
   10e68:	00011538 	.word	0x00011538
   10e6c:	00011428 	.word	0x00011428
   10e70:	000110d4 	.word	0x000110d4
   10e74:	00011544 	.word	0x00011544
   10e78:	00011428 	.word	0x00011428
   10e7c:	0001152c 	.word	0x0001152c
   10e80:	000114fc 	.word	0x000114fc
   10e84:	000114fc 	.word	0x000114fc
   10e88:	000114fc 	.word	0x000114fc
   10e8c:	000114fc 	.word	0x000114fc
   10e90:	000114fc 	.word	0x000114fc
   10e94:	000114fc 	.word	0x000114fc
   10e98:	000114fc 	.word	0x000114fc
   10e9c:	000114fc 	.word	0x000114fc
   10ea0:	000114fc 	.word	0x000114fc
   10ea4:	00011428 	.word	0x00011428
   10ea8:	00011428 	.word	0x00011428
   10eac:	00011428 	.word	0x00011428
   10eb0:	00011428 	.word	0x00011428
   10eb4:	00011428 	.word	0x00011428
   10eb8:	00011428 	.word	0x00011428
   10ebc:	00011428 	.word	0x00011428
   10ec0:	00011428 	.word	0x00011428
   10ec4:	00011428 	.word	0x00011428
   10ec8:	00011428 	.word	0x00011428
   10ecc:	00011494 	.word	0x00011494
   10ed0:	00011428 	.word	0x00011428
   10ed4:	00011428 	.word	0x00011428
   10ed8:	00011428 	.word	0x00011428
   10edc:	00011428 	.word	0x00011428
   10ee0:	00011428 	.word	0x00011428
   10ee4:	00011428 	.word	0x00011428
   10ee8:	00011428 	.word	0x00011428
   10eec:	00011428 	.word	0x00011428
   10ef0:	00011428 	.word	0x00011428
   10ef4:	00011428 	.word	0x00011428
   10ef8:	00011070 	.word	0x00011070
   10efc:	00011428 	.word	0x00011428
   10f00:	00011428 	.word	0x00011428
   10f04:	00011428 	.word	0x00011428
   10f08:	00011428 	.word	0x00011428
   10f0c:	00011428 	.word	0x00011428
   10f10:	00010fa0 	.word	0x00010fa0
   10f14:	00011428 	.word	0x00011428
   10f18:	00011428 	.word	0x00011428
   10f1c:	00011360 	.word	0x00011360
   10f20:	00011428 	.word	0x00011428
   10f24:	00011428 	.word	0x00011428
   10f28:	00011428 	.word	0x00011428
   10f2c:	00011428 	.word	0x00011428
   10f30:	00011428 	.word	0x00011428
   10f34:	00011428 	.word	0x00011428
   10f38:	00011428 	.word	0x00011428
   10f3c:	00011428 	.word	0x00011428
   10f40:	00011428 	.word	0x00011428
   10f44:	00011428 	.word	0x00011428
   10f48:	000111ec 	.word	0x000111ec
   10f4c:	0001119c 	.word	0x0001119c
   10f50:	00011428 	.word	0x00011428
   10f54:	00011428 	.word	0x00011428
   10f58:	00011428 	.word	0x00011428
   10f5c:	000113c8 	.word	0x000113c8
   10f60:	0001119c 	.word	0x0001119c
   10f64:	00011428 	.word	0x00011428
   10f68:	00011428 	.word	0x00011428
   10f6c:	000113a8 	.word	0x000113a8
   10f70:	00011428 	.word	0x00011428
   10f74:	000113d4 	.word	0x000113d4
   10f78:	00011074 	.word	0x00011074
   10f7c:	00011158 	.word	0x00011158
   10f80:	0001114c 	.word	0x0001114c
   10f84:	00011428 	.word	0x00011428
   10f88:	000110e0 	.word	0x000110e0
   10f8c:	00011428 	.word	0x00011428
   10f90:	00010fa4 	.word	0x00010fa4
   10f94:	00011428 	.word	0x00011428
   10f98:	00011428 	.word	0x00011428
   10f9c:	00011454 	.word	0x00011454
   10fa0:	e3855010 	orr	r5, r5, #16
   10fa4:	e3150020 	tst	r5, #32
   10fa8:	e59dc024 	ldr	r12, [sp, #36]	; 0x24
   10fac:	0a0002e6 	beq	11b4c <_svfiprintf_r+0xe2c>
   10fb0:	e28c3007 	add	r3, r12, #7
   10fb4:	e3c33007 	bic	r3, r3, #7
   10fb8:	e89300c0 	ldm	r3, {r6, r7}
   10fbc:	e2833008 	add	r3, r3, #8
   10fc0:	e1961007 	orrs	r1, r6, r7
   10fc4:	e58d3024 	str	r3, [sp, #36]	; 0x24
   10fc8:	03a02000 	moveq	r2, #0
   10fcc:	13a02001 	movne	r2, #1
   10fd0:	e3a03001 	mov	r3, #1
   10fd4:	e3a0a000 	mov	r10, #0
   10fd8:	e5cda047 	strb	r10, [sp, #71]	; 0x47
   10fdc:	e3590000 	cmp	r9, #0
   10fe0:	a3c55080 	bicge	r5, r5, #128	; 0x80
   10fe4:	e3590000 	cmp	r9, #0
   10fe8:	13822001 	orrne	r2, r2, #1
   10fec:	e3520000 	cmp	r2, #0
   10ff0:	0a000214 	beq	11848 <_svfiprintf_r+0xb28>
   10ff4:	e3530001 	cmp	r3, #1
   10ff8:	0a0002a1 	beq	11a84 <_svfiprintf_r+0xd64>
   10ffc:	e3530002 	cmp	r3, #2
   11000:	e28d007f 	add	r0, sp, #127	; 0x7f
   11004:	0a0002bb 	beq	11af8 <_svfiprintf_r+0xdd8>
   11008:	e3a0b007 	mov	r11, #7
   1100c:	e1a011a6 	lsr	r1, r6, #3
   11010:	e1811e87 	orr	r1, r1, r7, lsl #29
   11014:	e006200b 	and	r2, r6, r11
   11018:	e1a031a7 	lsr	r3, r7, #3
   1101c:	e1a07003 	mov	r7, r3
   11020:	e1a06001 	mov	r6, r1
   11024:	e2822030 	add	r2, r2, #48	; 0x30
   11028:	e20220ff 	and	r2, r2, #255	; 0xff
   1102c:	e1961007 	orrs	r1, r6, r7
   11030:	e1a03000 	mov	r3, r0
   11034:	e5c02000 	strb	r2, [r0]
   11038:	e2400001 	sub	r0, r0, #1
   1103c:	1afffff2 	bne	1100c <_svfiprintf_r+0x2ec>
   11040:	e3150001 	tst	r5, #1
   11044:	e58d302c 	str	r3, [sp, #44]	; 0x2c
   11048:	1a0002eb 	bne	11bfc <_svfiprintf_r+0xedc>
   1104c:	e59dc00c 	ldr	r12, [sp, #12]
   11050:	e063700c 	rsb	r7, r3, r12
   11054:	e58d9014 	str	r9, [sp, #20]
   11058:	e59d6014 	ldr	r6, [sp, #20]
   1105c:	e1560007 	cmp	r6, r7
   11060:	b1a06007 	movlt	r6, r7
   11064:	e35a0000 	cmp	r10, #0
   11068:	12866001 	addne	r6, r6, #1
   1106c:	ea00006c 	b	11224 <_svfiprintf_r+0x504>
   11070:	e3855010 	orr	r5, r5, #16
   11074:	e2153020 	ands	r3, r5, #32
   11078:	e59dc024 	ldr	r12, [sp, #36]	; 0x24
   1107c:	0a0002bd 	beq	11b78 <_svfiprintf_r+0xe58>
   11080:	e28c3007 	add	r3, r12, #7
   11084:	e3c33007 	bic	r3, r3, #7
   11088:	e89300c0 	ldm	r3, {r6, r7}
   1108c:	e2833008 	add	r3, r3, #8
   11090:	e1961007 	orrs	r1, r6, r7
   11094:	e58d3024 	str	r3, [sp, #36]	; 0x24
   11098:	03a02000 	moveq	r2, #0
   1109c:	13a02001 	movne	r2, #1
   110a0:	e3a03000 	mov	r3, #0
   110a4:	eaffffca 	b	10fd4 <_svfiprintf_r+0x2b4>
   110a8:	e59dc024 	ldr	r12, [sp, #36]	; 0x24
   110ac:	e59cc000 	ldr	r12, [r12]
   110b0:	e58dc01c 	str	r12, [sp, #28]
   110b4:	e35c0000 	cmp	r12, #0
   110b8:	e59dc024 	ldr	r12, [sp, #36]	; 0x24
   110bc:	e28c2004 	add	r2, r12, #4
   110c0:	aa0002c2 	bge	11bd0 <_svfiprintf_r+0xeb0>
   110c4:	e59dc01c 	ldr	r12, [sp, #28]
   110c8:	e26cc000 	rsb	r12, r12, #0
   110cc:	e58dc01c 	str	r12, [sp, #28]
   110d0:	e58d2024 	str	r2, [sp, #36]	; 0x24
   110d4:	e3855004 	orr	r5, r5, #4
   110d8:	e5d83000 	ldrb	r3, [r8]
   110dc:	eaffff51 	b	10e28 <_svfiprintf_r+0x108>
   110e0:	e59d3024 	ldr	r3, [sp, #36]	; 0x24
   110e4:	e5933000 	ldr	r3, [r3]
   110e8:	e3a06000 	mov	r6, #0
   110ec:	e59dc024 	ldr	r12, [sp, #36]	; 0x24
   110f0:	e1530006 	cmp	r3, r6
   110f4:	e58d302c 	str	r3, [sp, #44]	; 0x2c
   110f8:	e5cd6047 	strb	r6, [sp, #71]	; 0x47
   110fc:	e28cb004 	add	r11, r12, #4
   11100:	0a000305 	beq	11d1c <_svfiprintf_r+0xffc>
   11104:	e3590000 	cmp	r9, #0
   11108:	e59d002c 	ldr	r0, [sp, #44]	; 0x2c
   1110c:	ba0002e9 	blt	11cb8 <_svfiprintf_r+0xf98>
   11110:	e1a01006 	mov	r1, r6
   11114:	e1a02009 	mov	r2, r9
   11118:	ebffdc8a 	bl	8348 <memchr>
   1111c:	e3500000 	cmp	r0, #0
   11120:	0a000305 	beq	11d3c <_svfiprintf_r+0x101c>
   11124:	e59dc02c 	ldr	r12, [sp, #44]	; 0x2c
   11128:	e06c7000 	rsb	r7, r12, r0
   1112c:	e1570009 	cmp	r7, r9
   11130:	e5dda047 	ldrb	r10, [sp, #71]	; 0x47
   11134:	e58db024 	str	r11, [sp, #36]	; 0x24
   11138:	c1a07009 	movgt	r7, r9
   1113c:	c58d6014 	strgt	r6, [sp, #20]
   11140:	caffffc4 	bgt	11058 <_svfiprintf_r+0x338>
   11144:	e58d6014 	str	r6, [sp, #20]
   11148:	eaffffc2 	b	11058 <_svfiprintf_r+0x338>
   1114c:	e3855020 	orr	r5, r5, #32
   11150:	e5d83000 	ldrb	r3, [r8]
   11154:	eaffff33 	b	10e28 <_svfiprintf_r+0x108>
   11158:	e59d3024 	ldr	r3, [sp, #36]	; 0x24
   1115c:	e5932000 	ldr	r2, [r3]
   11160:	e283c004 	add	r12, r3, #4
   11164:	e58dc024 	str	r12, [sp, #36]	; 0x24
   11168:	e3a03030 	mov	r3, #48	; 0x30
   1116c:	e3a07000 	mov	r7, #0
   11170:	e59fcc14 	ldr	r12, [pc, #3092]	; 11d8c <_svfiprintf_r+0x106c>
   11174:	e1a06002 	mov	r6, r2
   11178:	e5cd3048 	strb	r3, [sp, #72]	; 0x48
   1117c:	e0522007 	subs	r2, r2, r7
   11180:	e3a03078 	mov	r3, #120	; 0x78
   11184:	e5cd3049 	strb	r3, [sp, #73]	; 0x49
   11188:	e3855002 	orr	r5, r5, #2
   1118c:	13a02001 	movne	r2, #1
   11190:	e58dc034 	str	r12, [sp, #52]	; 0x34
   11194:	e3a03002 	mov	r3, #2
   11198:	eaffff8d 	b	10fd4 <_svfiprintf_r+0x2b4>
   1119c:	e3150020 	tst	r5, #32
   111a0:	e5cd1047 	strb	r1, [sp, #71]	; 0x47
   111a4:	e59dc024 	ldr	r12, [sp, #36]	; 0x24
   111a8:	0a0000be 	beq	114a8 <_svfiprintf_r+0x788>
   111ac:	e28c1007 	add	r1, r12, #7
   111b0:	e3c11007 	bic	r1, r1, #7
   111b4:	e891000c 	ldm	r1, {r2, r3}
   111b8:	e2811008 	add	r1, r1, #8
   111bc:	e58d1024 	str	r1, [sp, #36]	; 0x24
   111c0:	e3520000 	cmp	r2, #0
   111c4:	e2d31000 	sbcs	r1, r3, #0
   111c8:	e1a06002 	mov	r6, r2
   111cc:	e1a07003 	mov	r7, r3
   111d0:	ba0000c0 	blt	114d8 <_svfiprintf_r+0x7b8>
   111d4:	e1962007 	orrs	r2, r6, r7
   111d8:	e5dda047 	ldrb	r10, [sp, #71]	; 0x47
   111dc:	03a02000 	moveq	r2, #0
   111e0:	13a02001 	movne	r2, #1
   111e4:	e3a03001 	mov	r3, #1
   111e8:	eaffff7b 	b	10fdc <_svfiprintf_r+0x2bc>
   111ec:	e59d3024 	ldr	r3, [sp, #36]	; 0x24
   111f0:	e5933000 	ldr	r3, [r3]
   111f4:	e59dc024 	ldr	r12, [sp, #36]	; 0x24
   111f8:	e5cd3058 	strb	r3, [sp, #88]	; 0x58
   111fc:	e3a03000 	mov	r3, #0
   11200:	e28cc004 	add	r12, r12, #4
   11204:	e5cd3047 	strb	r3, [sp, #71]	; 0x47
   11208:	e28d3058 	add	r3, sp, #88	; 0x58
   1120c:	e3a06001 	mov	r6, #1
   11210:	e58dc024 	str	r12, [sp, #36]	; 0x24
   11214:	e58d302c 	str	r3, [sp, #44]	; 0x2c
   11218:	e1a07006 	mov	r7, r6
   1121c:	e3a03000 	mov	r3, #0
   11220:	e58d3014 	str	r3, [sp, #20]
   11224:	e2159002 	ands	r9, r5, #2
   11228:	12866002 	addne	r6, r6, #2
   1122c:	e2153084 	ands	r3, r5, #132	; 0x84
   11230:	e58d3028 	str	r3, [sp, #40]	; 0x28
   11234:	1a0000d5 	bne	11590 <_svfiprintf_r+0x870>
   11238:	e59dc01c 	ldr	r12, [sp, #28]
   1123c:	e066b00c 	rsb	r11, r6, r12
   11240:	e35b0000 	cmp	r11, #0
   11244:	da0000d1 	ble	11590 <_svfiprintf_r+0x870>
   11248:	e35b0010 	cmp	r11, #16
   1124c:	d59f3b3c 	ldrle	r3, [pc, #2876]	; 11d90 <_svfiprintf_r+0x1070>
   11250:	e59d1054 	ldr	r1, [sp, #84]	; 0x54
   11254:	e59d2050 	ldr	r2, [sp, #80]	; 0x50
   11258:	d58d3030 	strle	r3, [sp, #48]	; 0x30
   1125c:	da00002b 	ble	11310 <_svfiprintf_r+0x5f0>
   11260:	e59fcb28 	ldr	r12, [pc, #2856]	; 11d90 <_svfiprintf_r+0x1070>
   11264:	e1a0300b 	mov	r3, r11
   11268:	e58d5038 	str	r5, [sp, #56]	; 0x38
   1126c:	e1a00004 	mov	r0, r4
   11270:	e1a0b009 	mov	r11, r9
   11274:	e58dc030 	str	r12, [sp, #48]	; 0x30
   11278:	e1a09007 	mov	r9, r7
   1127c:	e3a0a010 	mov	r10, #16
   11280:	e1a07006 	mov	r7, r6
   11284:	e59d4020 	ldr	r4, [sp, #32]
   11288:	e59d5018 	ldr	r5, [sp, #24]
   1128c:	e1a06003 	mov	r6, r3
   11290:	ea000002 	b	112a0 <_svfiprintf_r+0x580>
   11294:	e2466010 	sub	r6, r6, #16
   11298:	e3560010 	cmp	r6, #16
   1129c:	da000014 	ble	112f4 <_svfiprintf_r+0x5d4>
   112a0:	e2822001 	add	r2, r2, #1
   112a4:	e59f3ae4 	ldr	r3, [pc, #2788]	; 11d90 <_svfiprintf_r+0x1070>
   112a8:	e2811010 	add	r1, r1, #16
   112ac:	e3520007 	cmp	r2, #7
   112b0:	e8800408 	stm	r0, {r3, r10}
   112b4:	e58d1054 	str	r1, [sp, #84]	; 0x54
   112b8:	e58d2050 	str	r2, [sp, #80]	; 0x50
   112bc:	d2800008 	addle	r0, r0, #8
   112c0:	dafffff3 	ble	11294 <_svfiprintf_r+0x574>
   112c4:	e1a00004 	mov	r0, r4
   112c8:	e1a01005 	mov	r1, r5
   112cc:	e28d204c 	add	r2, sp, #76	; 0x4c
   112d0:	ebfffe29 	bl	10b7c <__ssprint_r>
   112d4:	e3500000 	cmp	r0, #0
   112d8:	1a00016a 	bne	11888 <_svfiprintf_r+0xb68>
   112dc:	e2466010 	sub	r6, r6, #16
   112e0:	e3560010 	cmp	r6, #16
   112e4:	e59d1054 	ldr	r1, [sp, #84]	; 0x54
   112e8:	e59d2050 	ldr	r2, [sp, #80]	; 0x50
   112ec:	e28d0080 	add	r0, sp, #128	; 0x80
   112f0:	caffffea 	bgt	112a0 <_svfiprintf_r+0x580>
   112f4:	e1a03006 	mov	r3, r6
   112f8:	e59d5038 	ldr	r5, [sp, #56]	; 0x38
   112fc:	e1a06007 	mov	r6, r7
   11300:	e1a04000 	mov	r4, r0
   11304:	e1a07009 	mov	r7, r9
   11308:	e1a0900b 	mov	r9, r11
   1130c:	e1a0b003 	mov	r11, r3
   11310:	e2822001 	add	r2, r2, #1
   11314:	e59dc030 	ldr	r12, [sp, #48]	; 0x30
   11318:	e081100b 	add	r1, r1, r11
   1131c:	e3520007 	cmp	r2, #7
   11320:	e584c000 	str	r12, [r4]
   11324:	e584b004 	str	r11, [r4, #4]
   11328:	e58d1054 	str	r1, [sp, #84]	; 0x54
   1132c:	e58d2050 	str	r2, [sp, #80]	; 0x50
   11330:	d2844008 	addle	r4, r4, #8
   11334:	da000097 	ble	11598 <_svfiprintf_r+0x878>
   11338:	e59d0020 	ldr	r0, [sp, #32]
   1133c:	e59d1018 	ldr	r1, [sp, #24]
   11340:	e28d204c 	add	r2, sp, #76	; 0x4c
   11344:	ebfffe0c 	bl	10b7c <__ssprint_r>
   11348:	e3500000 	cmp	r0, #0
   1134c:	1a00014d 	bne	11888 <_svfiprintf_r+0xb68>
   11350:	e59d1054 	ldr	r1, [sp, #84]	; 0x54
   11354:	e59d2050 	ldr	r2, [sp, #80]	; 0x50
   11358:	e28d4080 	add	r4, sp, #128	; 0x80
   1135c:	ea00008d 	b	11598 <_svfiprintf_r+0x878>
   11360:	e59fca2c 	ldr	r12, [pc, #2604]	; 11d94 <_svfiprintf_r+0x1074>
   11364:	e3150020 	tst	r5, #32
   11368:	e58dc034 	str	r12, [sp, #52]	; 0x34
   1136c:	e5cd1047 	strb	r1, [sp, #71]	; 0x47
   11370:	e59dc024 	ldr	r12, [sp, #36]	; 0x24
   11374:	0a00003c 	beq	1146c <_svfiprintf_r+0x74c>
   11378:	e28c2007 	add	r2, r12, #7
   1137c:	e3c22007 	bic	r2, r2, #7
   11380:	e282c008 	add	r12, r2, #8
   11384:	e58dc024 	str	r12, [sp, #36]	; 0x24
   11388:	e89200c0 	ldm	r2, {r6, r7}
   1138c:	e3150001 	tst	r5, #1
   11390:	1a000205 	bne	11bac <_svfiprintf_r+0xe8c>
   11394:	e1961007 	orrs	r1, r6, r7
   11398:	03a02000 	moveq	r2, #0
   1139c:	13a02001 	movne	r2, #1
   113a0:	e3a03002 	mov	r3, #2
   113a4:	eaffff0a 	b	10fd4 <_svfiprintf_r+0x2b4>
   113a8:	e5d83000 	ldrb	r3, [r8]
   113ac:	e1a02008 	mov	r2, r8
   113b0:	e353006c 	cmp	r3, #108	; 0x6c
   113b4:	02888001 	addeq	r8, r8, #1
   113b8:	03855020 	orreq	r5, r5, #32
   113bc:	05d23001 	ldrbeq	r3, [r2, #1]
   113c0:	13855010 	orrne	r5, r5, #16
   113c4:	eafffe97 	b	10e28 <_svfiprintf_r+0x108>
   113c8:	e3855040 	orr	r5, r5, #64	; 0x40
   113cc:	e5d83000 	ldrb	r3, [r8]
   113d0:	eafffe94 	b	10e28 <_svfiprintf_r+0x108>
   113d4:	e3150020 	tst	r5, #32
   113d8:	e5cd1047 	strb	r1, [sp, #71]	; 0x47
   113dc:	1a00022c 	bne	11c94 <_svfiprintf_r+0xf74>
   113e0:	e3150010 	tst	r5, #16
   113e4:	1a000238 	bne	11ccc <_svfiprintf_r+0xfac>
   113e8:	e3150040 	tst	r5, #64	; 0x40
   113ec:	0a000236 	beq	11ccc <_svfiprintf_r+0xfac>
   113f0:	e59dc024 	ldr	r12, [sp, #36]	; 0x24
   113f4:	e59c3000 	ldr	r3, [r12]
   113f8:	e28cc004 	add	r12, r12, #4
   113fc:	e58dc024 	str	r12, [sp, #36]	; 0x24
   11400:	e59dc010 	ldr	r12, [sp, #16]
   11404:	e1c3c0b0 	strh	r12, [r3]
   11408:	eafffe60 	b	10d90 <_svfiprintf_r+0x70>
   1140c:	e3855001 	orr	r5, r5, #1
   11410:	e5d83000 	ldrb	r3, [r8]
   11414:	eafffe83 	b	10e28 <_svfiprintf_r+0x108>
   11418:	e3510000 	cmp	r1, #0
   1141c:	e5d83000 	ldrb	r3, [r8]
   11420:	03a01020 	moveq	r1, #32
   11424:	eafffe7f 	b	10e28 <_svfiprintf_r+0x108>
   11428:	e3530000 	cmp	r3, #0
   1142c:	e5cd1047 	strb	r1, [sp, #71]	; 0x47
   11430:	0a00010e 	beq	11870 <_svfiprintf_r+0xb50>
   11434:	e3a06001 	mov	r6, #1
   11438:	e5cd3058 	strb	r3, [sp, #88]	; 0x58
   1143c:	e28dc058 	add	r12, sp, #88	; 0x58
   11440:	e3a03000 	mov	r3, #0
   11444:	e5cd3047 	strb	r3, [sp, #71]	; 0x47
   11448:	e1a07006 	mov	r7, r6
   1144c:	e58dc02c 	str	r12, [sp, #44]	; 0x2c
   11450:	eaffff71 	b	1121c <_svfiprintf_r+0x4fc>
   11454:	e59fc930 	ldr	r12, [pc, #2352]	; 11d8c <_svfiprintf_r+0x106c>
   11458:	e3150020 	tst	r5, #32
   1145c:	e58dc034 	str	r12, [sp, #52]	; 0x34
   11460:	e5cd1047 	strb	r1, [sp, #71]	; 0x47
   11464:	e59dc024 	ldr	r12, [sp, #36]	; 0x24
   11468:	1affffc2 	bne	11378 <_svfiprintf_r+0x658>
   1146c:	e3150010 	tst	r5, #16
   11470:	1a0001f1 	bne	11c3c <_svfiprintf_r+0xf1c>
   11474:	e3150040 	tst	r5, #64	; 0x40
   11478:	0a0001ef 	beq	11c3c <_svfiprintf_r+0xf1c>
   1147c:	e1dc20b0 	ldrh	r2, [r12]
   11480:	e28cc004 	add	r12, r12, #4
   11484:	e1a06002 	mov	r6, r2
   11488:	e3a07000 	mov	r7, #0
   1148c:	e58dc024 	str	r12, [sp, #36]	; 0x24
   11490:	eaffffbd 	b	1138c <_svfiprintf_r+0x66c>
   11494:	e3855010 	orr	r5, r5, #16
   11498:	e3150020 	tst	r5, #32
   1149c:	e5cd1047 	strb	r1, [sp, #71]	; 0x47
   114a0:	e59dc024 	ldr	r12, [sp, #36]	; 0x24
   114a4:	1affff40 	bne	111ac <_svfiprintf_r+0x48c>
   114a8:	e3150010 	tst	r5, #16
   114ac:	0a0001f0 	beq	11c74 <_svfiprintf_r+0xf54>
   114b0:	e59c3000 	ldr	r3, [r12]
   114b4:	e1a07fc3 	asr	r7, r3, #31
   114b8:	e1a02003 	mov	r2, r3
   114bc:	e1a06003 	mov	r6, r3
   114c0:	e1a03007 	mov	r3, r7
   114c4:	e28cc004 	add	r12, r12, #4
   114c8:	e3520000 	cmp	r2, #0
   114cc:	e2d31000 	sbcs	r1, r3, #0
   114d0:	e58dc024 	str	r12, [sp, #36]	; 0x24
   114d4:	aaffff3e 	bge	111d4 <_svfiprintf_r+0x4b4>
   114d8:	e2766000 	rsbs	r6, r6, #0
   114dc:	e2e77000 	rsc	r7, r7, #0
   114e0:	e1963007 	orrs	r3, r6, r7
   114e4:	e3a0a02d 	mov	r10, #45	; 0x2d
   114e8:	e5cda047 	strb	r10, [sp, #71]	; 0x47
   114ec:	03a02000 	moveq	r2, #0
   114f0:	13a02001 	movne	r2, #1
   114f4:	e3a03001 	mov	r3, #1
   114f8:	eafffeb7 	b	10fdc <_svfiprintf_r+0x2bc>
   114fc:	e1a00008 	mov	r0, r8
   11500:	e3a02000 	mov	r2, #0
   11504:	e243c030 	sub	r12, r3, #48	; 0x30
   11508:	e4d03001 	ldrb	r3, [r0], #1
   1150c:	e2436030 	sub	r6, r3, #48	; 0x30
   11510:	e0822102 	add	r2, r2, r2, lsl #2
   11514:	e3560009 	cmp	r6, #9
   11518:	e08c2082 	add	r2, r12, r2, lsl #1
   1151c:	e1a08000 	mov	r8, r0
   11520:	9afffff7 	bls	11504 <_svfiprintf_r+0x7e4>
   11524:	e58d201c 	str	r2, [sp, #28]
   11528:	eafffe3f 	b	10e2c <_svfiprintf_r+0x10c>
   1152c:	e3855080 	orr	r5, r5, #128	; 0x80
   11530:	e5d83000 	ldrb	r3, [r8]
   11534:	eafffe3b 	b	10e28 <_svfiprintf_r+0x108>
   11538:	e5d83000 	ldrb	r3, [r8]
   1153c:	e3a0102b 	mov	r1, #43	; 0x2b
   11540:	eafffe38 	b	10e28 <_svfiprintf_r+0x108>
   11544:	e1a00008 	mov	r0, r8
   11548:	e4d03001 	ldrb	r3, [r0], #1
   1154c:	e353002a 	cmp	r3, #42	; 0x2a
   11550:	0a0001fe 	beq	11d50 <_svfiprintf_r+0x1030>
   11554:	e2432030 	sub	r2, r3, #48	; 0x30
   11558:	e3520009 	cmp	r2, #9
   1155c:	81a08000 	movhi	r8, r0
   11560:	83a09000 	movhi	r9, #0
   11564:	8afffe30 	bhi	10e2c <_svfiprintf_r+0x10c>
   11568:	e3a09000 	mov	r9, #0
   1156c:	e4d03001 	ldrb	r3, [r0], #1
   11570:	e0899109 	add	r9, r9, r9, lsl #2
   11574:	e0829089 	add	r9, r2, r9, lsl #1
   11578:	e2432030 	sub	r2, r3, #48	; 0x30
   1157c:	e3520009 	cmp	r2, #9
   11580:	e1a08000 	mov	r8, r0
   11584:	9afffff8 	bls	1156c <_svfiprintf_r+0x84c>
   11588:	e1899fc9 	orr	r9, r9, r9, asr #31
   1158c:	eafffe26 	b	10e2c <_svfiprintf_r+0x10c>
   11590:	e59d1054 	ldr	r1, [sp, #84]	; 0x54
   11594:	e59d2050 	ldr	r2, [sp, #80]	; 0x50
   11598:	e5dd3047 	ldrb	r3, [sp, #71]	; 0x47
   1159c:	e3530000 	cmp	r3, #0
   115a0:	0a00000a 	beq	115d0 <_svfiprintf_r+0x8b0>
   115a4:	e2822001 	add	r2, r2, #1
   115a8:	e28d3047 	add	r3, sp, #71	; 0x47
   115ac:	e5843000 	str	r3, [r4]
   115b0:	e2811001 	add	r1, r1, #1
   115b4:	e3520007 	cmp	r2, #7
   115b8:	e3a03001 	mov	r3, #1
   115bc:	e5843004 	str	r3, [r4, #4]
   115c0:	e58d1054 	str	r1, [sp, #84]	; 0x54
   115c4:	e58d2050 	str	r2, [sp, #80]	; 0x50
   115c8:	d2844008 	addle	r4, r4, #8
   115cc:	ca000114 	bgt	11a24 <_svfiprintf_r+0xd04>
   115d0:	e3590000 	cmp	r9, #0
   115d4:	0a00000a 	beq	11604 <_svfiprintf_r+0x8e4>
   115d8:	e2822001 	add	r2, r2, #1
   115dc:	e28d3048 	add	r3, sp, #72	; 0x48
   115e0:	e5843000 	str	r3, [r4]
   115e4:	e2811002 	add	r1, r1, #2
   115e8:	e3520007 	cmp	r2, #7
   115ec:	e3a03002 	mov	r3, #2
   115f0:	e5843004 	str	r3, [r4, #4]
   115f4:	e58d1054 	str	r1, [sp, #84]	; 0x54
   115f8:	e58d2050 	str	r2, [sp, #80]	; 0x50
   115fc:	d2844008 	addle	r4, r4, #8
   11600:	ca000111 	bgt	11a4c <_svfiprintf_r+0xd2c>
   11604:	e59d3028 	ldr	r3, [sp, #40]	; 0x28
   11608:	e3530080 	cmp	r3, #128	; 0x80
   1160c:	0a0000a7 	beq	118b0 <_svfiprintf_r+0xb90>
   11610:	e59d3014 	ldr	r3, [sp, #20]
   11614:	e0679003 	rsb	r9, r7, r3
   11618:	e3590000 	cmp	r9, #0
   1161c:	da00003b 	ble	11710 <_svfiprintf_r+0x9f0>
   11620:	e3590010 	cmp	r9, #16
   11624:	e59fa76c 	ldr	r10, [pc, #1900]	; 11d98 <_svfiprintf_r+0x1078>
   11628:	da000026 	ble	116c8 <_svfiprintf_r+0x9a8>
   1162c:	e1a0300a 	mov	r3, r10
   11630:	e58d5014 	str	r5, [sp, #20]
   11634:	e1a00004 	mov	r0, r4
   11638:	e1a0a007 	mov	r10, r7
   1163c:	e3a0b010 	mov	r11, #16
   11640:	e1a07006 	mov	r7, r6
   11644:	e59d4020 	ldr	r4, [sp, #32]
   11648:	e59d5018 	ldr	r5, [sp, #24]
   1164c:	e1a06003 	mov	r6, r3
   11650:	ea000002 	b	11660 <_svfiprintf_r+0x940>
   11654:	e2499010 	sub	r9, r9, #16
   11658:	e3590010 	cmp	r9, #16
   1165c:	da000013 	ble	116b0 <_svfiprintf_r+0x990>
   11660:	e2822001 	add	r2, r2, #1
   11664:	e2811010 	add	r1, r1, #16
   11668:	e3520007 	cmp	r2, #7
   1166c:	e8800840 	stm	r0, {r6, r11}
   11670:	e58d1054 	str	r1, [sp, #84]	; 0x54
   11674:	e58d2050 	str	r2, [sp, #80]	; 0x50
   11678:	d2800008 	addle	r0, r0, #8
   1167c:	dafffff4 	ble	11654 <_svfiprintf_r+0x934>
   11680:	e1a00004 	mov	r0, r4
   11684:	e1a01005 	mov	r1, r5
   11688:	e28d204c 	add	r2, sp, #76	; 0x4c
   1168c:	ebfffd3a 	bl	10b7c <__ssprint_r>
   11690:	e3500000 	cmp	r0, #0
   11694:	1a00007b 	bne	11888 <_svfiprintf_r+0xb68>
   11698:	e2499010 	sub	r9, r9, #16
   1169c:	e3590010 	cmp	r9, #16
   116a0:	e59d1054 	ldr	r1, [sp, #84]	; 0x54
   116a4:	e59d2050 	ldr	r2, [sp, #80]	; 0x50
   116a8:	e28d0080 	add	r0, sp, #128	; 0x80
   116ac:	caffffeb 	bgt	11660 <_svfiprintf_r+0x940>
   116b0:	e1a03006 	mov	r3, r6
   116b4:	e59d5014 	ldr	r5, [sp, #20]
   116b8:	e1a06007 	mov	r6, r7
   116bc:	e1a04000 	mov	r4, r0
   116c0:	e1a0700a 	mov	r7, r10
   116c4:	e1a0a003 	mov	r10, r3
   116c8:	e2822001 	add	r2, r2, #1
   116cc:	e0811009 	add	r1, r1, r9
   116d0:	e3520007 	cmp	r2, #7
   116d4:	e584a000 	str	r10, [r4]
   116d8:	e5849004 	str	r9, [r4, #4]
   116dc:	e58d1054 	str	r1, [sp, #84]	; 0x54
   116e0:	e58d2050 	str	r2, [sp, #80]	; 0x50
   116e4:	d2844008 	addle	r4, r4, #8
   116e8:	da000008 	ble	11710 <_svfiprintf_r+0x9f0>
   116ec:	e59d0020 	ldr	r0, [sp, #32]
   116f0:	e59d1018 	ldr	r1, [sp, #24]
   116f4:	e28d204c 	add	r2, sp, #76	; 0x4c
   116f8:	ebfffd1f 	bl	10b7c <__ssprint_r>
   116fc:	e3500000 	cmp	r0, #0
   11700:	1a000060 	bne	11888 <_svfiprintf_r+0xb68>
   11704:	e59d1054 	ldr	r1, [sp, #84]	; 0x54
   11708:	e59d2050 	ldr	r2, [sp, #80]	; 0x50
   1170c:	e28d4080 	add	r4, sp, #128	; 0x80
   11710:	e2822001 	add	r2, r2, #1
   11714:	e59dc02c 	ldr	r12, [sp, #44]	; 0x2c
   11718:	e0811007 	add	r1, r1, r7
   1171c:	e3520007 	cmp	r2, #7
   11720:	e584c000 	str	r12, [r4]
   11724:	e5847004 	str	r7, [r4, #4]
   11728:	e58d1054 	str	r1, [sp, #84]	; 0x54
   1172c:	e58d2050 	str	r2, [sp, #80]	; 0x50
   11730:	d2844008 	addle	r4, r4, #8
   11734:	ca00009e 	bgt	119b4 <_svfiprintf_r+0xc94>
   11738:	e3150004 	tst	r5, #4
   1173c:	0a000030 	beq	11804 <_svfiprintf_r+0xae4>
   11740:	e59dc01c 	ldr	r12, [sp, #28]
   11744:	e066500c 	rsb	r5, r6, r12
   11748:	e3550000 	cmp	r5, #0
   1174c:	da00002c 	ble	11804 <_svfiprintf_r+0xae4>
   11750:	e3550010 	cmp	r5, #16
   11754:	d59f3634 	ldrle	r3, [pc, #1588]	; 11d90 <_svfiprintf_r+0x1070>
   11758:	e59d2050 	ldr	r2, [sp, #80]	; 0x50
   1175c:	d58d3030 	strle	r3, [sp, #48]	; 0x30
   11760:	da00001f 	ble	117e4 <_svfiprintf_r+0xac4>
   11764:	e59fc624 	ldr	r12, [pc, #1572]	; 11d90 <_svfiprintf_r+0x1070>
   11768:	e3a07010 	mov	r7, #16
   1176c:	e58dc030 	str	r12, [sp, #48]	; 0x30
   11770:	e59da020 	ldr	r10, [sp, #32]
   11774:	e59d9018 	ldr	r9, [sp, #24]
   11778:	e1a03001 	mov	r3, r1
   1177c:	ea000002 	b	1178c <_svfiprintf_r+0xa6c>
   11780:	e2455010 	sub	r5, r5, #16
   11784:	e3550010 	cmp	r5, #16
   11788:	da000014 	ble	117e0 <_svfiprintf_r+0xac0>
   1178c:	e2822001 	add	r2, r2, #1
   11790:	e59f15f8 	ldr	r1, [pc, #1528]	; 11d90 <_svfiprintf_r+0x1070>
   11794:	e2833010 	add	r3, r3, #16
   11798:	e3520007 	cmp	r2, #7
   1179c:	e8840082 	stm	r4, {r1, r7}
   117a0:	e58d3054 	str	r3, [sp, #84]	; 0x54
   117a4:	e58d2050 	str	r2, [sp, #80]	; 0x50
   117a8:	d2844008 	addle	r4, r4, #8
   117ac:	dafffff3 	ble	11780 <_svfiprintf_r+0xa60>
   117b0:	e1a0000a 	mov	r0, r10
   117b4:	e1a01009 	mov	r1, r9
   117b8:	e28d204c 	add	r2, sp, #76	; 0x4c
   117bc:	ebfffcee 	bl	10b7c <__ssprint_r>
   117c0:	e3500000 	cmp	r0, #0
   117c4:	1a00002f 	bne	11888 <_svfiprintf_r+0xb68>
   117c8:	e2455010 	sub	r5, r5, #16
   117cc:	e28d2050 	add	r2, sp, #80	; 0x50
   117d0:	e3550010 	cmp	r5, #16
   117d4:	e892000c 	ldm	r2, {r2, r3}
   117d8:	e28d4080 	add	r4, sp, #128	; 0x80
   117dc:	caffffea 	bgt	1178c <_svfiprintf_r+0xa6c>
   117e0:	e1a01003 	mov	r1, r3
   117e4:	e2822001 	add	r2, r2, #1
   117e8:	e59d3030 	ldr	r3, [sp, #48]	; 0x30
   117ec:	e0851001 	add	r1, r5, r1
   117f0:	e3520007 	cmp	r2, #7
   117f4:	e8840028 	stm	r4, {r3, r5}
   117f8:	e58d1054 	str	r1, [sp, #84]	; 0x54
   117fc:	e58d2050 	str	r2, [sp, #80]	; 0x50
   11800:	ca0000f5 	bgt	11bdc <_svfiprintf_r+0xebc>
   11804:	e59dc010 	ldr	r12, [sp, #16]
   11808:	e59d201c 	ldr	r2, [sp, #28]
   1180c:	e1560002 	cmp	r6, r2
   11810:	a08cc006 	addge	r12, r12, r6
   11814:	b08cc002 	addlt	r12, r12, r2
   11818:	e3510000 	cmp	r1, #0
   1181c:	e58dc010 	str	r12, [sp, #16]
   11820:	1a00006c 	bne	119d8 <_svfiprintf_r+0xcb8>
   11824:	e3a03000 	mov	r3, #0
   11828:	e58d3050 	str	r3, [sp, #80]	; 0x50
   1182c:	e5d83000 	ldrb	r3, [r8]
   11830:	e3530000 	cmp	r3, #0
   11834:	13530025 	cmpne	r3, #37	; 0x25
   11838:	e28d4080 	add	r4, sp, #128	; 0x80
   1183c:	1afffd57 	bne	10da0 <_svfiprintf_r+0x80>
   11840:	e1a05008 	mov	r5, r8
   11844:	eafffd6c 	b	10dfc <_svfiprintf_r+0xdc>
   11848:	e3530000 	cmp	r3, #0
   1184c:	1a000068 	bne	119f4 <_svfiprintf_r+0xcd4>
   11850:	e3150001 	tst	r5, #1
   11854:	0a000086 	beq	11a74 <_svfiprintf_r+0xd54>
   11858:	e3a03030 	mov	r3, #48	; 0x30
   1185c:	e5cd307f 	strb	r3, [sp, #127]	; 0x7f
   11860:	e28d307f 	add	r3, sp, #127	; 0x7f
   11864:	e59d703c 	ldr	r7, [sp, #60]	; 0x3c
   11868:	e58d302c 	str	r3, [sp, #44]	; 0x2c
   1186c:	eafffdf8 	b	11054 <_svfiprintf_r+0x334>
   11870:	e59d3054 	ldr	r3, [sp, #84]	; 0x54
   11874:	e3530000 	cmp	r3, #0
   11878:	159d0020 	ldrne	r0, [sp, #32]
   1187c:	159d1018 	ldrne	r1, [sp, #24]
   11880:	128d204c 	addne	r2, sp, #76	; 0x4c
   11884:	1bfffcbc 	blne	10b7c <__ssprint_r>
   11888:	e59dc018 	ldr	r12, [sp, #24]
   1188c:	e1dc30bc 	ldrh	r3, [r12, #12]
   11890:	e59dc010 	ldr	r12, [sp, #16]
   11894:	e3130040 	tst	r3, #64	; 0x40
   11898:	13e0c000 	mvnne	r12, #0
   1189c:	e58dc010 	str	r12, [sp, #16]
   118a0:	e59d0010 	ldr	r0, [sp, #16]
   118a4:	e28dd0c4 	add	sp, sp, #196	; 0xc4
   118a8:	e8bd4ff0 	pop	{r4, r5, r6, r7, r8, r9, r10, r11, lr}
   118ac:	e12fff1e 	bx	lr
   118b0:	e59dc01c 	ldr	r12, [sp, #28]
   118b4:	e066900c 	rsb	r9, r6, r12
   118b8:	e3590000 	cmp	r9, #0
   118bc:	daffff53 	ble	11610 <_svfiprintf_r+0x8f0>
   118c0:	e3590010 	cmp	r9, #16
   118c4:	e59fa4cc 	ldr	r10, [pc, #1228]	; 11d98 <_svfiprintf_r+0x1078>
   118c8:	da000026 	ble	11968 <_svfiprintf_r+0xc48>
   118cc:	e1a0300a 	mov	r3, r10
   118d0:	e58d5028 	str	r5, [sp, #40]	; 0x28
   118d4:	e1a00004 	mov	r0, r4
   118d8:	e1a0a007 	mov	r10, r7
   118dc:	e3a0b010 	mov	r11, #16
   118e0:	e1a07006 	mov	r7, r6
   118e4:	e59d4020 	ldr	r4, [sp, #32]
   118e8:	e59d5018 	ldr	r5, [sp, #24]
   118ec:	e1a06003 	mov	r6, r3
   118f0:	ea000002 	b	11900 <_svfiprintf_r+0xbe0>
   118f4:	e2499010 	sub	r9, r9, #16
   118f8:	e3590010 	cmp	r9, #16
   118fc:	da000013 	ble	11950 <_svfiprintf_r+0xc30>
   11900:	e2822001 	add	r2, r2, #1
   11904:	e2811010 	add	r1, r1, #16
   11908:	e3520007 	cmp	r2, #7
   1190c:	e8800840 	stm	r0, {r6, r11}
   11910:	e58d1054 	str	r1, [sp, #84]	; 0x54
   11914:	e58d2050 	str	r2, [sp, #80]	; 0x50
   11918:	d2800008 	addle	r0, r0, #8
   1191c:	dafffff4 	ble	118f4 <_svfiprintf_r+0xbd4>
   11920:	e1a00004 	mov	r0, r4
   11924:	e1a01005 	mov	r1, r5
   11928:	e28d204c 	add	r2, sp, #76	; 0x4c
   1192c:	ebfffc92 	bl	10b7c <__ssprint_r>
   11930:	e3500000 	cmp	r0, #0
   11934:	1affffd3 	bne	11888 <_svfiprintf_r+0xb68>
   11938:	e2499010 	sub	r9, r9, #16
   1193c:	e3590010 	cmp	r9, #16
   11940:	e59d1054 	ldr	r1, [sp, #84]	; 0x54
   11944:	e59d2050 	ldr	r2, [sp, #80]	; 0x50
   11948:	e28d0080 	add	r0, sp, #128	; 0x80
   1194c:	caffffeb 	bgt	11900 <_svfiprintf_r+0xbe0>
   11950:	e1a03006 	mov	r3, r6
   11954:	e59d5028 	ldr	r5, [sp, #40]	; 0x28
   11958:	e1a06007 	mov	r6, r7
   1195c:	e1a04000 	mov	r4, r0
   11960:	e1a0700a 	mov	r7, r10
   11964:	e1a0a003 	mov	r10, r3
   11968:	e2822001 	add	r2, r2, #1
   1196c:	e0811009 	add	r1, r1, r9
   11970:	e3520007 	cmp	r2, #7
   11974:	e584a000 	str	r10, [r4]
   11978:	e5849004 	str	r9, [r4, #4]
   1197c:	e58d1054 	str	r1, [sp, #84]	; 0x54
   11980:	e58d2050 	str	r2, [sp, #80]	; 0x50
   11984:	d2844008 	addle	r4, r4, #8
   11988:	daffff20 	ble	11610 <_svfiprintf_r+0x8f0>
   1198c:	e59d0020 	ldr	r0, [sp, #32]
   11990:	e59d1018 	ldr	r1, [sp, #24]
   11994:	e28d204c 	add	r2, sp, #76	; 0x4c
   11998:	ebfffc77 	bl	10b7c <__ssprint_r>
   1199c:	e3500000 	cmp	r0, #0
   119a0:	1affffb8 	bne	11888 <_svfiprintf_r+0xb68>
   119a4:	e59d1054 	ldr	r1, [sp, #84]	; 0x54
   119a8:	e59d2050 	ldr	r2, [sp, #80]	; 0x50
   119ac:	e28d4080 	add	r4, sp, #128	; 0x80
   119b0:	eaffff16 	b	11610 <_svfiprintf_r+0x8f0>
   119b4:	e59d0020 	ldr	r0, [sp, #32]
   119b8:	e59d1018 	ldr	r1, [sp, #24]
   119bc:	e28d204c 	add	r2, sp, #76	; 0x4c
   119c0:	ebfffc6d 	bl	10b7c <__ssprint_r>
   119c4:	e3500000 	cmp	r0, #0
   119c8:	1affffae 	bne	11888 <_svfiprintf_r+0xb68>
   119cc:	e59d1054 	ldr	r1, [sp, #84]	; 0x54
   119d0:	e28d4080 	add	r4, sp, #128	; 0x80
   119d4:	eaffff57 	b	11738 <_svfiprintf_r+0xa18>
   119d8:	e59d0020 	ldr	r0, [sp, #32]
   119dc:	e59d1018 	ldr	r1, [sp, #24]
   119e0:	e28d204c 	add	r2, sp, #76	; 0x4c
   119e4:	ebfffc64 	bl	10b7c <__ssprint_r>
   119e8:	e3500000 	cmp	r0, #0
   119ec:	0affff8c 	beq	11824 <_svfiprintf_r+0xb04>
   119f0:	eaffffa4 	b	11888 <_svfiprintf_r+0xb68>
   119f4:	e28dc080 	add	r12, sp, #128	; 0x80
   119f8:	e1a07002 	mov	r7, r2
   119fc:	e58dc02c 	str	r12, [sp, #44]	; 0x2c
   11a00:	eafffd93 	b	11054 <_svfiprintf_r+0x334>
   11a04:	e59d0020 	ldr	r0, [sp, #32]
   11a08:	e59d1018 	ldr	r1, [sp, #24]
   11a0c:	e28d204c 	add	r2, sp, #76	; 0x4c
   11a10:	ebfffc59 	bl	10b7c <__ssprint_r>
   11a14:	e3500000 	cmp	r0, #0
   11a18:	1affff9a 	bne	11888 <_svfiprintf_r+0xb68>
   11a1c:	e28d4080 	add	r4, sp, #128	; 0x80
   11a20:	eafffcf2 	b	10df0 <_svfiprintf_r+0xd0>
   11a24:	e59d0020 	ldr	r0, [sp, #32]
   11a28:	e59d1018 	ldr	r1, [sp, #24]
   11a2c:	e28d204c 	add	r2, sp, #76	; 0x4c
   11a30:	ebfffc51 	bl	10b7c <__ssprint_r>
   11a34:	e3500000 	cmp	r0, #0
   11a38:	1affff92 	bne	11888 <_svfiprintf_r+0xb68>
   11a3c:	e59d1054 	ldr	r1, [sp, #84]	; 0x54
   11a40:	e59d2050 	ldr	r2, [sp, #80]	; 0x50
   11a44:	e28d4080 	add	r4, sp, #128	; 0x80
   11a48:	eafffee0 	b	115d0 <_svfiprintf_r+0x8b0>
   11a4c:	e59d0020 	ldr	r0, [sp, #32]
   11a50:	e59d1018 	ldr	r1, [sp, #24]
   11a54:	e28d204c 	add	r2, sp, #76	; 0x4c
   11a58:	ebfffc47 	bl	10b7c <__ssprint_r>
   11a5c:	e3500000 	cmp	r0, #0
   11a60:	1affff88 	bne	11888 <_svfiprintf_r+0xb68>
   11a64:	e59d1054 	ldr	r1, [sp, #84]	; 0x54
   11a68:	e59d2050 	ldr	r2, [sp, #80]	; 0x50
   11a6c:	e28d4080 	add	r4, sp, #128	; 0x80
   11a70:	eafffee3 	b	11604 <_svfiprintf_r+0x8e4>
   11a74:	e1a07003 	mov	r7, r3
   11a78:	e28d3080 	add	r3, sp, #128	; 0x80
   11a7c:	e58d302c 	str	r3, [sp, #44]	; 0x2c
   11a80:	eafffd73 	b	11054 <_svfiprintf_r+0x334>
   11a84:	e3570000 	cmp	r7, #0
   11a88:	03560009 	cmpeq	r6, #9
   11a8c:	9a000064 	bls	11c24 <_svfiprintf_r+0xf04>
   11a90:	e28db07f 	add	r11, sp, #127	; 0x7f
   11a94:	e58d4014 	str	r4, [sp, #20]
   11a98:	e1a0400b 	mov	r4, r11
   11a9c:	e1a00006 	mov	r0, r6
   11aa0:	e1a01007 	mov	r1, r7
   11aa4:	e3a0200a 	mov	r2, #10
   11aa8:	e3a03000 	mov	r3, #0
   11aac:	eb0002aa 	bl	1255c <__aeabi_uldivmod>
   11ab0:	e2822030 	add	r2, r2, #48	; 0x30
   11ab4:	e5c42000 	strb	r2, [r4]
   11ab8:	e1a00006 	mov	r0, r6
   11abc:	e1a01007 	mov	r1, r7
   11ac0:	e3a0200a 	mov	r2, #10
   11ac4:	e3a03000 	mov	r3, #0
   11ac8:	eb0002a3 	bl	1255c <__aeabi_uldivmod>
   11acc:	e1a06000 	mov	r6, r0
   11ad0:	e1a07001 	mov	r7, r1
   11ad4:	e1961007 	orrs	r1, r6, r7
   11ad8:	e1a0b004 	mov	r11, r4
   11adc:	e2444001 	sub	r4, r4, #1
   11ae0:	1affffed 	bne	11a9c <_svfiprintf_r+0xd7c>
   11ae4:	e59dc00c 	ldr	r12, [sp, #12]
   11ae8:	e58db02c 	str	r11, [sp, #44]	; 0x2c
   11aec:	e59d4014 	ldr	r4, [sp, #20]
   11af0:	e06b700c 	rsb	r7, r11, r12
   11af4:	eafffd56 	b	11054 <_svfiprintf_r+0x334>
   11af8:	e58da014 	str	r10, [sp, #20]
   11afc:	e1a0a004 	mov	r10, r4
   11b00:	e59d4034 	ldr	r4, [sp, #52]	; 0x34
   11b04:	e3a0b00f 	mov	r11, #15
   11b08:	e1a01226 	lsr	r1, r6, #4
   11b0c:	e006200b 	and	r2, r6, r11
   11b10:	e1811e07 	orr	r1, r1, r7, lsl #28
   11b14:	e1a03227 	lsr	r3, r7, #4
   11b18:	e0842002 	add	r2, r4, r2
   11b1c:	e1a07003 	mov	r7, r3
   11b20:	e1a06001 	mov	r6, r1
   11b24:	e5d22000 	ldrb	r2, [r2]
   11b28:	e1961007 	orrs	r1, r6, r7
   11b2c:	e1a03000 	mov	r3, r0
   11b30:	e5c02000 	strb	r2, [r0]
   11b34:	e2400001 	sub	r0, r0, #1
   11b38:	1afffff2 	bne	11b08 <_svfiprintf_r+0xde8>
   11b3c:	e1a0400a 	mov	r4, r10
   11b40:	e58d302c 	str	r3, [sp, #44]	; 0x2c
   11b44:	e59da014 	ldr	r10, [sp, #20]
   11b48:	eafffd3f 	b	1104c <_svfiprintf_r+0x32c>
   11b4c:	e3150010 	tst	r5, #16
   11b50:	0a00004b 	beq	11c84 <_svfiprintf_r+0xf64>
   11b54:	e59c2000 	ldr	r2, [r12]
   11b58:	e3a07000 	mov	r7, #0
   11b5c:	e1a06002 	mov	r6, r2
   11b60:	e28cc004 	add	r12, r12, #4
   11b64:	e0522007 	subs	r2, r2, r7
   11b68:	13a02001 	movne	r2, #1
   11b6c:	e58dc024 	str	r12, [sp, #36]	; 0x24
   11b70:	e3a03001 	mov	r3, #1
   11b74:	eafffd16 	b	10fd4 <_svfiprintf_r+0x2b4>
   11b78:	e2151010 	ands	r1, r5, #16
   11b7c:	1a000034 	bne	11c54 <_svfiprintf_r+0xf34>
   11b80:	e2153040 	ands	r3, r5, #64	; 0x40
   11b84:	0a000032 	beq	11c54 <_svfiprintf_r+0xf34>
   11b88:	e1dc20b0 	ldrh	r2, [r12]
   11b8c:	e3a07000 	mov	r7, #0
   11b90:	e1a06002 	mov	r6, r2
   11b94:	e28cc004 	add	r12, r12, #4
   11b98:	e0522007 	subs	r2, r2, r7
   11b9c:	13a02001 	movne	r2, #1
   11ba0:	e58dc024 	str	r12, [sp, #36]	; 0x24
   11ba4:	e1a03001 	mov	r3, r1
   11ba8:	eafffd09 	b	10fd4 <_svfiprintf_r+0x2b4>
   11bac:	e1962007 	orrs	r2, r6, r7
   11bb0:	13a02030 	movne	r2, #48	; 0x30
   11bb4:	15cd2048 	strbne	r2, [sp, #72]	; 0x48
   11bb8:	15cd3049 	strbne	r3, [sp, #73]	; 0x49
   11bbc:	13855002 	orrne	r5, r5, #2
   11bc0:	13a02001 	movne	r2, #1
   11bc4:	03a02000 	moveq	r2, #0
   11bc8:	e3a03002 	mov	r3, #2
   11bcc:	eafffd00 	b	10fd4 <_svfiprintf_r+0x2b4>
   11bd0:	e5d83000 	ldrb	r3, [r8]
   11bd4:	e58d2024 	str	r2, [sp, #36]	; 0x24
   11bd8:	eafffc92 	b	10e28 <_svfiprintf_r+0x108>
   11bdc:	e59d0020 	ldr	r0, [sp, #32]
   11be0:	e59d1018 	ldr	r1, [sp, #24]
   11be4:	e28d204c 	add	r2, sp, #76	; 0x4c
   11be8:	ebfffbe3 	bl	10b7c <__ssprint_r>
   11bec:	e3500000 	cmp	r0, #0
   11bf0:	1affff24 	bne	11888 <_svfiprintf_r+0xb68>
   11bf4:	e59d1054 	ldr	r1, [sp, #84]	; 0x54
   11bf8:	eaffff01 	b	11804 <_svfiprintf_r+0xae4>
   11bfc:	e3520030 	cmp	r2, #48	; 0x30
   11c00:	059dc00c 	ldreq	r12, [sp, #12]
   11c04:	059d302c 	ldreq	r3, [sp, #44]	; 0x2c
   11c08:	13a02030 	movne	r2, #48	; 0x30
   11c0c:	159dc00c 	ldrne	r12, [sp, #12]
   11c10:	15432001 	strbne	r2, [r3, #-1]
   11c14:	11a03000 	movne	r3, r0
   11c18:	158d002c 	strne	r0, [sp, #44]	; 0x2c
   11c1c:	e063700c 	rsb	r7, r3, r12
   11c20:	eafffd0b 	b	11054 <_svfiprintf_r+0x334>
   11c24:	e2866030 	add	r6, r6, #48	; 0x30
   11c28:	e28dc07f 	add	r12, sp, #127	; 0x7f
   11c2c:	e5cd607f 	strb	r6, [sp, #127]	; 0x7f
   11c30:	e59d703c 	ldr	r7, [sp, #60]	; 0x3c
   11c34:	e58dc02c 	str	r12, [sp, #44]	; 0x2c
   11c38:	eafffd05 	b	11054 <_svfiprintf_r+0x334>
   11c3c:	e59c2000 	ldr	r2, [r12]
   11c40:	e28cc004 	add	r12, r12, #4
   11c44:	e1a06002 	mov	r6, r2
   11c48:	e3a07000 	mov	r7, #0
   11c4c:	e58dc024 	str	r12, [sp, #36]	; 0x24
   11c50:	eafffdcd 	b	1138c <_svfiprintf_r+0x66c>
   11c54:	e59c2000 	ldr	r2, [r12]
   11c58:	e3a07000 	mov	r7, #0
   11c5c:	e1a06002 	mov	r6, r2
   11c60:	e28cc004 	add	r12, r12, #4
   11c64:	e0522007 	subs	r2, r2, r7
   11c68:	13a02001 	movne	r2, #1
   11c6c:	e58dc024 	str	r12, [sp, #36]	; 0x24
   11c70:	eafffcd7 	b	10fd4 <_svfiprintf_r+0x2b4>
   11c74:	e3150040 	tst	r5, #64	; 0x40
   11c78:	0afffe0c 	beq	114b0 <_svfiprintf_r+0x790>
   11c7c:	e1dc30f0 	ldrsh	r3, [r12]
   11c80:	eafffe0b 	b	114b4 <_svfiprintf_r+0x794>
   11c84:	e3150040 	tst	r5, #64	; 0x40
   11c88:	0affffb1 	beq	11b54 <_svfiprintf_r+0xe34>
   11c8c:	e1dc20b0 	ldrh	r2, [r12]
   11c90:	eaffffb0 	b	11b58 <_svfiprintf_r+0xe38>
   11c94:	e59dc024 	ldr	r12, [sp, #36]	; 0x24
   11c98:	e59d2010 	ldr	r2, [sp, #16]
   11c9c:	e59c3000 	ldr	r3, [r12]
   11ca0:	e1a01fc2 	asr	r1, r2, #31
   11ca4:	e28cc004 	add	r12, r12, #4
   11ca8:	e5832000 	str	r2, [r3]
   11cac:	e5831004 	str	r1, [r3, #4]
   11cb0:	e58dc024 	str	r12, [sp, #36]	; 0x24
   11cb4:	eafffc35 	b	10d90 <_svfiprintf_r+0x70>
   11cb8:	ebffbd66 	bl	1258 <strlen>
   11cbc:	e5dda047 	ldrb	r10, [sp, #71]	; 0x47
   11cc0:	e1a07000 	mov	r7, r0
   11cc4:	e58db024 	str	r11, [sp, #36]	; 0x24
   11cc8:	eafffd1d 	b	11144 <_svfiprintf_r+0x424>
   11ccc:	e59dc024 	ldr	r12, [sp, #36]	; 0x24
   11cd0:	e59c3000 	ldr	r3, [r12]
   11cd4:	e28cc004 	add	r12, r12, #4
   11cd8:	e58dc024 	str	r12, [sp, #36]	; 0x24
   11cdc:	e59dc010 	ldr	r12, [sp, #16]
   11ce0:	e583c000 	str	r12, [r3]
   11ce4:	eafffc29 	b	10d90 <_svfiprintf_r+0x70>
   11ce8:	e3a01040 	mov	r1, #64	; 0x40
   11cec:	e58d2004 	str	r2, [sp, #4]
   11cf0:	ebffd756 	bl	7a50 <_malloc_r>
   11cf4:	e59dc018 	ldr	r12, [sp, #24]
   11cf8:	e3500000 	cmp	r0, #0
   11cfc:	e58c0000 	str	r0, [r12]
   11d00:	e58c0010 	str	r0, [r12, #16]
   11d04:	e59d2004 	ldr	r2, [sp, #4]
   11d08:	0a000019 	beq	11d74 <_svfiprintf_r+0x1054>
   11d0c:	e59dc018 	ldr	r12, [sp, #24]
   11d10:	e3a03040 	mov	r3, #64	; 0x40
   11d14:	e58c3014 	str	r3, [r12, #20]
   11d18:	eafffc0c 	b	10d50 <_svfiprintf_r+0x30>
   11d1c:	e59f3078 	ldr	r3, [pc, #120]	; 11d9c <_svfiprintf_r+0x107c>
   11d20:	e3590006 	cmp	r9, #6
   11d24:	31a07009 	movcc	r7, r9
   11d28:	23a07006 	movcs	r7, #6
   11d2c:	e1c76fc7 	bic	r6, r7, r7, asr #31
   11d30:	e58db024 	str	r11, [sp, #36]	; 0x24
   11d34:	e58d302c 	str	r3, [sp, #44]	; 0x2c
   11d38:	eafffd37 	b	1121c <_svfiprintf_r+0x4fc>
   11d3c:	e5dda047 	ldrb	r10, [sp, #71]	; 0x47
   11d40:	e58db024 	str	r11, [sp, #36]	; 0x24
   11d44:	e1a07009 	mov	r7, r9
   11d48:	e58d0014 	str	r0, [sp, #20]
   11d4c:	eafffcc1 	b	11058 <_svfiprintf_r+0x338>
   11d50:	e59dc024 	ldr	r12, [sp, #36]	; 0x24
   11d54:	e59c9000 	ldr	r9, [r12]
   11d58:	e28c2004 	add	r2, r12, #4
   11d5c:	e3590000 	cmp	r9, #0
   11d60:	e5d83001 	ldrb	r3, [r8, #1]
   11d64:	e58d2024 	str	r2, [sp, #36]	; 0x24
   11d68:	e1a08000 	mov	r8, r0
   11d6c:	b3e09000 	mvnlt	r9, #0
   11d70:	eafffc2c 	b	10e28 <_svfiprintf_r+0x108>
   11d74:	e59dc020 	ldr	r12, [sp, #32]
   11d78:	e3a0300c 	mov	r3, #12
   11d7c:	e58c3000 	str	r3, [r12]
   11d80:	e3e0c000 	mvn	r12, #0
   11d84:	e58dc010 	str	r12, [sp, #16]
   11d88:	eafffec4 	b	118a0 <_svfiprintf_r+0xb80>
   11d8c:	00013850 	.word	0x00013850
   11d90:	00013b7c 	.word	0x00013b7c
   11d94:	0001383c 	.word	0x0001383c
   11d98:	00013b8c 	.word	0x00013b8c
   11d9c:	00013864 	.word	0x00013864

00011da0 <__swbuf_r>:
   11da0:	e92d4070 	push	{r4, r5, r6, lr}
   11da4:	e2506000 	subs	r6, r0, #0
   11da8:	e1a05001 	mov	r5, r1
   11dac:	e1a04002 	mov	r4, r2
   11db0:	0a000002 	beq	11dc0 <__swbuf_r+0x20>
   11db4:	e5963038 	ldr	r3, [r6, #56]	; 0x38
   11db8:	e3530000 	cmp	r3, #0
   11dbc:	0a00003b 	beq	11eb0 <__swbuf_r+0x110>
   11dc0:	e1d430bc 	ldrh	r3, [r4, #12]
   11dc4:	e5942018 	ldr	r2, [r4, #24]
   11dc8:	e3130008 	tst	r3, #8
   11dcc:	e5842008 	str	r2, [r4, #8]
   11dd0:	0a000026 	beq	11e70 <__swbuf_r+0xd0>
   11dd4:	e5942010 	ldr	r2, [r4, #16]
   11dd8:	e3520000 	cmp	r2, #0
   11ddc:	0a000023 	beq	11e70 <__swbuf_r+0xd0>
   11de0:	e3130a02 	tst	r3, #8192	; 0x2000
   11de4:	05941064 	ldreq	r1, [r4, #100]	; 0x64
   11de8:	03833a02 	orreq	r3, r3, #8192	; 0x2000
   11dec:	03c11a02 	biceq	r1, r1, #8192	; 0x2000
   11df0:	01c430bc 	strheq	r3, [r4, #12]
   11df4:	e5943000 	ldr	r3, [r4]
   11df8:	05841064 	streq	r1, [r4, #100]	; 0x64
   11dfc:	e5941014 	ldr	r1, [r4, #20]
   11e00:	e0622003 	rsb	r2, r2, r3
   11e04:	e1520001 	cmp	r2, r1
   11e08:	e20550ff 	and	r5, r5, #255	; 0xff
   11e0c:	b2822001 	addlt	r2, r2, #1
   11e10:	aa00001e 	bge	11e90 <__swbuf_r+0xf0>
   11e14:	e5941008 	ldr	r1, [r4, #8]
   11e18:	e2411001 	sub	r1, r1, #1
   11e1c:	e5841008 	str	r1, [r4, #8]
   11e20:	e4c35001 	strb	r5, [r3], #1
   11e24:	e5941014 	ldr	r1, [r4, #20]
   11e28:	e1510002 	cmp	r1, r2
   11e2c:	e5843000 	str	r3, [r4]
   11e30:	0a000007 	beq	11e54 <__swbuf_r+0xb4>
   11e34:	e1d430bc 	ldrh	r3, [r4, #12]
   11e38:	e3130001 	tst	r3, #1
   11e3c:	0a000001 	beq	11e48 <__swbuf_r+0xa8>
   11e40:	e355000a 	cmp	r5, #10
   11e44:	0a000002 	beq	11e54 <__swbuf_r+0xb4>
   11e48:	e1a00005 	mov	r0, r5
   11e4c:	e8bd4070 	pop	{r4, r5, r6, lr}
   11e50:	e12fff1e 	bx	lr
   11e54:	e1a00006 	mov	r0, r6
   11e58:	e1a01004 	mov	r1, r4
   11e5c:	ebffd22b 	bl	6710 <_fflush_r>
   11e60:	e3500000 	cmp	r0, #0
   11e64:	0afffff7 	beq	11e48 <__swbuf_r+0xa8>
   11e68:	e3e05000 	mvn	r5, #0
   11e6c:	eafffff5 	b	11e48 <__swbuf_r+0xa8>
   11e70:	e1a00006 	mov	r0, r6
   11e74:	e1a01004 	mov	r1, r4
   11e78:	ebffcb06 	bl	4a98 <__swsetup_r>
   11e7c:	e3500000 	cmp	r0, #0
   11e80:	e1d430bc 	ldrh	r3, [r4, #12]
   11e84:	1a00000b 	bne	11eb8 <__swbuf_r+0x118>
   11e88:	e5942010 	ldr	r2, [r4, #16]
   11e8c:	eaffffd3 	b	11de0 <__swbuf_r+0x40>
   11e90:	e1a00006 	mov	r0, r6
   11e94:	e1a01004 	mov	r1, r4
   11e98:	ebffd21c 	bl	6710 <_fflush_r>
   11e9c:	e3500000 	cmp	r0, #0
   11ea0:	05943000 	ldreq	r3, [r4]
   11ea4:	03a02001 	moveq	r2, #1
   11ea8:	0affffd9 	beq	11e14 <__swbuf_r+0x74>
   11eac:	eaffffed 	b	11e68 <__swbuf_r+0xc8>
   11eb0:	ebffd2f0 	bl	6a78 <__sinit>
   11eb4:	eaffffc1 	b	11dc0 <__swbuf_r+0x20>
   11eb8:	e3833040 	orr	r3, r3, #64	; 0x40
   11ebc:	e1c430bc 	strh	r3, [r4, #12]
   11ec0:	e3a03009 	mov	r3, #9
   11ec4:	e3e05000 	mvn	r5, #0
   11ec8:	e5863000 	str	r3, [r6]
   11ecc:	eaffffdd 	b	11e48 <__swbuf_r+0xa8>

00011ed0 <__swbuf>:
   11ed0:	e1a02001 	mov	r2, r1
   11ed4:	e59f100c 	ldr	r1, [pc, #12]	; 11ee8 <__swbuf+0x18>
   11ed8:	e1a03000 	mov	r3, r0
   11edc:	e5910000 	ldr	r0, [r1]
   11ee0:	e1a01003 	mov	r1, r3
   11ee4:	eaffffad 	b	11da0 <__swbuf_r>
   11ee8:	00013c00 	.word	0x00013c00

00011eec <_wcrtomb_r>:
   11eec:	e92d41f0 	push	{r4, r5, r6, r7, r8, lr}
   11ef0:	e2516000 	subs	r6, r1, #0
   11ef4:	e1a05003 	mov	r5, r3
   11ef8:	e24dd018 	sub	sp, sp, #24
   11efc:	e1a04000 	mov	r4, r0
   11f00:	e1a07002 	mov	r7, r2
   11f04:	e59f306c 	ldr	r3, [pc, #108]	; 11f78 <_wcrtomb_r+0x8c>
   11f08:	0a000010 	beq	11f50 <_wcrtomb_r+0x64>
   11f0c:	e5938000 	ldr	r8, [r3]
   11f10:	ebffd65e 	bl	7890 <__locale_charset>
   11f14:	e58d5000 	str	r5, [sp]
   11f18:	e1a03000 	mov	r3, r0
   11f1c:	e1a01006 	mov	r1, r6
   11f20:	e1a00004 	mov	r0, r4
   11f24:	e1a02007 	mov	r2, r7
   11f28:	e1a0e00f 	mov	lr, pc
   11f2c:	e12fff18 	bx	r8
   11f30:	e3700001 	cmn	r0, #1
   11f34:	03a03000 	moveq	r3, #0
   11f38:	05853000 	streq	r3, [r5]
   11f3c:	03a0308a 	moveq	r3, #138	; 0x8a
   11f40:	05843000 	streq	r3, [r4]
   11f44:	e28dd018 	add	sp, sp, #24
   11f48:	e8bd41f0 	pop	{r4, r5, r6, r7, r8, lr}
   11f4c:	e12fff1e 	bx	lr
   11f50:	e5937000 	ldr	r7, [r3]
   11f54:	ebffd64d 	bl	7890 <__locale_charset>
   11f58:	e58d5000 	str	r5, [sp]
   11f5c:	e1a03000 	mov	r3, r0
   11f60:	e28d100c 	add	r1, sp, #12
   11f64:	e1a00004 	mov	r0, r4
   11f68:	e1a02006 	mov	r2, r6
   11f6c:	e1a0e00f 	mov	lr, pc
   11f70:	e12fff17 	bx	r7
   11f74:	eaffffed 	b	11f30 <_wcrtomb_r+0x44>
   11f78:	000144ec 	.word	0x000144ec

00011f7c <wcrtomb>:
   11f7c:	e92d45f0 	push	{r4, r5, r6, r7, r8, r10, lr}
   11f80:	e2506000 	subs	r6, r0, #0
   11f84:	e24dd01c 	sub	sp, sp, #28
   11f88:	e59f5088 	ldr	r5, [pc, #136]	; 12018 <wcrtomb+0x9c>
   11f8c:	e1a07001 	mov	r7, r1
   11f90:	e1a04002 	mov	r4, r2
   11f94:	0a000013 	beq	11fe8 <wcrtomb+0x6c>
   11f98:	e59f307c 	ldr	r3, [pc, #124]	; 1201c <wcrtomb+0xa0>
   11f9c:	e595a000 	ldr	r10, [r5]
   11fa0:	e5938000 	ldr	r8, [r3]
   11fa4:	ebffd639 	bl	7890 <__locale_charset>
   11fa8:	e58d4000 	str	r4, [sp]
   11fac:	e1a03000 	mov	r3, r0
   11fb0:	e1a01006 	mov	r1, r6
   11fb4:	e1a0000a 	mov	r0, r10
   11fb8:	e1a02007 	mov	r2, r7
   11fbc:	e1a0e00f 	mov	lr, pc
   11fc0:	e12fff18 	bx	r8
   11fc4:	e3700001 	cmn	r0, #1
   11fc8:	03a02000 	moveq	r2, #0
   11fcc:	05953000 	ldreq	r3, [r5]
   11fd0:	05842000 	streq	r2, [r4]
   11fd4:	03a0208a 	moveq	r2, #138	; 0x8a
   11fd8:	05832000 	streq	r2, [r3]
   11fdc:	e28dd01c 	add	sp, sp, #28
   11fe0:	e8bd45f0 	pop	{r4, r5, r6, r7, r8, r10, lr}
   11fe4:	e12fff1e 	bx	lr
   11fe8:	e59f302c 	ldr	r3, [pc, #44]	; 1201c <wcrtomb+0xa0>
   11fec:	e5958000 	ldr	r8, [r5]
   11ff0:	e5937000 	ldr	r7, [r3]
   11ff4:	ebffd625 	bl	7890 <__locale_charset>
   11ff8:	e58d4000 	str	r4, [sp]
   11ffc:	e1a03000 	mov	r3, r0
   12000:	e28d100c 	add	r1, sp, #12
   12004:	e1a00008 	mov	r0, r8
   12008:	e1a02006 	mov	r2, r6
   1200c:	e1a0e00f 	mov	lr, pc
   12010:	e12fff17 	bx	r7
   12014:	eaffffea 	b	11fc4 <wcrtomb+0x48>
   12018:	00013c00 	.word	0x00013c00
   1201c:	000144ec 	.word	0x000144ec

00012020 <__ascii_wctomb>:
   12020:	e3510000 	cmp	r1, #0
   12024:	0a000006 	beq	12044 <__ascii_wctomb+0x24>
   12028:	e35200ff 	cmp	r2, #255	; 0xff
   1202c:	83a0308a 	movhi	r3, #138	; 0x8a
   12030:	85803000 	strhi	r3, [r0]
   12034:	95c12000 	strbls	r2, [r1]
   12038:	83e00000 	mvnhi	r0, #0
   1203c:	93a00001 	movls	r0, #1
   12040:	e12fff1e 	bx	lr
   12044:	e1a00001 	mov	r0, r1
   12048:	e12fff1e 	bx	lr

0001204c <_wctomb_r>:
   1204c:	e92d41f0 	push	{r4, r5, r6, r7, r8, lr}
   12050:	e1a06003 	mov	r6, r3
   12054:	e59f303c 	ldr	r3, [pc, #60]	; 12098 <_wctomb_r+0x4c>
   12058:	e24dd008 	sub	sp, sp, #8
   1205c:	e1a05000 	mov	r5, r0
   12060:	e1a08001 	mov	r8, r1
   12064:	e1a07002 	mov	r7, r2
   12068:	e5934000 	ldr	r4, [r3]
   1206c:	ebffd607 	bl	7890 <__locale_charset>
   12070:	e58d6000 	str	r6, [sp]
   12074:	e1a03000 	mov	r3, r0
   12078:	e1a01008 	mov	r1, r8
   1207c:	e1a00005 	mov	r0, r5
   12080:	e1a02007 	mov	r2, r7
   12084:	e1a0e00f 	mov	lr, pc
   12088:	e12fff14 	bx	r4
   1208c:	e28dd008 	add	sp, sp, #8
   12090:	e8bd41f0 	pop	{r4, r5, r6, r7, r8, lr}
   12094:	e12fff1e 	bx	lr
   12098:	000144ec 	.word	0x000144ec

0001209c <__aeabi_uidiv>:
   1209c:	e2512001 	subs	r2, r1, #1
   120a0:	012fff1e 	bxeq	lr
   120a4:	3a000036 	bcc	12184 <__aeabi_uidiv+0xe8>
   120a8:	e1500001 	cmp	r0, r1
   120ac:	9a000022 	bls	1213c <__aeabi_uidiv+0xa0>
   120b0:	e1110002 	tst	r1, r2
   120b4:	0a000023 	beq	12148 <__aeabi_uidiv+0xac>
   120b8:	e311020e 	tst	r1, #-536870912	; 0xe0000000
   120bc:	01a01181 	lsleq	r1, r1, #3
   120c0:	03a03008 	moveq	r3, #8
   120c4:	13a03001 	movne	r3, #1
   120c8:	e3510201 	cmp	r1, #268435456	; 0x10000000
   120cc:	31510000 	cmpcc	r1, r0
   120d0:	31a01201 	lslcc	r1, r1, #4
   120d4:	31a03203 	lslcc	r3, r3, #4
   120d8:	3afffffa 	bcc	120c8 <__aeabi_uidiv+0x2c>
   120dc:	e3510102 	cmp	r1, #-2147483648	; 0x80000000
   120e0:	31510000 	cmpcc	r1, r0
   120e4:	31a01081 	lslcc	r1, r1, #1
   120e8:	31a03083 	lslcc	r3, r3, #1
   120ec:	3afffffa 	bcc	120dc <__aeabi_uidiv+0x40>
   120f0:	e3a02000 	mov	r2, #0
   120f4:	e1500001 	cmp	r0, r1
   120f8:	20400001 	subcs	r0, r0, r1
   120fc:	21822003 	orrcs	r2, r2, r3
   12100:	e15000a1 	cmp	r0, r1, lsr #1
   12104:	204000a1 	subcs	r0, r0, r1, lsr #1
   12108:	218220a3 	orrcs	r2, r2, r3, lsr #1
   1210c:	e1500121 	cmp	r0, r1, lsr #2
   12110:	20400121 	subcs	r0, r0, r1, lsr #2
   12114:	21822123 	orrcs	r2, r2, r3, lsr #2
   12118:	e15001a1 	cmp	r0, r1, lsr #3
   1211c:	204001a1 	subcs	r0, r0, r1, lsr #3
   12120:	218221a3 	orrcs	r2, r2, r3, lsr #3
   12124:	e3500000 	cmp	r0, #0
   12128:	11b03223 	lsrsne	r3, r3, #4
   1212c:	11a01221 	lsrne	r1, r1, #4
   12130:	1affffef 	bne	120f4 <__aeabi_uidiv+0x58>
   12134:	e1a00002 	mov	r0, r2
   12138:	e12fff1e 	bx	lr
   1213c:	03a00001 	moveq	r0, #1
   12140:	13a00000 	movne	r0, #0
   12144:	e12fff1e 	bx	lr
   12148:	e3510801 	cmp	r1, #65536	; 0x10000
   1214c:	21a01821 	lsrcs	r1, r1, #16
   12150:	23a02010 	movcs	r2, #16
   12154:	33a02000 	movcc	r2, #0
   12158:	e3510c01 	cmp	r1, #256	; 0x100
   1215c:	21a01421 	lsrcs	r1, r1, #8
   12160:	22822008 	addcs	r2, r2, #8
   12164:	e3510010 	cmp	r1, #16
   12168:	21a01221 	lsrcs	r1, r1, #4
   1216c:	22822004 	addcs	r2, r2, #4
   12170:	e3510004 	cmp	r1, #4
   12174:	82822003 	addhi	r2, r2, #3
   12178:	908220a1 	addls	r2, r2, r1, lsr #1
   1217c:	e1a00230 	lsr	r0, r0, r2
   12180:	e12fff1e 	bx	lr
   12184:	e3500000 	cmp	r0, #0
   12188:	13e00000 	mvnne	r0, #0
   1218c:	ea000007 	b	121b0 <__aeabi_idiv0>

00012190 <__aeabi_uidivmod>:
   12190:	e3510000 	cmp	r1, #0
   12194:	0afffffa 	beq	12184 <__aeabi_uidiv+0xe8>
   12198:	e92d4003 	push	{r0, r1, lr}
   1219c:	ebffffbe 	bl	1209c <__aeabi_uidiv>
   121a0:	e8bd4006 	pop	{r1, r2, lr}
   121a4:	e0030092 	mul	r3, r2, r0
   121a8:	e0411003 	sub	r1, r1, r3
   121ac:	e12fff1e 	bx	lr

000121b0 <__aeabi_idiv0>:
   121b0:	e12fff1e 	bx	lr

000121b4 <__gedf2>:
   121b4:	e3e0c000 	mvn	r12, #0
   121b8:	ea000002 	b	121c8 <__cmpdf2+0x4>

000121bc <__ledf2>:
   121bc:	e3a0c001 	mov	r12, #1
   121c0:	ea000000 	b	121c8 <__cmpdf2+0x4>

000121c4 <__cmpdf2>:
   121c4:	e3a0c001 	mov	r12, #1
   121c8:	e52dc004 	push	{r12}		; (str r12, [sp, #-4]!)
   121cc:	e1a0c081 	lsl	r12, r1, #1
   121d0:	e1f0cacc 	mvns	r12, r12, asr #21
   121d4:	e1a0c083 	lsl	r12, r3, #1
   121d8:	11f0cacc 	mvnsne	r12, r12, asr #21
   121dc:	0a00000e 	beq	1221c <__cmpdf2+0x58>
   121e0:	e28dd004 	add	sp, sp, #4
   121e4:	e190c081 	orrs	r12, r0, r1, lsl #1
   121e8:	0192c083 	orrseq	r12, r2, r3, lsl #1
   121ec:	11310003 	teqne	r1, r3
   121f0:	01300002 	teqeq	r0, r2
   121f4:	03a00000 	moveq	r0, #0
   121f8:	012fff1e 	bxeq	lr
   121fc:	e3700000 	cmn	r0, #0
   12200:	e1310003 	teq	r1, r3
   12204:	51510003 	cmppl	r1, r3
   12208:	01500002 	cmpeq	r0, r2
   1220c:	21a00fc3 	asrcs	r0, r3, #31
   12210:	31e00fc3 	mvncc	r0, r3, asr #31
   12214:	e3800001 	orr	r0, r0, #1
   12218:	e12fff1e 	bx	lr
   1221c:	e1a0c081 	lsl	r12, r1, #1
   12220:	e1f0cacc 	mvns	r12, r12, asr #21
   12224:	1a000001 	bne	12230 <__cmpdf2+0x6c>
   12228:	e190c601 	orrs	r12, r0, r1, lsl #12
   1222c:	1a000004 	bne	12244 <__cmpdf2+0x80>
   12230:	e1a0c083 	lsl	r12, r3, #1
   12234:	e1f0cacc 	mvns	r12, r12, asr #21
   12238:	1affffe8 	bne	121e0 <__cmpdf2+0x1c>
   1223c:	e192c603 	orrs	r12, r2, r3, lsl #12
   12240:	0affffe6 	beq	121e0 <__cmpdf2+0x1c>
   12244:	e49d0004 	pop	{r0}		; (ldr r0, [sp], #4)
   12248:	e12fff1e 	bx	lr

0001224c <__aeabi_cdrcmple>:
   1224c:	e1a0c000 	mov	r12, r0
   12250:	e1a00002 	mov	r0, r2
   12254:	e1a0200c 	mov	r2, r12
   12258:	e1a0c001 	mov	r12, r1
   1225c:	e1a01003 	mov	r1, r3
   12260:	e1a0300c 	mov	r3, r12
   12264:	eaffffff 	b	12268 <__aeabi_cdcmpeq>

00012268 <__aeabi_cdcmpeq>:
   12268:	e92d4001 	push	{r0, lr}
   1226c:	ebffffd4 	bl	121c4 <__cmpdf2>
   12270:	e3500000 	cmp	r0, #0
   12274:	43700000 	cmnmi	r0, #0
   12278:	e8bd4001 	pop	{r0, lr}
   1227c:	e12fff1e 	bx	lr

00012280 <__aeabi_dcmpeq>:
   12280:	e52de008 	str	lr, [sp, #-8]!
   12284:	ebfffff7 	bl	12268 <__aeabi_cdcmpeq>
   12288:	03a00001 	moveq	r0, #1
   1228c:	13a00000 	movne	r0, #0
   12290:	e49de008 	ldr	lr, [sp], #8
   12294:	e12fff1e 	bx	lr

00012298 <__aeabi_dcmplt>:
   12298:	e52de008 	str	lr, [sp, #-8]!
   1229c:	ebfffff1 	bl	12268 <__aeabi_cdcmpeq>
   122a0:	33a00001 	movcc	r0, #1
   122a4:	23a00000 	movcs	r0, #0
   122a8:	e49de008 	ldr	lr, [sp], #8
   122ac:	e12fff1e 	bx	lr

000122b0 <__aeabi_dcmple>:
   122b0:	e52de008 	str	lr, [sp, #-8]!
   122b4:	ebffffeb 	bl	12268 <__aeabi_cdcmpeq>
   122b8:	93a00001 	movls	r0, #1
   122bc:	83a00000 	movhi	r0, #0
   122c0:	e49de008 	ldr	lr, [sp], #8
   122c4:	e12fff1e 	bx	lr

000122c8 <__aeabi_dcmpge>:
   122c8:	e52de008 	str	lr, [sp, #-8]!
   122cc:	ebffffde 	bl	1224c <__aeabi_cdrcmple>
   122d0:	93a00001 	movls	r0, #1
   122d4:	83a00000 	movhi	r0, #0
   122d8:	e49de008 	ldr	lr, [sp], #8
   122dc:	e12fff1e 	bx	lr

000122e0 <__aeabi_dcmpgt>:
   122e0:	e52de008 	str	lr, [sp, #-8]!
   122e4:	ebffffd8 	bl	1224c <__aeabi_cdrcmple>
   122e8:	33a00001 	movcc	r0, #1
   122ec:	23a00000 	movcs	r0, #0
   122f0:	e49de008 	ldr	lr, [sp], #8
   122f4:	e12fff1e 	bx	lr

000122f8 <__aeabi_d2iz>:
   122f8:	e1a02081 	lsl	r2, r1, #1
   122fc:	e2922602 	adds	r2, r2, #2097152	; 0x200000
   12300:	2a00000c 	bcs	12338 <__aeabi_d2iz+0x40>
   12304:	5a000009 	bpl	12330 <__aeabi_d2iz+0x38>
   12308:	e3e03e3e 	mvn	r3, #992	; 0x3e0
   1230c:	e0532ac2 	subs	r2, r3, r2, asr #21
   12310:	9a00000a 	bls	12340 <__aeabi_d2iz+0x48>
   12314:	e1a03581 	lsl	r3, r1, #11
   12318:	e3833102 	orr	r3, r3, #-2147483648	; 0x80000000
   1231c:	e1833aa0 	orr	r3, r3, r0, lsr #21
   12320:	e3110102 	tst	r1, #-2147483648	; 0x80000000
   12324:	e1a00233 	lsr	r0, r3, r2
   12328:	12600000 	rsbne	r0, r0, #0
   1232c:	e12fff1e 	bx	lr
   12330:	e3a00000 	mov	r0, #0
   12334:	e12fff1e 	bx	lr
   12338:	e1900601 	orrs	r0, r0, r1, lsl #12
   1233c:	1a000002 	bne	1234c <__aeabi_d2iz+0x54>
   12340:	e2110102 	ands	r0, r1, #-2147483648	; 0x80000000
   12344:	03e00102 	mvneq	r0, #-2147483648	; 0x80000000
   12348:	e12fff1e 	bx	lr
   1234c:	e3a00000 	mov	r0, #0
   12350:	e12fff1e 	bx	lr

00012354 <__aeabi_d2uiz>:
   12354:	e1b02081 	lsls	r2, r1, #1
   12358:	2a00000a 	bcs	12388 <__aeabi_d2uiz+0x34>
   1235c:	e2922602 	adds	r2, r2, #2097152	; 0x200000
   12360:	2a00000a 	bcs	12390 <__aeabi_d2uiz+0x3c>
   12364:	5a000007 	bpl	12388 <__aeabi_d2uiz+0x34>
   12368:	e3e03e3e 	mvn	r3, #992	; 0x3e0
   1236c:	e0532ac2 	subs	r2, r3, r2, asr #21
   12370:	4a000008 	bmi	12398 <__aeabi_d2uiz+0x44>
   12374:	e1a03581 	lsl	r3, r1, #11
   12378:	e3833102 	orr	r3, r3, #-2147483648	; 0x80000000
   1237c:	e1833aa0 	orr	r3, r3, r0, lsr #21
   12380:	e1a00233 	lsr	r0, r3, r2
   12384:	e12fff1e 	bx	lr
   12388:	e3a00000 	mov	r0, #0
   1238c:	e12fff1e 	bx	lr
   12390:	e1900601 	orrs	r0, r0, r1, lsl #12
   12394:	1a000001 	bne	123a0 <__aeabi_d2uiz+0x4c>
   12398:	e3e00000 	mvn	r0, #0
   1239c:	e12fff1e 	bx	lr
   123a0:	e3a00000 	mov	r0, #0
   123a4:	e12fff1e 	bx	lr

000123a8 <__aeabi_d2f>:
   123a8:	e1a02081 	lsl	r2, r1, #1
   123ac:	e2523207 	subs	r3, r2, #1879048192	; 0x70000000
   123b0:	2253c602 	subscs	r12, r3, #2097152	; 0x200000
   123b4:	227cc57f 	rsbscs	r12, r12, #532676608	; 0x1fc00000
   123b8:	9a000006 	bls	123d8 <__aeabi_d2f+0x30>
   123bc:	e201c102 	and	r12, r1, #-2147483648	; 0x80000000
   123c0:	e1a02180 	lsl	r2, r0, #3
   123c4:	e18c0ea0 	orr	r0, r12, r0, lsr #29
   123c8:	e3520102 	cmp	r2, #-2147483648	; 0x80000000
   123cc:	e0a00103 	adc	r0, r0, r3, lsl #2
   123d0:	03c00001 	biceq	r0, r0, #1
   123d4:	e12fff1e 	bx	lr
   123d8:	e3110101 	tst	r1, #1073741824	; 0x40000000
   123dc:	1a00000f 	bne	12420 <__aeabi_d2f+0x78>
   123e0:	e293262e 	adds	r2, r3, #48234496	; 0x2e00000
   123e4:	b2010102 	andlt	r0, r1, #-2147483648	; 0x80000000
   123e8:	b12fff1e 	bxlt	lr
   123ec:	e3811601 	orr	r1, r1, #1048576	; 0x100000
   123f0:	e1a02aa2 	lsr	r2, r2, #21
   123f4:	e2622018 	rsb	r2, r2, #24
   123f8:	e262c020 	rsb	r12, r2, #32
   123fc:	e1b03c10 	lsls	r3, r0, r12
   12400:	e1a00230 	lsr	r0, r0, r2
   12404:	13800001 	orrne	r0, r0, #1
   12408:	e1a03581 	lsl	r3, r1, #11
   1240c:	e1a035a3 	lsr	r3, r3, #11
   12410:	e1800c13 	orr	r0, r0, r3, lsl r12
   12414:	e1a03233 	lsr	r3, r3, r2
   12418:	e1a03083 	lsl	r3, r3, #1
   1241c:	eaffffe6 	b	123bc <__aeabi_d2f+0x14>
   12420:	e1f03ac2 	mvns	r3, r2, asr #21
   12424:	1a000003 	bne	12438 <__aeabi_d2f+0x90>
   12428:	e1903601 	orrs	r3, r0, r1, lsl #12
   1242c:	13a0047f 	movne	r0, #2130706432	; 0x7f000000
   12430:	13800503 	orrne	r0, r0, #12582912	; 0xc00000
   12434:	112fff1e 	bxne	lr
   12438:	e2010102 	and	r0, r1, #-2147483648	; 0x80000000
   1243c:	e380047f 	orr	r0, r0, #2130706432	; 0x7f000000
   12440:	e3800502 	orr	r0, r0, #8388608	; 0x800000
   12444:	e12fff1e 	bx	lr

00012448 <__gesf2>:
   12448:	e3e0c000 	mvn	r12, #0
   1244c:	ea000002 	b	1245c <__cmpsf2+0x4>

00012450 <__lesf2>:
   12450:	e3a0c001 	mov	r12, #1
   12454:	ea000000 	b	1245c <__cmpsf2+0x4>

00012458 <__cmpsf2>:
   12458:	e3a0c001 	mov	r12, #1
   1245c:	e52dc004 	push	{r12}		; (str r12, [sp, #-4]!)
   12460:	e1a02080 	lsl	r2, r0, #1
   12464:	e1a03081 	lsl	r3, r1, #1
   12468:	e1f0cc42 	mvns	r12, r2, asr #24
   1246c:	11f0cc43 	mvnsne	r12, r3, asr #24
   12470:	0a000007 	beq	12494 <__cmpsf2+0x3c>
   12474:	e28dd004 	add	sp, sp, #4
   12478:	e192c0a3 	orrs	r12, r2, r3, lsr #1
   1247c:	11300001 	teqne	r0, r1
   12480:	50520003 	subspl	r0, r2, r3
   12484:	81a00fc1 	asrhi	r0, r1, #31
   12488:	31e00fc1 	mvncc	r0, r1, asr #31
   1248c:	13800001 	orrne	r0, r0, #1
   12490:	e12fff1e 	bx	lr
   12494:	e1f0cc42 	mvns	r12, r2, asr #24
   12498:	1a000001 	bne	124a4 <__cmpsf2+0x4c>
   1249c:	e1b0c480 	lsls	r12, r0, #9
   124a0:	1a000003 	bne	124b4 <__cmpsf2+0x5c>
   124a4:	e1f0cc43 	mvns	r12, r3, asr #24
   124a8:	1afffff1 	bne	12474 <__cmpsf2+0x1c>
   124ac:	e1b0c481 	lsls	r12, r1, #9
   124b0:	0affffef 	beq	12474 <__cmpsf2+0x1c>
   124b4:	e49d0004 	pop	{r0}		; (ldr r0, [sp], #4)
   124b8:	e12fff1e 	bx	lr

000124bc <__aeabi_cfrcmple>:
   124bc:	e1a0c000 	mov	r12, r0
   124c0:	e1a00001 	mov	r0, r1
   124c4:	e1a0100c 	mov	r1, r12
   124c8:	eaffffff 	b	124cc <__aeabi_cfcmpeq>

000124cc <__aeabi_cfcmpeq>:
   124cc:	e92d400f 	push	{r0, r1, r2, r3, lr}
   124d0:	ebffffe0 	bl	12458 <__cmpsf2>
   124d4:	e3500000 	cmp	r0, #0
   124d8:	43700000 	cmnmi	r0, #0
   124dc:	e8bd400f 	pop	{r0, r1, r2, r3, lr}
   124e0:	e12fff1e 	bx	lr

000124e4 <__aeabi_fcmpeq>:
   124e4:	e52de008 	str	lr, [sp, #-8]!
   124e8:	ebfffff7 	bl	124cc <__aeabi_cfcmpeq>
   124ec:	03a00001 	moveq	r0, #1
   124f0:	13a00000 	movne	r0, #0
   124f4:	e49de008 	ldr	lr, [sp], #8
   124f8:	e12fff1e 	bx	lr

000124fc <__aeabi_fcmplt>:
   124fc:	e52de008 	str	lr, [sp, #-8]!
   12500:	ebfffff1 	bl	124cc <__aeabi_cfcmpeq>
   12504:	33a00001 	movcc	r0, #1
   12508:	23a00000 	movcs	r0, #0
   1250c:	e49de008 	ldr	lr, [sp], #8
   12510:	e12fff1e 	bx	lr

00012514 <__aeabi_fcmple>:
   12514:	e52de008 	str	lr, [sp, #-8]!
   12518:	ebffffeb 	bl	124cc <__aeabi_cfcmpeq>
   1251c:	93a00001 	movls	r0, #1
   12520:	83a00000 	movhi	r0, #0
   12524:	e49de008 	ldr	lr, [sp], #8
   12528:	e12fff1e 	bx	lr

0001252c <__aeabi_fcmpge>:
   1252c:	e52de008 	str	lr, [sp, #-8]!
   12530:	ebffffe1 	bl	124bc <__aeabi_cfrcmple>
   12534:	93a00001 	movls	r0, #1
   12538:	83a00000 	movhi	r0, #0
   1253c:	e49de008 	ldr	lr, [sp], #8
   12540:	e12fff1e 	bx	lr

00012544 <__aeabi_fcmpgt>:
   12544:	e52de008 	str	lr, [sp, #-8]!
   12548:	ebffffdb 	bl	124bc <__aeabi_cfrcmple>
   1254c:	33a00001 	movcc	r0, #1
   12550:	23a00000 	movcs	r0, #0
   12554:	e49de008 	ldr	lr, [sp], #8
   12558:	e12fff1e 	bx	lr

0001255c <__aeabi_uldivmod>:
   1255c:	e3530000 	cmp	r3, #0
   12560:	03520000 	cmpeq	r2, #0
   12564:	1a000004 	bne	1257c <__aeabi_uldivmod+0x20>
   12568:	e3510000 	cmp	r1, #0
   1256c:	03500000 	cmpeq	r0, #0
   12570:	13e01000 	mvnne	r1, #0
   12574:	13e00000 	mvnne	r0, #0
   12578:	eaffff0c 	b	121b0 <__aeabi_idiv0>
   1257c:	e24dd008 	sub	sp, sp, #8
   12580:	e92d6000 	push	{sp, lr}
   12584:	eb000014 	bl	125dc <__gnu_uldivmod_helper>
   12588:	e59de004 	ldr	lr, [sp, #4]
   1258c:	e28dd008 	add	sp, sp, #8
   12590:	e8bd000c 	pop	{r2, r3}
   12594:	e12fff1e 	bx	lr

00012598 <__gnu_ldivmod_helper>:
   12598:	e92d45f8 	push	{r3, r4, r5, r6, r7, r8, r10, lr}
   1259c:	e1a08002 	mov	r8, r2
   125a0:	e1a0a003 	mov	r10, r3
   125a4:	e1a06000 	mov	r6, r0
   125a8:	e1a07001 	mov	r7, r1
   125ac:	eb00001a 	bl	1261c <__divdi3>
   125b0:	e0030198 	mul	r3, r8, r1
   125b4:	e1a02000 	mov	r2, r0
   125b8:	e0854098 	umull	r4, r5, r8, r0
   125bc:	e022329a 	mla	r2, r10, r2, r3
   125c0:	e59d3020 	ldr	r3, [sp, #32]
   125c4:	e0825005 	add	r5, r2, r5
   125c8:	e0564004 	subs	r4, r6, r4
   125cc:	e0c75005 	sbc	r5, r7, r5
   125d0:	e8830030 	stm	r3, {r4, r5}
   125d4:	e8bd45f8 	pop	{r3, r4, r5, r6, r7, r8, r10, lr}
   125d8:	e12fff1e 	bx	lr

000125dc <__gnu_uldivmod_helper>:
   125dc:	e92d41f0 	push	{r4, r5, r6, r7, r8, lr}
   125e0:	e1a08002 	mov	r8, r2
   125e4:	e1a06000 	mov	r6, r0
   125e8:	e1a07001 	mov	r7, r1
   125ec:	e1a04003 	mov	r4, r3
   125f0:	eb000145 	bl	12b0c <__udivdi3>
   125f4:	e0030490 	mul	r3, r0, r4
   125f8:	e0854890 	umull	r4, r5, r0, r8
   125fc:	e0283891 	mla	r8, r1, r8, r3
   12600:	e59d3018 	ldr	r3, [sp, #24]
   12604:	e0885005 	add	r5, r8, r5
   12608:	e0564004 	subs	r4, r6, r4
   1260c:	e0c75005 	sbc	r5, r7, r5
   12610:	e8830030 	stm	r3, {r4, r5}
   12614:	e8bd41f0 	pop	{r4, r5, r6, r7, r8, lr}
   12618:	e12fff1e 	bx	lr

0001261c <__divdi3>:
   1261c:	e92d4ff0 	push	{r4, r5, r6, r7, r8, r9, r10, r11, lr}
   12620:	e3510000 	cmp	r1, #0
   12624:	e24dd00c 	sub	sp, sp, #12
   12628:	e1a0c003 	mov	r12, r3
   1262c:	a3a05000 	movge	r5, #0
   12630:	ba00009b 	blt	128a4 <__divdi3+0x288>
   12634:	e35c0000 	cmp	r12, #0
   12638:	ba000095 	blt	12894 <__divdi3+0x278>
   1263c:	e2539000 	subs	r9, r3, #0
   12640:	e1a08000 	mov	r8, r0
   12644:	e1a0a001 	mov	r10, r1
   12648:	e1a0b002 	mov	r11, r2
   1264c:	e1a04002 	mov	r4, r2
   12650:	e1a06000 	mov	r6, r0
   12654:	e1a07001 	mov	r7, r1
   12658:	1a000042 	bne	12768 <__divdi3+0x14c>
   1265c:	e1520001 	cmp	r2, r1
   12660:	9a000050 	bls	127a8 <__divdi3+0x18c>
   12664:	e1a00002 	mov	r0, r2
   12668:	eb000249 	bl	12f94 <__clzsi2>
   1266c:	e3500000 	cmp	r0, #0
   12670:	12603020 	rsbne	r3, r0, #32
   12674:	11a03338 	lsrne	r3, r8, r3
   12678:	11a0401b 	lslne	r4, r11, r0
   1267c:	1183701a 	orrne	r7, r3, r10, lsl r0
   12680:	11a06018 	lslne	r6, r8, r0
   12684:	e1a08824 	lsr	r8, r4, #16
   12688:	e1a01008 	mov	r1, r8
   1268c:	e1a00007 	mov	r0, r7
   12690:	ebfffe81 	bl	1209c <__aeabi_uidiv>
   12694:	e1a01008 	mov	r1, r8
   12698:	e1a09000 	mov	r9, r0
   1269c:	e1a00007 	mov	r0, r7
   126a0:	ebfffeba 	bl	12190 <__aeabi_uidivmod>
   126a4:	e1a0a804 	lsl	r10, r4, #16
   126a8:	e1a0a82a 	lsr	r10, r10, #16
   126ac:	e000099a 	mul	r0, r10, r9
   126b0:	e1a03826 	lsr	r3, r6, #16
   126b4:	e1831801 	orr	r1, r3, r1, lsl #16
   126b8:	e1500001 	cmp	r0, r1
   126bc:	9a000007 	bls	126e0 <__divdi3+0xc4>
   126c0:	e0911004 	adds	r1, r1, r4
   126c4:	e2492001 	sub	r2, r9, #1
   126c8:	2a000003 	bcs	126dc <__divdi3+0xc0>
   126cc:	e1500001 	cmp	r0, r1
   126d0:	82499002 	subhi	r9, r9, #2
   126d4:	80811004 	addhi	r1, r1, r4
   126d8:	8a000000 	bhi	126e0 <__divdi3+0xc4>
   126dc:	e1a09002 	mov	r9, r2
   126e0:	e060b001 	rsb	r11, r0, r1
   126e4:	e1a0000b 	mov	r0, r11
   126e8:	e1a01008 	mov	r1, r8
   126ec:	ebfffe6a 	bl	1209c <__aeabi_uidiv>
   126f0:	e1a01008 	mov	r1, r8
   126f4:	e1a07000 	mov	r7, r0
   126f8:	e1a0000b 	mov	r0, r11
   126fc:	ebfffea3 	bl	12190 <__aeabi_uidivmod>
   12700:	e00a0a97 	mul	r10, r7, r10
   12704:	e1a06806 	lsl	r6, r6, #16
   12708:	e1a06826 	lsr	r6, r6, #16
   1270c:	e1861801 	orr	r1, r6, r1, lsl #16
   12710:	e15a0001 	cmp	r10, r1
   12714:	9a000006 	bls	12734 <__divdi3+0x118>
   12718:	e0914004 	adds	r4, r1, r4
   1271c:	e2473001 	sub	r3, r7, #1
   12720:	2a000002 	bcs	12730 <__divdi3+0x114>
   12724:	e15a0004 	cmp	r10, r4
   12728:	82477002 	subhi	r7, r7, #2
   1272c:	8a000000 	bhi	12734 <__divdi3+0x118>
   12730:	e1a07003 	mov	r7, r3
   12734:	e1870809 	orr	r0, r7, r9, lsl #16
   12738:	e3a08000 	mov	r8, #0
   1273c:	e3550000 	cmp	r5, #0
   12740:	e1a02000 	mov	r2, r0
   12744:	e1a03008 	mov	r3, r8
   12748:	0a000001 	beq	12754 <__divdi3+0x138>
   1274c:	e2722000 	rsbs	r2, r2, #0
   12750:	e2e33000 	rsc	r3, r3, #0
   12754:	e1a00002 	mov	r0, r2
   12758:	e1a01003 	mov	r1, r3
   1275c:	e28dd00c 	add	sp, sp, #12
   12760:	e8bd4ff0 	pop	{r4, r5, r6, r7, r8, r9, r10, r11, lr}
   12764:	e12fff1e 	bx	lr
   12768:	e1590001 	cmp	r9, r1
   1276c:	83a08000 	movhi	r8, #0
   12770:	81a00008 	movhi	r0, r8
   12774:	8afffff0 	bhi	1273c <__divdi3+0x120>
   12778:	e1a00003 	mov	r0, r3
   1277c:	eb000204 	bl	12f94 <__clzsi2>
   12780:	e2504000 	subs	r4, r0, #0
   12784:	1a000083 	bne	12998 <__divdi3+0x37c>
   12788:	e159000a 	cmp	r9, r10
   1278c:	215b0008 	cmpcs	r11, r8
   12790:	83a08000 	movhi	r8, #0
   12794:	93a08001 	movls	r8, #1
   12798:	93a00001 	movls	r0, #1
   1279c:	91a08004 	movls	r8, r4
   127a0:	81a00008 	movhi	r0, r8
   127a4:	eaffffe4 	b	1273c <__divdi3+0x120>
   127a8:	e3520000 	cmp	r2, #0
   127ac:	1a000003 	bne	127c0 <__divdi3+0x1a4>
   127b0:	e3a00001 	mov	r0, #1
   127b4:	e1a01002 	mov	r1, r2
   127b8:	ebfffe37 	bl	1209c <__aeabi_uidiv>
   127bc:	e1a04000 	mov	r4, r0
   127c0:	e1a00004 	mov	r0, r4
   127c4:	eb0001f2 	bl	12f94 <__clzsi2>
   127c8:	e2503000 	subs	r3, r0, #0
   127cc:	1a000038 	bne	128b4 <__divdi3+0x298>
   127d0:	e1a09804 	lsl	r9, r4, #16
   127d4:	e0647007 	rsb	r7, r4, r7
   127d8:	e1a0a824 	lsr	r10, r4, #16
   127dc:	e1a09829 	lsr	r9, r9, #16
   127e0:	e3a08001 	mov	r8, #1
   127e4:	e1a0100a 	mov	r1, r10
   127e8:	e1a00007 	mov	r0, r7
   127ec:	ebfffe2a 	bl	1209c <__aeabi_uidiv>
   127f0:	e1a0100a 	mov	r1, r10
   127f4:	e1a0b000 	mov	r11, r0
   127f8:	e1a00007 	mov	r0, r7
   127fc:	ebfffe63 	bl	12190 <__aeabi_uidivmod>
   12800:	e0000b99 	mul	r0, r9, r11
   12804:	e1a03826 	lsr	r3, r6, #16
   12808:	e1831801 	orr	r1, r3, r1, lsl #16
   1280c:	e1500001 	cmp	r0, r1
   12810:	9a000006 	bls	12830 <__divdi3+0x214>
   12814:	e0911004 	adds	r1, r1, r4
   12818:	e24b3001 	sub	r3, r11, #1
   1281c:	2a0000b2 	bcs	12aec <__divdi3+0x4d0>
   12820:	e1500001 	cmp	r0, r1
   12824:	824bb002 	subhi	r11, r11, #2
   12828:	80811004 	addhi	r1, r1, r4
   1282c:	9a0000ae 	bls	12aec <__divdi3+0x4d0>
   12830:	e0603001 	rsb	r3, r0, r1
   12834:	e1a00003 	mov	r0, r3
   12838:	e1a0100a 	mov	r1, r10
   1283c:	e58d3000 	str	r3, [sp]
   12840:	ebfffe15 	bl	1209c <__aeabi_uidiv>
   12844:	e59d3000 	ldr	r3, [sp]
   12848:	e1a07000 	mov	r7, r0
   1284c:	e1a0100a 	mov	r1, r10
   12850:	e1a00003 	mov	r0, r3
   12854:	ebfffe4d 	bl	12190 <__aeabi_uidivmod>
   12858:	e0090997 	mul	r9, r7, r9
   1285c:	e1a06806 	lsl	r6, r6, #16
   12860:	e1a06826 	lsr	r6, r6, #16
   12864:	e1861801 	orr	r1, r6, r1, lsl #16
   12868:	e1590001 	cmp	r9, r1
   1286c:	9a000006 	bls	1288c <__divdi3+0x270>
   12870:	e0914004 	adds	r4, r1, r4
   12874:	e2473001 	sub	r3, r7, #1
   12878:	2a000002 	bcs	12888 <__divdi3+0x26c>
   1287c:	e1590004 	cmp	r9, r4
   12880:	82477002 	subhi	r7, r7, #2
   12884:	8a000000 	bhi	1288c <__divdi3+0x270>
   12888:	e1a07003 	mov	r7, r3
   1288c:	e187080b 	orr	r0, r7, r11, lsl #16
   12890:	eaffffa9 	b	1273c <__divdi3+0x120>
   12894:	e1e05005 	mvn	r5, r5
   12898:	e2722000 	rsbs	r2, r2, #0
   1289c:	e2e33000 	rsc	r3, r3, #0
   128a0:	eaffff65 	b	1263c <__divdi3+0x20>
   128a4:	e2700000 	rsbs	r0, r0, #0
   128a8:	e2e11000 	rsc	r1, r1, #0
   128ac:	e3e05000 	mvn	r5, #0
   128b0:	eaffff5f 	b	12634 <__divdi3+0x18>
   128b4:	e1a04314 	lsl	r4, r4, r3
   128b8:	e263b020 	rsb	r11, r3, #32
   128bc:	e1a08b37 	lsr	r8, r7, r11
   128c0:	e1a0bb36 	lsr	r11, r6, r11
   128c4:	e1a0a824 	lsr	r10, r4, #16
   128c8:	e1a0100a 	mov	r1, r10
   128cc:	e1a00008 	mov	r0, r8
   128d0:	e18bb317 	orr	r11, r11, r7, lsl r3
   128d4:	e1a06316 	lsl	r6, r6, r3
   128d8:	ebfffdef 	bl	1209c <__aeabi_uidiv>
   128dc:	e1a0100a 	mov	r1, r10
   128e0:	e1a03000 	mov	r3, r0
   128e4:	e1a00008 	mov	r0, r8
   128e8:	e58d3000 	str	r3, [sp]
   128ec:	ebfffe27 	bl	12190 <__aeabi_uidivmod>
   128f0:	e1a09804 	lsl	r9, r4, #16
   128f4:	e59d3000 	ldr	r3, [sp]
   128f8:	e1a09829 	lsr	r9, r9, #16
   128fc:	e0000399 	mul	r0, r9, r3
   12900:	e1a0282b 	lsr	r2, r11, #16
   12904:	e1821801 	orr	r1, r2, r1, lsl #16
   12908:	e1500001 	cmp	r0, r1
   1290c:	9a000006 	bls	1292c <__divdi3+0x310>
   12910:	e0911004 	adds	r1, r1, r4
   12914:	e2432001 	sub	r2, r3, #1
   12918:	2a000079 	bcs	12b04 <__divdi3+0x4e8>
   1291c:	e1500001 	cmp	r0, r1
   12920:	82433002 	subhi	r3, r3, #2
   12924:	80811004 	addhi	r1, r1, r4
   12928:	9a000075 	bls	12b04 <__divdi3+0x4e8>
   1292c:	e0607001 	rsb	r7, r0, r1
   12930:	e1a00007 	mov	r0, r7
   12934:	e1a0100a 	mov	r1, r10
   12938:	e58d3000 	str	r3, [sp]
   1293c:	ebfffdd6 	bl	1209c <__aeabi_uidiv>
   12940:	e1a0100a 	mov	r1, r10
   12944:	e1a08000 	mov	r8, r0
   12948:	e1a00007 	mov	r0, r7
   1294c:	ebfffe0f 	bl	12190 <__aeabi_uidivmod>
   12950:	e0070899 	mul	r7, r9, r8
   12954:	e1a0b80b 	lsl	r11, r11, #16
   12958:	e1a0b82b 	lsr	r11, r11, #16
   1295c:	e18b1801 	orr	r1, r11, r1, lsl #16
   12960:	e1570001 	cmp	r7, r1
   12964:	e59d3000 	ldr	r3, [sp]
   12968:	9a000007 	bls	1298c <__divdi3+0x370>
   1296c:	e0911004 	adds	r1, r1, r4
   12970:	e2482001 	sub	r2, r8, #1
   12974:	2a000003 	bcs	12988 <__divdi3+0x36c>
   12978:	e1570001 	cmp	r7, r1
   1297c:	82488002 	subhi	r8, r8, #2
   12980:	80811004 	addhi	r1, r1, r4
   12984:	8a000000 	bhi	1298c <__divdi3+0x370>
   12988:	e1a08002 	mov	r8, r2
   1298c:	e0677001 	rsb	r7, r7, r1
   12990:	e1888803 	orr	r8, r8, r3, lsl #16
   12994:	eaffff92 	b	127e4 <__divdi3+0x1c8>
   12998:	e2643020 	rsb	r3, r4, #32
   1299c:	e1a0233b 	lsr	r2, r11, r3
   129a0:	e1829419 	orr	r9, r2, r9, lsl r4
   129a4:	e1a0233a 	lsr	r2, r10, r3
   129a8:	e1a03336 	lsr	r3, r6, r3
   129ac:	e1a07829 	lsr	r7, r9, #16
   129b0:	e1a01007 	mov	r1, r7
   129b4:	e1a00002 	mov	r0, r2
   129b8:	e183a41a 	orr	r10, r3, r10, lsl r4
   129bc:	e58d2004 	str	r2, [sp, #4]
   129c0:	ebfffdb5 	bl	1209c <__aeabi_uidiv>
   129c4:	e59d2004 	ldr	r2, [sp, #4]
   129c8:	e1a03000 	mov	r3, r0
   129cc:	e1a01007 	mov	r1, r7
   129d0:	e1a00002 	mov	r0, r2
   129d4:	e58d3000 	str	r3, [sp]
   129d8:	ebfffdec 	bl	12190 <__aeabi_uidivmod>
   129dc:	e1a08809 	lsl	r8, r9, #16
   129e0:	e59d3000 	ldr	r3, [sp]
   129e4:	e1a08828 	lsr	r8, r8, #16
   129e8:	e0000398 	mul	r0, r8, r3
   129ec:	e1a0282a 	lsr	r2, r10, #16
   129f0:	e1821801 	orr	r1, r2, r1, lsl #16
   129f4:	e1500001 	cmp	r0, r1
   129f8:	e1a0b41b 	lsl	r11, r11, r4
   129fc:	9a000006 	bls	12a1c <__divdi3+0x400>
   12a00:	e0911009 	adds	r1, r1, r9
   12a04:	e2432001 	sub	r2, r3, #1
   12a08:	2a00003b 	bcs	12afc <__divdi3+0x4e0>
   12a0c:	e1500001 	cmp	r0, r1
   12a10:	82433002 	subhi	r3, r3, #2
   12a14:	80811009 	addhi	r1, r1, r9
   12a18:	9a000037 	bls	12afc <__divdi3+0x4e0>
   12a1c:	e060c001 	rsb	r12, r0, r1
   12a20:	e1a0000c 	mov	r0, r12
   12a24:	e1a01007 	mov	r1, r7
   12a28:	e88d1008 	stm	sp, {r3, r12}
   12a2c:	ebfffd9a 	bl	1209c <__aeabi_uidiv>
   12a30:	e59dc004 	ldr	r12, [sp, #4]
   12a34:	e1a02000 	mov	r2, r0
   12a38:	e1a01007 	mov	r1, r7
   12a3c:	e1a0000c 	mov	r0, r12
   12a40:	e58d2004 	str	r2, [sp, #4]
   12a44:	ebfffdd1 	bl	12190 <__aeabi_uidivmod>
   12a48:	e59d2004 	ldr	r2, [sp, #4]
   12a4c:	e0080892 	mul	r8, r2, r8
   12a50:	e1a0a80a 	lsl	r10, r10, #16
   12a54:	e1a0a82a 	lsr	r10, r10, #16
   12a58:	e18a1801 	orr	r1, r10, r1, lsl #16
   12a5c:	e1580001 	cmp	r8, r1
   12a60:	e59d3000 	ldr	r3, [sp]
   12a64:	9a000006 	bls	12a84 <__divdi3+0x468>
   12a68:	e0911009 	adds	r1, r1, r9
   12a6c:	e2420001 	sub	r0, r2, #1
   12a70:	2a00001f 	bcs	12af4 <__divdi3+0x4d8>
   12a74:	e1580001 	cmp	r8, r1
   12a78:	82422002 	subhi	r2, r2, #2
   12a7c:	80811009 	addhi	r1, r1, r9
   12a80:	9a00001b 	bls	12af4 <__divdi3+0x4d8>
   12a84:	e0688001 	rsb	r8, r8, r1
   12a88:	e1820803 	orr	r0, r2, r3, lsl #16
   12a8c:	e1a01820 	lsr	r1, r0, #16
   12a90:	e1a0382b 	lsr	r3, r11, #16
   12a94:	e1c0c801 	bic	r12, r0, r1, lsl #16
   12a98:	e1cbb803 	bic	r11, r11, r3, lsl #16
   12a9c:	e0020b9c 	mul	r2, r12, r11
   12aa0:	e00b0b91 	mul	r11, r1, r11
   12aa4:	e00c0c93 	mul	r12, r3, r12
   12aa8:	e0030391 	mul	r3, r1, r3
   12aac:	e09bc00c 	adds	r12, r11, r12
   12ab0:	22833801 	addcs	r3, r3, #65536	; 0x10000
   12ab4:	e092280c 	adds	r2, r2, r12, lsl #16
   12ab8:	e0a3382c 	adc	r3, r3, r12, lsr #16
   12abc:	e1580003 	cmp	r8, r3
   12ac0:	3a000006 	bcc	12ae0 <__divdi3+0x4c4>
   12ac4:	13a08000 	movne	r8, #0
   12ac8:	03a08001 	moveq	r8, #1
   12acc:	e1520416 	cmp	r2, r6, lsl r4
   12ad0:	93a08000 	movls	r8, #0
   12ad4:	82088001 	andhi	r8, r8, #1
   12ad8:	e3580000 	cmp	r8, #0
   12adc:	0affff16 	beq	1273c <__divdi3+0x120>
   12ae0:	e2400001 	sub	r0, r0, #1
   12ae4:	e3a08000 	mov	r8, #0
   12ae8:	eaffff13 	b	1273c <__divdi3+0x120>
   12aec:	e1a0b003 	mov	r11, r3
   12af0:	eaffff4e 	b	12830 <__divdi3+0x214>
   12af4:	e1a02000 	mov	r2, r0
   12af8:	eaffffe1 	b	12a84 <__divdi3+0x468>
   12afc:	e1a03002 	mov	r3, r2
   12b00:	eaffffc5 	b	12a1c <__divdi3+0x400>
   12b04:	e1a03002 	mov	r3, r2
   12b08:	eaffff87 	b	1292c <__divdi3+0x310>

00012b0c <__udivdi3>:
   12b0c:	e92d4ff0 	push	{r4, r5, r6, r7, r8, r9, r10, r11, lr}
   12b10:	e253a000 	subs	r10, r3, #0
   12b14:	e24dd00c 	sub	sp, sp, #12
   12b18:	e1a06000 	mov	r6, r0
   12b1c:	e1a05001 	mov	r5, r1
   12b20:	e1a07002 	mov	r7, r2
   12b24:	e1a04002 	mov	r4, r2
   12b28:	e1a08000 	mov	r8, r0
   12b2c:	e1a09001 	mov	r9, r1
   12b30:	1a00003a 	bne	12c20 <__udivdi3+0x114>
   12b34:	e1520001 	cmp	r2, r1
   12b38:	9a000048 	bls	12c60 <__udivdi3+0x154>
   12b3c:	e1a00002 	mov	r0, r2
   12b40:	eb000113 	bl	12f94 <__clzsi2>
   12b44:	e3500000 	cmp	r0, #0
   12b48:	12603020 	rsbne	r3, r0, #32
   12b4c:	11a03336 	lsrne	r3, r6, r3
   12b50:	11a04017 	lslne	r4, r7, r0
   12b54:	11839015 	orrne	r9, r3, r5, lsl r0
   12b58:	e1a05824 	lsr	r5, r4, #16
   12b5c:	11a08016 	lslne	r8, r6, r0
   12b60:	e1a01005 	mov	r1, r5
   12b64:	e1a00009 	mov	r0, r9
   12b68:	ebfffd4b 	bl	1209c <__aeabi_uidiv>
   12b6c:	e1a01005 	mov	r1, r5
   12b70:	e1a07000 	mov	r7, r0
   12b74:	e1a00009 	mov	r0, r9
   12b78:	ebfffd84 	bl	12190 <__aeabi_uidivmod>
   12b7c:	e1a0a804 	lsl	r10, r4, #16
   12b80:	e1a0a82a 	lsr	r10, r10, #16
   12b84:	e000079a 	mul	r0, r10, r7
   12b88:	e1a03828 	lsr	r3, r8, #16
   12b8c:	e1831801 	orr	r1, r3, r1, lsl #16
   12b90:	e1500001 	cmp	r0, r1
   12b94:	9a000007 	bls	12bb8 <__udivdi3+0xac>
   12b98:	e0911004 	adds	r1, r1, r4
   12b9c:	e2472001 	sub	r2, r7, #1
   12ba0:	2a000003 	bcs	12bb4 <__udivdi3+0xa8>
   12ba4:	e1500001 	cmp	r0, r1
   12ba8:	82477002 	subhi	r7, r7, #2
   12bac:	80811004 	addhi	r1, r1, r4
   12bb0:	8a000000 	bhi	12bb8 <__udivdi3+0xac>
   12bb4:	e1a07002 	mov	r7, r2
   12bb8:	e0609001 	rsb	r9, r0, r1
   12bbc:	e1a00009 	mov	r0, r9
   12bc0:	e1a01005 	mov	r1, r5
   12bc4:	ebfffd34 	bl	1209c <__aeabi_uidiv>
   12bc8:	e1a01005 	mov	r1, r5
   12bcc:	e1a06000 	mov	r6, r0
   12bd0:	e1a00009 	mov	r0, r9
   12bd4:	ebfffd6d 	bl	12190 <__aeabi_uidivmod>
   12bd8:	e00a0a96 	mul	r10, r6, r10
   12bdc:	e1a08808 	lsl	r8, r8, #16
   12be0:	e1a08828 	lsr	r8, r8, #16
   12be4:	e1881801 	orr	r1, r8, r1, lsl #16
   12be8:	e15a0001 	cmp	r10, r1
   12bec:	9a000005 	bls	12c08 <__udivdi3+0xfc>
   12bf0:	e0914004 	adds	r4, r1, r4
   12bf4:	e2463001 	sub	r3, r6, #1
   12bf8:	2a0000d3 	bcs	12f4c <__udivdi3+0x440>
   12bfc:	e15a0004 	cmp	r10, r4
   12c00:	82466002 	subhi	r6, r6, #2
   12c04:	9a0000d0 	bls	12f4c <__udivdi3+0x440>
   12c08:	e1860807 	orr	r0, r6, r7, lsl #16
   12c0c:	e3a06000 	mov	r6, #0
   12c10:	e1a01006 	mov	r1, r6
   12c14:	e28dd00c 	add	sp, sp, #12
   12c18:	e8bd4ff0 	pop	{r4, r5, r6, r7, r8, r9, r10, r11, lr}
   12c1c:	e12fff1e 	bx	lr
   12c20:	e15a0001 	cmp	r10, r1
   12c24:	83a06000 	movhi	r6, #0
   12c28:	81a00006 	movhi	r0, r6
   12c2c:	8afffff7 	bhi	12c10 <__udivdi3+0x104>
   12c30:	e1a0000a 	mov	r0, r10
   12c34:	eb0000d6 	bl	12f94 <__clzsi2>
   12c38:	e2504000 	subs	r4, r0, #0
   12c3c:	1a00003f 	bne	12d40 <__udivdi3+0x234>
   12c40:	e15a0005 	cmp	r10, r5
   12c44:	21570006 	cmpcs	r7, r6
   12c48:	83a06000 	movhi	r6, #0
   12c4c:	93a06001 	movls	r6, #1
   12c50:	93a00001 	movls	r0, #1
   12c54:	91a06004 	movls	r6, r4
   12c58:	81a00006 	movhi	r0, r6
   12c5c:	eaffffeb 	b	12c10 <__udivdi3+0x104>
   12c60:	e3520000 	cmp	r2, #0
   12c64:	1a000003 	bne	12c78 <__udivdi3+0x16c>
   12c68:	e3a00001 	mov	r0, #1
   12c6c:	e1a01002 	mov	r1, r2
   12c70:	ebfffd09 	bl	1209c <__aeabi_uidiv>
   12c74:	e1a04000 	mov	r4, r0
   12c78:	e1a00004 	mov	r0, r4
   12c7c:	eb0000c4 	bl	12f94 <__clzsi2>
   12c80:	e2503000 	subs	r3, r0, #0
   12c84:	1a000079 	bne	12e70 <__udivdi3+0x364>
   12c88:	e1a09804 	lsl	r9, r4, #16
   12c8c:	e0645005 	rsb	r5, r4, r5
   12c90:	e1a0a824 	lsr	r10, r4, #16
   12c94:	e1a09829 	lsr	r9, r9, #16
   12c98:	e3a06001 	mov	r6, #1
   12c9c:	e1a0100a 	mov	r1, r10
   12ca0:	e1a00005 	mov	r0, r5
   12ca4:	ebfffcfc 	bl	1209c <__aeabi_uidiv>
   12ca8:	e1a0100a 	mov	r1, r10
   12cac:	e1a07000 	mov	r7, r0
   12cb0:	e1a00005 	mov	r0, r5
   12cb4:	ebfffd35 	bl	12190 <__aeabi_uidivmod>
   12cb8:	e0000799 	mul	r0, r9, r7
   12cbc:	e1a03828 	lsr	r3, r8, #16
   12cc0:	e1831801 	orr	r1, r3, r1, lsl #16
   12cc4:	e1500001 	cmp	r0, r1
   12cc8:	9a000006 	bls	12ce8 <__udivdi3+0x1dc>
   12ccc:	e0911004 	adds	r1, r1, r4
   12cd0:	e2473001 	sub	r3, r7, #1
   12cd4:	2a00009e 	bcs	12f54 <__udivdi3+0x448>
   12cd8:	e1500001 	cmp	r0, r1
   12cdc:	82477002 	subhi	r7, r7, #2
   12ce0:	80811004 	addhi	r1, r1, r4
   12ce4:	9a00009a 	bls	12f54 <__udivdi3+0x448>
   12ce8:	e060b001 	rsb	r11, r0, r1
   12cec:	e1a0000b 	mov	r0, r11
   12cf0:	e1a0100a 	mov	r1, r10
   12cf4:	ebfffce8 	bl	1209c <__aeabi_uidiv>
   12cf8:	e1a0100a 	mov	r1, r10
   12cfc:	e1a05000 	mov	r5, r0
   12d00:	e1a0000b 	mov	r0, r11
   12d04:	ebfffd21 	bl	12190 <__aeabi_uidivmod>
   12d08:	e0090995 	mul	r9, r5, r9
   12d0c:	e1a08808 	lsl	r8, r8, #16
   12d10:	e1a08828 	lsr	r8, r8, #16
   12d14:	e1881801 	orr	r1, r8, r1, lsl #16
   12d18:	e1590001 	cmp	r9, r1
   12d1c:	9a000005 	bls	12d38 <__udivdi3+0x22c>
   12d20:	e0914004 	adds	r4, r1, r4
   12d24:	e2453001 	sub	r3, r5, #1
   12d28:	2a00008b 	bcs	12f5c <__udivdi3+0x450>
   12d2c:	e1590004 	cmp	r9, r4
   12d30:	82455002 	subhi	r5, r5, #2
   12d34:	9a000088 	bls	12f5c <__udivdi3+0x450>
   12d38:	e1850807 	orr	r0, r5, r7, lsl #16
   12d3c:	eaffffb3 	b	12c10 <__udivdi3+0x104>
   12d40:	e2643020 	rsb	r3, r4, #32
   12d44:	e1a02337 	lsr	r2, r7, r3
   12d48:	e182a41a 	orr	r10, r2, r10, lsl r4
   12d4c:	e1a02335 	lsr	r2, r5, r3
   12d50:	e1a03336 	lsr	r3, r6, r3
   12d54:	e1a0882a 	lsr	r8, r10, #16
   12d58:	e1a01008 	mov	r1, r8
   12d5c:	e1a00002 	mov	r0, r2
   12d60:	e1835415 	orr	r5, r3, r5, lsl r4
   12d64:	e58d2004 	str	r2, [sp, #4]
   12d68:	ebfffccb 	bl	1209c <__aeabi_uidiv>
   12d6c:	e59d2004 	ldr	r2, [sp, #4]
   12d70:	e1a0b000 	mov	r11, r0
   12d74:	e1a01008 	mov	r1, r8
   12d78:	e1a00002 	mov	r0, r2
   12d7c:	ebfffd03 	bl	12190 <__aeabi_uidivmod>
   12d80:	e1a0980a 	lsl	r9, r10, #16
   12d84:	e1a09829 	lsr	r9, r9, #16
   12d88:	e0000b99 	mul	r0, r9, r11
   12d8c:	e1a03825 	lsr	r3, r5, #16
   12d90:	e1831801 	orr	r1, r3, r1, lsl #16
   12d94:	e1500001 	cmp	r0, r1
   12d98:	e1a07417 	lsl	r7, r7, r4
   12d9c:	9a000003 	bls	12db0 <__udivdi3+0x2a4>
   12da0:	e091100a 	adds	r1, r1, r10
   12da4:	e24b2001 	sub	r2, r11, #1
   12da8:	3a000072 	bcc	12f78 <__udivdi3+0x46c>
   12dac:	e1a0b002 	mov	r11, r2
   12db0:	e0603001 	rsb	r3, r0, r1
   12db4:	e1a00003 	mov	r0, r3
   12db8:	e1a01008 	mov	r1, r8
   12dbc:	e58d3004 	str	r3, [sp, #4]
   12dc0:	ebfffcb5 	bl	1209c <__aeabi_uidiv>
   12dc4:	e59d3004 	ldr	r3, [sp, #4]
   12dc8:	e1a02000 	mov	r2, r0
   12dcc:	e1a01008 	mov	r1, r8
   12dd0:	e1a00003 	mov	r0, r3
   12dd4:	e58d2004 	str	r2, [sp, #4]
   12dd8:	ebfffcec 	bl	12190 <__aeabi_uidivmod>
   12ddc:	e59d2004 	ldr	r2, [sp, #4]
   12de0:	e0090992 	mul	r9, r2, r9
   12de4:	e1a05805 	lsl	r5, r5, #16
   12de8:	e1a05825 	lsr	r5, r5, #16
   12dec:	e1851801 	orr	r1, r5, r1, lsl #16
   12df0:	e1590001 	cmp	r9, r1
   12df4:	9a000003 	bls	12e08 <__udivdi3+0x2fc>
   12df8:	e091100a 	adds	r1, r1, r10
   12dfc:	e2423001 	sub	r3, r2, #1
   12e00:	3a000057 	bcc	12f64 <__udivdi3+0x458>
   12e04:	e1a02003 	mov	r2, r3
   12e08:	e0699001 	rsb	r9, r9, r1
   12e0c:	e182080b 	orr	r0, r2, r11, lsl #16
   12e10:	e1a01820 	lsr	r1, r0, #16
   12e14:	e1a03827 	lsr	r3, r7, #16
   12e18:	e1c0c801 	bic	r12, r0, r1, lsl #16
   12e1c:	e1c77803 	bic	r7, r7, r3, lsl #16
   12e20:	e002079c 	mul	r2, r12, r7
   12e24:	e0070791 	mul	r7, r1, r7
   12e28:	e00c0c93 	mul	r12, r3, r12
   12e2c:	e0030391 	mul	r3, r1, r3
   12e30:	e097c00c 	adds	r12, r7, r12
   12e34:	22833801 	addcs	r3, r3, #65536	; 0x10000
   12e38:	e092280c 	adds	r2, r2, r12, lsl #16
   12e3c:	e0a3382c 	adc	r3, r3, r12, lsr #16
   12e40:	e1590003 	cmp	r9, r3
   12e44:	3a000006 	bcc	12e64 <__udivdi3+0x358>
   12e48:	13a03000 	movne	r3, #0
   12e4c:	03a03001 	moveq	r3, #1
   12e50:	e1520416 	cmp	r2, r6, lsl r4
   12e54:	93a06000 	movls	r6, #0
   12e58:	82036001 	andhi	r6, r3, #1
   12e5c:	e3560000 	cmp	r6, #0
   12e60:	0affff6a 	beq	12c10 <__udivdi3+0x104>
   12e64:	e2400001 	sub	r0, r0, #1
   12e68:	e3a06000 	mov	r6, #0
   12e6c:	eaffff67 	b	12c10 <__udivdi3+0x104>
   12e70:	e1a04314 	lsl	r4, r4, r3
   12e74:	e263b020 	rsb	r11, r3, #32
   12e78:	e1a02b35 	lsr	r2, r5, r11
   12e7c:	e1a0bb36 	lsr	r11, r6, r11
   12e80:	e1a0a824 	lsr	r10, r4, #16
   12e84:	e1a0100a 	mov	r1, r10
   12e88:	e1a00002 	mov	r0, r2
   12e8c:	e18bb315 	orr	r11, r11, r5, lsl r3
   12e90:	e1a08316 	lsl	r8, r6, r3
   12e94:	e58d2004 	str	r2, [sp, #4]
   12e98:	ebfffc7f 	bl	1209c <__aeabi_uidiv>
   12e9c:	e59d2004 	ldr	r2, [sp, #4]
   12ea0:	e1a07000 	mov	r7, r0
   12ea4:	e1a0100a 	mov	r1, r10
   12ea8:	e1a00002 	mov	r0, r2
   12eac:	ebfffcb7 	bl	12190 <__aeabi_uidivmod>
   12eb0:	e1a09804 	lsl	r9, r4, #16
   12eb4:	e1a09829 	lsr	r9, r9, #16
   12eb8:	e0000799 	mul	r0, r9, r7
   12ebc:	e1a0382b 	lsr	r3, r11, #16
   12ec0:	e1831801 	orr	r1, r3, r1, lsl #16
   12ec4:	e1500001 	cmp	r0, r1
   12ec8:	9a000006 	bls	12ee8 <__udivdi3+0x3dc>
   12ecc:	e0911004 	adds	r1, r1, r4
   12ed0:	e2473001 	sub	r3, r7, #1
   12ed4:	2a00002c 	bcs	12f8c <__udivdi3+0x480>
   12ed8:	e1500001 	cmp	r0, r1
   12edc:	82477002 	subhi	r7, r7, #2
   12ee0:	80811004 	addhi	r1, r1, r4
   12ee4:	9a000028 	bls	12f8c <__udivdi3+0x480>
   12ee8:	e0605001 	rsb	r5, r0, r1
   12eec:	e1a00005 	mov	r0, r5
   12ef0:	e1a0100a 	mov	r1, r10
   12ef4:	ebfffc68 	bl	1209c <__aeabi_uidiv>
   12ef8:	e1a0100a 	mov	r1, r10
   12efc:	e1a06000 	mov	r6, r0
   12f00:	e1a00005 	mov	r0, r5
   12f04:	ebfffca1 	bl	12190 <__aeabi_uidivmod>
   12f08:	e0050699 	mul	r5, r9, r6
   12f0c:	e1a0b80b 	lsl	r11, r11, #16
   12f10:	e1a0b82b 	lsr	r11, r11, #16
   12f14:	e18b1801 	orr	r1, r11, r1, lsl #16
   12f18:	e1550001 	cmp	r5, r1
   12f1c:	9a000007 	bls	12f40 <__udivdi3+0x434>
   12f20:	e0911004 	adds	r1, r1, r4
   12f24:	e2463001 	sub	r3, r6, #1
   12f28:	2a000003 	bcs	12f3c <__udivdi3+0x430>
   12f2c:	e1550001 	cmp	r5, r1
   12f30:	82466002 	subhi	r6, r6, #2
   12f34:	80811004 	addhi	r1, r1, r4
   12f38:	8a000000 	bhi	12f40 <__udivdi3+0x434>
   12f3c:	e1a06003 	mov	r6, r3
   12f40:	e0655001 	rsb	r5, r5, r1
   12f44:	e1866807 	orr	r6, r6, r7, lsl #16
   12f48:	eaffff53 	b	12c9c <__udivdi3+0x190>
   12f4c:	e1a06003 	mov	r6, r3
   12f50:	eaffff2c 	b	12c08 <__udivdi3+0xfc>
   12f54:	e1a07003 	mov	r7, r3
   12f58:	eaffff62 	b	12ce8 <__udivdi3+0x1dc>
   12f5c:	e1a05003 	mov	r5, r3
   12f60:	eaffff74 	b	12d38 <__udivdi3+0x22c>
   12f64:	e1590001 	cmp	r9, r1
   12f68:	82422002 	subhi	r2, r2, #2
   12f6c:	8081100a 	addhi	r1, r1, r10
   12f70:	8affffa4 	bhi	12e08 <__udivdi3+0x2fc>
   12f74:	eaffffa2 	b	12e04 <__udivdi3+0x2f8>
   12f78:	e1500001 	cmp	r0, r1
   12f7c:	824bb002 	subhi	r11, r11, #2
   12f80:	8081100a 	addhi	r1, r1, r10
   12f84:	8affff89 	bhi	12db0 <__udivdi3+0x2a4>
   12f88:	eaffff87 	b	12dac <__udivdi3+0x2a0>
   12f8c:	e1a07003 	mov	r7, r3
   12f90:	eaffffd4 	b	12ee8 <__udivdi3+0x3dc>

00012f94 <__clzsi2>:
   12f94:	e3a0101c 	mov	r1, #28
   12f98:	e3500801 	cmp	r0, #65536	; 0x10000
   12f9c:	21a00820 	lsrcs	r0, r0, #16
   12fa0:	22411010 	subcs	r1, r1, #16
   12fa4:	e3500c01 	cmp	r0, #256	; 0x100
   12fa8:	21a00420 	lsrcs	r0, r0, #8
   12fac:	22411008 	subcs	r1, r1, #8
   12fb0:	e3500010 	cmp	r0, #16
   12fb4:	21a00220 	lsrcs	r0, r0, #4
   12fb8:	22411004 	subcs	r1, r1, #4
   12fbc:	e28f2008 	add	r2, pc, #8
   12fc0:	e7d20000 	ldrb	r0, [r2, r0]
   12fc4:	e0800001 	add	r0, r0, r1
   12fc8:	e12fff1e 	bx	lr
   12fcc:	02020304 	.word	0x02020304
   12fd0:	01010101 	.word	0x01010101
	...

00012fdc <__cs3_premain>:
   12fdc:	e92d4008 	push	{r3, lr}
   12fe0:	eb0001a5 	bl	1367c <__libc_init_array>
   12fe4:	e59f3030 	ldr	r3, [pc, #48]	; 1301c <__cs3_premain+0x40>
   12fe8:	e3530000 	cmp	r3, #0
   12fec:	15930000 	ldrne	r0, [r3]
   12ff0:	01a00003 	moveq	r0, r3
   12ff4:	e59f3024 	ldr	r3, [pc, #36]	; 13020 <__cs3_premain+0x44>
   12ff8:	e3530000 	cmp	r3, #0
   12ffc:	15931000 	ldrne	r1, [r3]
   13000:	01a01003 	moveq	r1, r3
   13004:	e3a02000 	mov	r2, #0
   13008:	ebffb4e8 	bl	3b0 <main>
   1300c:	e59f3010 	ldr	r3, [pc, #16]	; 13024 <__cs3_premain+0x48>
   13010:	e3530000 	cmp	r3, #0
   13014:	1bffb81a 	blne	1084 <exit>
   13018:	eafffffe 	b	13018 <__cs3_premain+0x3c>
   1301c:	000146fc 	.word	0x000146fc
   13020:	00014700 	.word	0x00014700
   13024:	00001084 	.word	0x00001084

00013028 <_close>:
   13028:	e92d4038 	push	{r3, r4, r5, lr}
   1302c:	e1a05000 	mov	r5, r0
   13030:	eb0000e8 	bl	133d8 <__cs3_openslot>
   13034:	e2504000 	subs	r4, r0, #0
   13038:	0a000016 	beq	13098 <_close+0x70>
   1303c:	e2453001 	sub	r3, r5, #1
   13040:	e3530001 	cmp	r3, #1
   13044:	9a000008 	bls	1306c <_close+0x44>
   13048:	e3a00002 	mov	r0, #2
   1304c:	e1a01004 	mov	r1, r4
   13050:	ef123456 	svc	0x00123456
   13054:	e3500000 	cmp	r0, #0
   13058:	03e03000 	mvneq	r3, #0
   1305c:	05843000 	streq	r3, [r4]
   13060:	eb00010a 	bl	13490 <__cs3_checkerror>
   13064:	e8bd4038 	pop	{r3, r4, r5, lr}
   13068:	e12fff1e 	bx	lr
   1306c:	e3550001 	cmp	r5, #1
   13070:	13e03007 	mvnne	r3, #7
   13074:	03a03008 	moveq	r3, #8
   13078:	e7943003 	ldr	r3, [r4, r3]
   1307c:	e5942000 	ldr	r2, [r4]
   13080:	e1520003 	cmp	r2, r3
   13084:	03e03000 	mvneq	r3, #0
   13088:	05843000 	streq	r3, [r4]
   1308c:	03a00000 	moveq	r0, #0
   13090:	1affffec 	bne	13048 <_close+0x20>
   13094:	eafffff2 	b	13064 <_close+0x3c>
   13098:	e3e00000 	mvn	r0, #0
   1309c:	eafffff0 	b	13064 <_close+0x3c>

000130a0 <_exit>:
   130a0:	e52de004 	push	{lr}		; (str lr, [sp, #-4]!)
   130a4:	e3a00018 	mov	r0, #24
   130a8:	e59f1004 	ldr	r1, [pc, #4]	; 130b4 <_exit+0x14>
   130ac:	ef123456 	svc	0x00123456
   130b0:	eafffffe 	b	130b0 <_exit+0x10>
   130b4:	00020026 	.word	0x00020026

000130b8 <_fstat>:
   130b8:	e92d4038 	push	{r3, r4, r5, lr}
   130bc:	e1a04001 	mov	r4, r1
   130c0:	eb0000c4 	bl	133d8 <__cs3_openslot>
   130c4:	e2505000 	subs	r5, r0, #0
   130c8:	0a000010 	beq	13110 <_fstat+0x58>
   130cc:	e1a00004 	mov	r0, r4
   130d0:	e3a01000 	mov	r1, #0
   130d4:	e3a0203c 	mov	r2, #60	; 0x3c
   130d8:	ebffd5b1 	bl	87a4 <memset>
   130dc:	e3a03a02 	mov	r3, #8192	; 0x2000
   130e0:	e5843004 	str	r3, [r4, #4]
   130e4:	e3a03b01 	mov	r3, #1024	; 0x400
   130e8:	e584302c 	str	r3, [r4, #44]	; 0x2c
   130ec:	e3a0000c 	mov	r0, #12
   130f0:	e1a01005 	mov	r1, r5
   130f4:	ef123456 	svc	0x00123456
   130f8:	e3700001 	cmn	r0, #1
   130fc:	15840010 	strne	r0, [r4, #16]
   13100:	13a00000 	movne	r0, #0
   13104:	eb0000e1 	bl	13490 <__cs3_checkerror>
   13108:	e8bd4038 	pop	{r3, r4, r5, lr}
   1310c:	e12fff1e 	bx	lr
   13110:	e3e00000 	mvn	r0, #0
   13114:	eafffffb 	b	13108 <_fstat+0x50>

00013118 <_isatty>:
   13118:	e92d4008 	push	{r3, lr}
   1311c:	eb0000ad 	bl	133d8 <__cs3_openslot>
   13120:	e2501000 	subs	r1, r0, #0
   13124:	01a00001 	moveq	r0, r1
   13128:	0a000002 	beq	13138 <_isatty+0x20>
   1312c:	e3a00009 	mov	r0, #9
   13130:	ef123456 	svc	0x00123456
   13134:	eb0000d5 	bl	13490 <__cs3_checkerror>
   13138:	e8bd4008 	pop	{r3, lr}
   1313c:	e12fff1e 	bx	lr

00013140 <_lseek>:
   13140:	e92d4070 	push	{r4, r5, r6, lr}
   13144:	e24dd008 	sub	sp, sp, #8
   13148:	e1a04001 	mov	r4, r1
   1314c:	e1a05002 	mov	r5, r2
   13150:	eb0000a0 	bl	133d8 <__cs3_openslot>
   13154:	e2506000 	subs	r6, r0, #0
   13158:	0a000022 	beq	131e8 <_lseek+0xa8>
   1315c:	e3550001 	cmp	r5, #1
   13160:	0a00001d 	beq	131dc <_lseek+0x9c>
   13164:	e3550002 	cmp	r5, #2
   13168:	0a000014 	beq	131c0 <_lseek+0x80>
   1316c:	e3550000 	cmp	r5, #0
   13170:	1a00000d 	bne	131ac <_lseek+0x6c>
   13174:	e5963000 	ldr	r3, [r6]
   13178:	e3540000 	cmp	r4, #0
   1317c:	e88d0018 	stm	sp, {r3, r4}
   13180:	ba000009 	blt	131ac <_lseek+0x6c>
   13184:	e3a0000a 	mov	r0, #10
   13188:	e1a0100d 	mov	r1, sp
   1318c:	ef123456 	svc	0x00123456
   13190:	e3700001 	cmn	r0, #1
   13194:	15864004 	strne	r4, [r6, #4]
   13198:	11a00004 	movne	r0, r4
   1319c:	eb0000bb 	bl	13490 <__cs3_checkerror>
   131a0:	e28dd008 	add	sp, sp, #8
   131a4:	e8bd4070 	pop	{r4, r5, r6, lr}
   131a8:	e12fff1e 	bx	lr
   131ac:	eb00012e 	bl	1366c <__errno>
   131b0:	e3a03016 	mov	r3, #22
   131b4:	e5803000 	str	r3, [r0]
   131b8:	e3e00000 	mvn	r0, #0
   131bc:	eafffff7 	b	131a0 <_lseek+0x60>
   131c0:	e3a0000c 	mov	r0, #12
   131c4:	e1a01006 	mov	r1, r6
   131c8:	ef123456 	svc	0x00123456
   131cc:	e3700001 	cmn	r0, #1
   131d0:	10844000 	addne	r4, r4, r0
   131d4:	1affffe6 	bne	13174 <_lseek+0x34>
   131d8:	eaffffef 	b	1319c <_lseek+0x5c>
   131dc:	e5963004 	ldr	r3, [r6, #4]
   131e0:	e0844003 	add	r4, r4, r3
   131e4:	eaffffe2 	b	13174 <_lseek+0x34>
   131e8:	e3e00000 	mvn	r0, #0
   131ec:	eaffffeb 	b	131a0 <_lseek+0x60>

000131f0 <_read>:
   131f0:	e92d4070 	push	{r4, r5, r6, lr}
   131f4:	e24dd010 	sub	sp, sp, #16
   131f8:	e1a06001 	mov	r6, r1
   131fc:	e1a05002 	mov	r5, r2
   13200:	eb000074 	bl	133d8 <__cs3_openslot>
   13204:	e2504000 	subs	r4, r0, #0
   13208:	0a00000e 	beq	13248 <_read+0x58>
   1320c:	e5943000 	ldr	r3, [r4]
   13210:	e98d0048 	stmib	sp, {r3, r6}
   13214:	e58d500c 	str	r5, [sp, #12]
   13218:	e3a00006 	mov	r0, #6
   1321c:	e28d1004 	add	r1, sp, #4
   13220:	ef123456 	svc	0x00123456
   13224:	e3700001 	cmn	r0, #1
   13228:	15943004 	ldrne	r3, [r4, #4]
   1322c:	10600005 	rsbne	r0, r0, r5
   13230:	10833000 	addne	r3, r3, r0
   13234:	15843004 	strne	r3, [r4, #4]
   13238:	eb000094 	bl	13490 <__cs3_checkerror>
   1323c:	e28dd010 	add	sp, sp, #16
   13240:	e8bd4070 	pop	{r4, r5, r6, lr}
   13244:	e12fff1e 	bx	lr
   13248:	e3e00000 	mvn	r0, #0
   1324c:	eafffffa 	b	1323c <_read+0x4c>

00013250 <_write>:
   13250:	e92d4070 	push	{r4, r5, r6, lr}
   13254:	e24dd010 	sub	sp, sp, #16
   13258:	e1a06001 	mov	r6, r1
   1325c:	e1a05002 	mov	r5, r2
   13260:	eb00005c 	bl	133d8 <__cs3_openslot>
   13264:	e2504000 	subs	r4, r0, #0
   13268:	0a00000e 	beq	132a8 <_write+0x58>
   1326c:	e5943000 	ldr	r3, [r4]
   13270:	e98d0048 	stmib	sp, {r3, r6}
   13274:	e58d500c 	str	r5, [sp, #12]
   13278:	e3a00005 	mov	r0, #5
   1327c:	e28d1004 	add	r1, sp, #4
   13280:	ef123456 	svc	0x00123456
   13284:	e3700001 	cmn	r0, #1
   13288:	15943004 	ldrne	r3, [r4, #4]
   1328c:	10600005 	rsbne	r0, r0, r5
   13290:	10833000 	addne	r3, r3, r0
   13294:	15843004 	strne	r3, [r4, #4]
   13298:	eb00007c 	bl	13490 <__cs3_checkerror>
   1329c:	e28dd010 	add	sp, sp, #16
   132a0:	e8bd4070 	pop	{r4, r5, r6, lr}
   132a4:	e12fff1e 	bx	lr
   132a8:	e3e00000 	mvn	r0, #0
   132ac:	eafffffa 	b	1329c <_write+0x4c>

000132b0 <_sbrk>:
   132b0:	e92d4008 	push	{r3, lr}
   132b4:	e59f305c 	ldr	r3, [pc, #92]	; 13318 <_sbrk+0x68>
   132b8:	e59f105c 	ldr	r1, [pc, #92]	; 1331c <_sbrk+0x6c>
   132bc:	e5932000 	ldr	r2, [r3]
   132c0:	e5913000 	ldr	r3, [r1]
   132c4:	e3520000 	cmp	r2, #0
   132c8:	e0830000 	add	r0, r3, r0
   132cc:	0a000002 	beq	132dc <_sbrk+0x2c>
   132d0:	e0602002 	rsb	r2, r0, r2
   132d4:	e3520000 	cmp	r2, #0
   132d8:	ba000009 	blt	13304 <_sbrk+0x54>
   132dc:	e04d2003 	sub	r2, sp, r3
   132e0:	e3520000 	cmp	r2, #0
   132e4:	ba000002 	blt	132f4 <_sbrk+0x44>
   132e8:	e04d2000 	sub	r2, sp, r0
   132ec:	e35200ff 	cmp	r2, #255	; 0xff
   132f0:	da000003 	ble	13304 <_sbrk+0x54>
   132f4:	e5810000 	str	r0, [r1]
   132f8:	e1a00003 	mov	r0, r3
   132fc:	e8bd4008 	pop	{r3, lr}
   13300:	e12fff1e 	bx	lr
   13304:	eb0000d8 	bl	1366c <__errno>
   13308:	e3a0300c 	mov	r3, #12
   1330c:	e5803000 	str	r3, [r0]
   13310:	e3e03000 	mvn	r3, #0
   13314:	eafffff7 	b	132f8 <_sbrk+0x48>
   13318:	000144f0 	.word	0x000144f0
   1331c:	000144f4 	.word	0x000144f4

00013320 <initialize_monitor_handles.part.0>:
   13320:	e92d40f0 	push	{r4, r5, r6, r7, lr}
   13324:	e59f50a4 	ldr	r5, [pc, #164]	; 133d0 <initialize_monitor_handles.part.0+0xb0>
   13328:	e24dd014 	sub	sp, sp, #20
   1332c:	e3a03000 	mov	r3, #0
   13330:	e3e02000 	mvn	r2, #0
   13334:	e7852003 	str	r2, [r5, r3]
   13338:	e2833008 	add	r3, r3, #8
   1333c:	e35300a0 	cmp	r3, #160	; 0xa0
   13340:	e59f4088 	ldr	r4, [pc, #136]	; 133d0 <initialize_monitor_handles.part.0+0xb0>
   13344:	1afffffa 	bne	13334 <initialize_monitor_handles.part.0+0x14>
   13348:	e59f7084 	ldr	r7, [pc, #132]	; 133d4 <initialize_monitor_handles.part.0+0xb4>
   1334c:	e3a06003 	mov	r6, #3
   13350:	e3a03000 	mov	r3, #0
   13354:	e58d7004 	str	r7, [sp, #4]
   13358:	e58d600c 	str	r6, [sp, #12]
   1335c:	e58d3008 	str	r3, [sp, #8]
   13360:	e3a00001 	mov	r0, #1
   13364:	e28d1004 	add	r1, sp, #4
   13368:	ef123456 	svc	0x00123456
   1336c:	e3a03004 	mov	r3, #4
   13370:	e5840000 	str	r0, [r4]
   13374:	e58d7004 	str	r7, [sp, #4]
   13378:	e58d600c 	str	r6, [sp, #12]
   1337c:	e58d3008 	str	r3, [sp, #8]
   13380:	e3a00001 	mov	r0, #1
   13384:	e08d1003 	add	r1, sp, r3
   13388:	ef123456 	svc	0x00123456
   1338c:	e3a03008 	mov	r3, #8
   13390:	e5840008 	str	r0, [r4, #8]
   13394:	e58d7004 	str	r7, [sp, #4]
   13398:	e58d600c 	str	r6, [sp, #12]
   1339c:	e58d3008 	str	r3, [sp, #8]
   133a0:	e3a00001 	mov	r0, #1
   133a4:	e28d1004 	add	r1, sp, #4
   133a8:	ef123456 	svc	0x00123456
   133ac:	e3700001 	cmn	r0, #1
   133b0:	05943008 	ldreq	r3, [r4, #8]
   133b4:	e5840010 	str	r0, [r4, #16]
   133b8:	05843010 	streq	r3, [r4, #16]
   133bc:	e3a03001 	mov	r3, #1
   133c0:	e58530a0 	str	r3, [r5, #160]	; 0xa0
   133c4:	e28dd014 	add	sp, sp, #20
   133c8:	e8bd40f0 	pop	{r4, r5, r6, r7, lr}
   133cc:	e12fff1e 	bx	lr
   133d0:	00014658 	.word	0x00014658
   133d4:	00013b9c 	.word	0x00013b9c

000133d8 <__cs3_openslot>:
   133d8:	e92d4038 	push	{r3, r4, r5, lr}
   133dc:	e59f5044 	ldr	r5, [pc, #68]	; 13428 <__cs3_openslot+0x50>
   133e0:	e59530a0 	ldr	r3, [r5, #160]	; 0xa0
   133e4:	e3530000 	cmp	r3, #0
   133e8:	e1a04000 	mov	r4, r0
   133ec:	0bffffcb 	bleq	13320 <initialize_monitor_handles.part.0>
   133f0:	e3540013 	cmp	r4, #19
   133f4:	8a000006 	bhi	13414 <__cs3_openslot+0x3c>
   133f8:	e7953184 	ldr	r3, [r5, r4, lsl #3]
   133fc:	e3730001 	cmn	r3, #1
   13400:	159f0020 	ldrne	r0, [pc, #32]	; 13428 <__cs3_openslot+0x50>
   13404:	10800184 	addne	r0, r0, r4, lsl #3
   13408:	0a000001 	beq	13414 <__cs3_openslot+0x3c>
   1340c:	e8bd4038 	pop	{r3, r4, r5, lr}
   13410:	e12fff1e 	bx	lr
   13414:	eb000094 	bl	1366c <__errno>
   13418:	e3a03009 	mov	r3, #9
   1341c:	e5803000 	str	r3, [r0]
   13420:	e3a00000 	mov	r0, #0
   13424:	eafffff8 	b	1340c <__cs3_openslot+0x34>
   13428:	00014658 	.word	0x00014658

0001342c <__cs3_newslot>:
   1342c:	e92d4038 	push	{r3, r4, r5, lr}
   13430:	e59f4054 	ldr	r4, [pc, #84]	; 1348c <__cs3_newslot+0x60>
   13434:	e59430a0 	ldr	r3, [r4, #160]	; 0xa0
   13438:	e3530000 	cmp	r3, #0
   1343c:	e1a05000 	mov	r5, r0
   13440:	0bffffb6 	bleq	13320 <initialize_monitor_handles.part.0>
   13444:	e3a03000 	mov	r3, #0
   13448:	e7942183 	ldr	r2, [r4, r3, lsl #3]
   1344c:	e3720001 	cmn	r2, #1
   13450:	e1a02183 	lsl	r2, r3, #3
   13454:	0a000008 	beq	1347c <__cs3_newslot+0x50>
   13458:	e2833001 	add	r3, r3, #1
   1345c:	e3530014 	cmp	r3, #20
   13460:	1afffff8 	bne	13448 <__cs3_newslot+0x1c>
   13464:	eb000080 	bl	1366c <__errno>
   13468:	e3a03018 	mov	r3, #24
   1346c:	e5803000 	str	r3, [r0]
   13470:	e3a00000 	mov	r0, #0
   13474:	e8bd4038 	pop	{r3, r4, r5, lr}
   13478:	e12fff1e 	bx	lr
   1347c:	e59f0008 	ldr	r0, [pc, #8]	; 1348c <__cs3_newslot+0x60>
   13480:	e5853000 	str	r3, [r5]
   13484:	e0800002 	add	r0, r0, r2
   13488:	eafffff9 	b	13474 <__cs3_newslot+0x48>
   1348c:	00014658 	.word	0x00014658

00013490 <__cs3_checkerror>:
   13490:	e3700001 	cmn	r0, #1
   13494:	e92d4038 	push	{r3, r4, r5, lr}
   13498:	e1a04000 	mov	r4, r0
   1349c:	0a000002 	beq	134ac <__cs3_checkerror+0x1c>
   134a0:	e1a00004 	mov	r0, r4
   134a4:	e8bd4038 	pop	{r3, r4, r5, lr}
   134a8:	e12fff1e 	bx	lr
   134ac:	eb00006e 	bl	1366c <__errno>
   134b0:	e3a01000 	mov	r1, #0
   134b4:	e1a05000 	mov	r5, r0
   134b8:	e3a00013 	mov	r0, #19
   134bc:	ef123456 	svc	0x00123456
   134c0:	e5850000 	str	r0, [r5]
   134c4:	eafffff5 	b	134a0 <__cs3_checkerror+0x10>

000134c8 <initialize_argv>:
   134c8:	e92d47f0 	push	{r4, r5, r6, r7, r8, r9, r10, lr}
   134cc:	e3a00c01 	mov	r0, #256	; 0x100
   134d0:	e24dd008 	sub	sp, sp, #8
   134d4:	ebffff75 	bl	132b0 <_sbrk>
   134d8:	e3700001 	cmn	r0, #1
   134dc:	e1a07000 	mov	r7, r0
   134e0:	0a000039 	beq	135cc <initialize_argv+0x104>
   134e4:	e3a05000 	mov	r5, #0
   134e8:	e3a03c01 	mov	r3, #256	; 0x100
   134ec:	e5c05000 	strb	r5, [r0]
   134f0:	e1a0100d 	mov	r1, sp
   134f4:	e3a00015 	mov	r0, #21
   134f8:	e58d7000 	str	r7, [sp]
   134fc:	e58d3004 	str	r3, [sp, #4]
   13500:	ef123456 	svc	0x00123456
   13504:	e59f8140 	ldr	r8, [pc, #320]	; 1364c <initialize_argv+0x184>
   13508:	e1a00005 	mov	r0, r5
   1350c:	e3a09001 	mov	r9, #1
   13510:	e1a0a005 	mov	r10, r5
   13514:	e588a0a4 	str	r10, [r8, #164]	; 0xa4
   13518:	e1a0c007 	mov	r12, r7
   1351c:	e1a04007 	mov	r4, r7
   13520:	e3a06000 	mov	r6, #0
   13524:	e5d41000 	ldrb	r1, [r4]
   13528:	e3510000 	cmp	r1, #0
   1352c:	0a00001d 	beq	135a8 <initialize_argv+0xe0>
   13530:	e3560000 	cmp	r6, #0
   13534:	e2842001 	add	r2, r4, #1
   13538:	1a000006 	bne	13558 <initialize_argv+0x90>
   1353c:	e3500000 	cmp	r0, #0
   13540:	159830a4 	ldrne	r3, [r8, #164]	; 0xa4
   13544:	1780c103 	strne	r12, [r0, r3, lsl #2]
   13548:	e59830a4 	ldr	r3, [r8, #164]	; 0xa4
   1354c:	e2833001 	add	r3, r3, #1
   13550:	e58830a4 	str	r3, [r8, #164]	; 0xa4
   13554:	e3a06001 	mov	r6, #1
   13558:	e3510020 	cmp	r1, #32
   1355c:	0a000022 	beq	135ec <initialize_argv+0x124>
   13560:	e3510022 	cmp	r1, #34	; 0x22
   13564:	13510027 	cmpne	r1, #39	; 0x27
   13568:	1a00001a 	bne	135d8 <initialize_argv+0x110>
   1356c:	e5d43001 	ldrb	r3, [r4, #1]
   13570:	e3530000 	cmp	r3, #0
   13574:	0a000032 	beq	13644 <initialize_argv+0x17c>
   13578:	e1510003 	cmp	r1, r3
   1357c:	0a00001f 	beq	13600 <initialize_argv+0x138>
   13580:	e2842002 	add	r2, r4, #2
   13584:	ea000001 	b	13590 <initialize_argv+0xc8>
   13588:	e1510003 	cmp	r1, r3
   1358c:	0a00001c 	beq	13604 <initialize_argv+0x13c>
   13590:	e3500000 	cmp	r0, #0
   13594:	14cc3001 	strbne	r3, [r12], #1
   13598:	e1a04002 	mov	r4, r2
   1359c:	e4d23001 	ldrb	r3, [r2], #1
   135a0:	e3530000 	cmp	r3, #0
   135a4:	1afffff7 	bne	13588 <initialize_argv+0xc0>
   135a8:	e3590001 	cmp	r9, #1
   135ac:	0a000016 	beq	1360c <initialize_argv+0x144>
   135b0:	e3590002 	cmp	r9, #2
   135b4:	1a000020 	bne	1363c <initialize_argv+0x174>
   135b8:	e3a03000 	mov	r3, #0
   135bc:	e5cc3000 	strb	r3, [r12]
   135c0:	e59820a4 	ldr	r2, [r8, #164]	; 0xa4
   135c4:	e7803102 	str	r3, [r0, r2, lsl #2]
   135c8:	e58800a8 	str	r0, [r8, #168]	; 0xa8
   135cc:	e28dd008 	add	sp, sp, #8
   135d0:	e8bd47f0 	pop	{r4, r5, r6, r7, r8, r9, r10, lr}
   135d4:	e12fff1e 	bx	lr
   135d8:	e3500000 	cmp	r0, #0
   135dc:	01a04002 	moveq	r4, r2
   135e0:	14cc1001 	strbne	r1, [r12], #1
   135e4:	11a04002 	movne	r4, r2
   135e8:	eaffffcd 	b	13524 <initialize_argv+0x5c>
   135ec:	e3500000 	cmp	r0, #0
   135f0:	14cca001 	strbne	r10, [r12], #1
   135f4:	e1a04002 	mov	r4, r2
   135f8:	e3a06000 	mov	r6, #0
   135fc:	eaffffc8 	b	13524 <initialize_argv+0x5c>
   13600:	e1a04002 	mov	r4, r2
   13604:	e2844001 	add	r4, r4, #1
   13608:	eaffffc5 	b	13524 <initialize_argv+0x5c>
   1360c:	e0670004 	rsb	r0, r7, r4
   13610:	e2800010 	add	r0, r0, #16
   13614:	e3c0000f 	bic	r0, r0, #15
   13618:	e2400c01 	sub	r0, r0, #256	; 0x100
   1361c:	ebffff23 	bl	132b0 <_sbrk>
   13620:	e59800a4 	ldr	r0, [r8, #164]	; 0xa4
   13624:	e2800004 	add	r0, r0, #4
   13628:	e3c00003 	bic	r0, r0, #3
   1362c:	e1a00100 	lsl	r0, r0, #2
   13630:	ebffff1e 	bl	132b0 <_sbrk>
   13634:	e3700001 	cmn	r0, #1
   13638:	0affffe3 	beq	135cc <initialize_argv+0x104>
   1363c:	e2899001 	add	r9, r9, #1
   13640:	eaffffb3 	b	13514 <initialize_argv+0x4c>
   13644:	e1a04002 	mov	r4, r2
   13648:	eaffffd6 	b	135a8 <initialize_argv+0xe0>
   1364c:	00014658 	.word	0x00014658

00013650 <__cs3_isr_interrupt>:
   13650:	eafffffe 	b	13650 <__cs3_isr_interrupt>

00013654 <__cs3_isr_undef>:
   13654:	eafffffe 	b	13654 <__cs3_isr_undef>

00013658 <__cs3_isr_swi>:
   13658:	eafffffe 	b	13658 <__cs3_isr_swi>

0001365c <__cs3_isr_pabort>:
   1365c:	eafffffe 	b	1365c <__cs3_isr_pabort>

00013660 <__cs3_isr_dabort>:
   13660:	eafffffe 	b	13660 <__cs3_isr_dabort>

00013664 <__cs3_isr_irq>:
   13664:	eafffffe 	b	13664 <__cs3_isr_irq>

00013668 <__cs3_isr_fiq>:
   13668:	eafffffe 	b	13668 <__cs3_isr_fiq>

0001366c <__errno>:
   1366c:	e59f3004 	ldr	r3, [pc, #4]	; 13678 <__errno+0xc>
   13670:	e5930000 	ldr	r0, [r3]
   13674:	e12fff1e 	bx	lr
   13678:	00013c00 	.word	0x00013c00

0001367c <__libc_init_array>:
   1367c:	e92d4070 	push	{r4, r5, r6, lr}
   13680:	e59f506c 	ldr	r5, [pc, #108]	; 136f4 <__libc_init_array+0x78>
   13684:	e59f606c 	ldr	r6, [pc, #108]	; 136f8 <__libc_init_array+0x7c>
   13688:	e0656006 	rsb	r6, r5, r6
   1368c:	e1b06146 	asrs	r6, r6, #2
   13690:	12455004 	subne	r5, r5, #4
   13694:	13a04000 	movne	r4, #0
   13698:	0a000005 	beq	136b4 <__libc_init_array+0x38>
   1369c:	e5b53004 	ldr	r3, [r5, #4]!
   136a0:	e2844001 	add	r4, r4, #1
   136a4:	e1a0e00f 	mov	lr, pc
   136a8:	e12fff13 	bx	r3
   136ac:	e1560004 	cmp	r6, r4
   136b0:	1afffff9 	bne	1369c <__libc_init_array+0x20>
   136b4:	e59f5040 	ldr	r5, [pc, #64]	; 136fc <__libc_init_array+0x80>
   136b8:	e59f6040 	ldr	r6, [pc, #64]	; 13700 <__libc_init_array+0x84>
   136bc:	e0656006 	rsb	r6, r5, r6
   136c0:	eb000136 	bl	13ba0 <_init>
   136c4:	e1b06146 	asrs	r6, r6, #2
   136c8:	12455004 	subne	r5, r5, #4
   136cc:	13a04000 	movne	r4, #0
   136d0:	0a000005 	beq	136ec <__libc_init_array+0x70>
   136d4:	e5b53004 	ldr	r3, [r5, #4]!
   136d8:	e2844001 	add	r4, r4, #1
   136dc:	e1a0e00f 	mov	lr, pc
   136e0:	e12fff13 	bx	r3
   136e4:	e1560004 	cmp	r6, r4
   136e8:	1afffff9 	bne	136d4 <__libc_init_array+0x58>
   136ec:	e8bd4070 	pop	{r4, r5, r6, lr}
   136f0:	e12fff1e 	bx	lr
   136f4:	00013bb8 	.word	0x00013bb8
   136f8:	00013bb8 	.word	0x00013bb8
   136fc:	00013bb8 	.word	0x00013bb8
   13700:	00013bc4 	.word	0x00013bc4

Disassembly of section .rodata:

00013710 <done_64>:
   13710:	0820000d                                .. .

00013714 <output_64>:
   13714:	08200010                                .. .

00013718 <param_b_64_lo>:
   13718:	08200018                                .. .

0001371c <param_b_64_hi>:
   1371c:	0820001c                                .. .

00013720 <param_a_64_lo>:
   13720:	08200020                                 . .

00013724 <param_a_64_hi>:
   13724:	08200024                                $. .

00013728 <done_32>:
   13728:	ff20001c                                .. .

0001372c <output_32>:
   1372c:	ff200010                                .. .

00013730 <param_b_32>:
   13730:	ff200014                                .. .

00013734 <param_a_32>:
   13734:	ff200018                                .. .

00013738 <TIMER_CONTROL>:
   13738:	fffec608                                ....

0001373c <TIMER_SNAPSHOT>:
   1373c:	fffec604                                ....

00013740 <TIMER_START_VAL>:
   13740:	fffec600 6f203233 34362072 74696220     ....32 or 64 bit
   13750:	44434720 00203a3f 00006425 65746e45      GCD?: .%d..Ente
   13760:	6e612072 736e7520 656e6769 32332064     r an unsigned 32
   13770:	74696220 6d756e20 20726562 20726f66      bit number for 
   13780:	20676572 00203a41 00007525 65746e45     reg A: .%u..Ente
   13790:	6e612072 736e7520 656e6769 32332064     r an unsigned 32
   137a0:	74696220 6d756e20 20726562 20726f66      bit number for 
   137b0:	20676572 00203a42 6765420a 73206e69     reg B: ..Begin s
   137c0:	7774666f 20657261 3a666367 00000000     oftware gcf:....
   137d0:	20444347 7525203d 0000000a 656d6954     GCD = %u....Time
   137e0:	2e25203a 73756633 00000a0a 6765420a     : %.3fus.....Beg
   137f0:	68206e69 77647261 20657261 3a666367     in hardware gcf:
   13800:	00000000                                ....

00013804 <_global_impure_ptr>:
   13804:	00013c08 00000043                       .<..C...

0001380c <blanks.6742>:
   1380c:	20202020 20202020 20202020 20202020                     

0001381c <zeroes.6743>:
   1381c:	30303030 30303030 30303030 30303030     0000000000000000
   1382c:	00464e49 00666e69 004e414e 006e616e     INF.inf.NAN.nan.
   1383c:	33323130 37363534 42413938 46454443     0123456789ABCDEF
   1384c:	00000000 33323130 37363534 62613938     ....0123456789ab
   1385c:	66656463 00000000 6c756e28 0000296c     cdef....(null)..
   1386c:	00000030                                0...

00013870 <basefix.6660>:
   13870:	0001000a 00030002 00050004 00070006     ................
   13880:	00090008 000b000a 000d000c 000f000e     ................
   13890:	00000010 646c2565 00000000              ....e%ld....

0001389c <_ctype_>:
   1389c:	20202000 20202020 28282020 20282828     .         ((((( 
   138ac:	20202020 20202020 20202020 20202020                     
   138bc:	10108820 10101010 10101010 10101010      ...............
   138cc:	04040410 04040404 10040404 10101010     ................
   138dc:	41411010 41414141 01010101 01010101     ..AAAAAA........
   138ec:	01010101 01010101 01010101 10101010     ................
   138fc:	42421010 42424242 02020202 02020202     ..BBBBBB........
   1390c:	02020202 02020202 02020202 10101010     ................
   1391c:	00000020 00000000 00000000 00000000      ...............
	...
   139a0:	69666e49 7974696e 00000000 004e614e     Infinity....NaN.
   139b0:	49534f50 00000058 0000002e 00000000     POSIX...........

000139c0 <p05.5249>:
   139c0:	00000005 00000019 0000007d 00000000     ........}.......

000139d0 <__mprec_tens>:
   139d0:	00000000 3ff00000 00000000 40240000     .......?......$@
   139e0:	00000000 40590000 00000000 408f4000     ......Y@.....@.@
   139f0:	00000000 40c38800 00000000 40f86a00     .......@.....j.@
   13a00:	00000000 412e8480 00000000 416312d0     .......A......cA
   13a10:	00000000 4197d784 00000000 41cdcd65     .......A....e..A
   13a20:	20000000 4202a05f e8000000 42374876     ... _..B....vH7B
   13a30:	a2000000 426d1a94 e5400000 42a2309c     ......mB..@..0.B
   13a40:	1e900000 42d6bcc4 26340000 430c6bf5     .......B..4&.k.C
   13a50:	37e08000 4341c379 85d8a000 43763457     ...7y.AC....W4vC
   13a60:	674ec800 43abc16d 60913d00 43e158e4     ..Ngm..C.=.`.X.C
   13a70:	78b58c40 4415af1d d6e2ef50 444b1ae4     @..x...DP.....KD
   13a80:	064dd592 4480f0cf c7e14af6 44b52d02     ..M....D.J...-.D
   13a90:	79d99db4 44ea7843                       ...yCx.D

00013a98 <__mprec_tinytens>:
   13a98:	97d889bc 3c9cd2b2 d5a8a733 3949f623     .......<3...#.I9
   13aa8:	44f4a73d 32a50ffd cf8c979d 255bba08     =..D...2......[%
   13ab8:	64ac6f43 0ac80628                       Co.d(...

00013ac0 <__mprec_bigtens>:
   13ac0:	37e08000 4341c379 b5056e17 4693b8b5     ...7y.AC.n.....F
   13ad0:	e93ff9f5 4d384f03 f9301d32 5a827748     ..?..O8M2.0.Hw.Z
   13ae0:	7f73bf3c 75154fdd                       <.s..O.u

00013ae8 <tinytens>:
   13ae8:	97d889bc 3c9cd2b2 d5a8a733 3949f623     .......<3...#.I9
   13af8:	44f4a73d 32a50ffd cf8c979d 255bba08     =..D...2......[%
   13b08:	64ac6f43 0e180628 0000666e 74696e69     Co.d(...nf..init
   13b18:	00000079 00006e61                       y...an..

00013b20 <blanks.6727>:
   13b20:	20202020 20202020 20202020 20202020                     

00013b30 <zeroes.6728>:
   13b30:	30303030 30303030 30303030 30303030     0000000000000000

00013b40 <blanks.6685>:
   13b40:	20202020 20202020 20202020 20202020                     

00013b50 <zeroes.6686>:
   13b50:	30303030 30303030 30303030 30303030     0000000000000000
   13b60:	44434241 00004645 64636261 00006665     ABCDEF..abcdef..
   13b70:	33323130 37363534 00003938              0123456789..

00013b7c <blanks.6671>:
   13b7c:	20202020 20202020 20202020 20202020                     

00013b8c <zeroes.6672>:
   13b8c:	30303030 30303030 30303030 30303030     0000000000000000
   13b9c:	0074743a                                :tt.

00013ba0 <_init>:
   13ba0:	e1a0c00d 	mov	r12, sp
   13ba4:	e92ddff8 	push	{r3, r4, r5, r6, r7, r8, r9, r10, r11, r12, lr, pc}
   13ba8:	e24cb004 	sub	r11, r12, #4
   13bac:	e24bd028 	sub	sp, r11, #40	; 0x28
   13bb0:	e89d6ff0 	ldm	sp, {r4, r5, r6, r7, r8, r9, r10, r11, sp, lr}
   13bb4:	e12fff1e 	bx	lr

00013bb8 <__init_array_start>:
   13bb8:	00004e40 	.word	0x00004e40

00013bbc <__frame_dummy_init_array_entry>:
   13bbc:	00000208 000134c8                       .....4..

00013bc4 <__libc_fini>:
   13bc4:	e1a0c00d 	mov	r12, sp
   13bc8:	e92ddff8 	push	{r3, r4, r5, r6, r7, r8, r9, r10, r11, r12, lr, pc}
   13bcc:	e24cb004 	sub	r11, r12, #4
   13bd0:	e24bd028 	sub	sp, r11, #40	; 0x28
   13bd4:	e89d6ff0 	ldm	sp, {r4, r5, r6, r7, r8, r9, r10, r11, sp, lr}
   13bd8:	e12fff1e 	bx	lr

00013bdc <__fini_array_start>:
   13bdc:	000001c4 	.word	0x000001c4

00013be0 <__cs3_regions>:
	...
   13bec:	000144f8 	.word	0x000144f8
   13bf0:	00000210 	.word	0x00000210

00013bf4 <__cs3_regions_end>:
   13bf4:	00000000 	.word	0x00000000
