
C:/intelFPGA_lite/18.1/de1_soc_gcd_hardware/FPGA_monitor/de1_soc_gcd_hardware.axf:     file format elf32-littlearm


Disassembly of section .text:

00000000 <__cs3_interrupt_vector>:
       0:	18 f0 9f e5 18 f0 9f e5 18 f0 9f e5 18 f0 9f e5     ................
      10:	18 f0 9f e5 18 f0 9f e5 18 f0 9f e5 18 f0 9f e5     ................
      20:	40 00 00 00 bc 36 01 00 c0 36 01 00 c4 36 01 00     @....6...6...6..
      30:	c8 36 01 00 b8 36 01 00 cc 36 01 00 d0 36 01 00     .6...6...6...6..

00000040 <__cs3_reset>:
      40:	ea000026 	b	e0 <__cs3_start_asm_sim>

00000044 <__cs3_start_c>:
      44:	e59f608c 	ldr	r6, [pc, #140]	; d8 <__cs3_start_c+0x94>
      48:	e3560000 	cmp	r6, #0
      4c:	e92d4080 	push	{r7, lr}
      50:	e2466001 	sub	r6, r6, #1
      54:	0a00001e 	beq	d4 <__cs3_start_c+0x90>
      58:	e59f507c 	ldr	r5, [pc, #124]	; dc <__cs3_start_c+0x98>
      5c:	e3a00000 	mov	r0, #0
      60:	e3a01000 	mov	r1, #0
      64:	e515200c 	ldr	r2, [r5, #-12]
      68:	e515e010 	ldr	lr, [r5, #-16]
      6c:	e5154008 	ldr	r4, [r5, #-8]
      70:	e15e0002 	cmp	lr, r2
      74:	00822004 	addeq	r2, r2, r4
      78:	0a000009 	beq	a4 <__cs3_start_c+0x60>
      7c:	e3540000 	cmp	r4, #0
      80:	0a000007 	beq	a4 <__cs3_start_c+0x60>
      84:	e1a07002 	mov	r7, r2
      88:	e1a0c002 	mov	r12, r2
      8c:	e8be000c 	ldm	lr!, {r2, r3}
      90:	e8ac000c 	stmia	r12!, {r2, r3}
      94:	e067300c 	rsb	r3, r7, r12
      98:	e1540003 	cmp	r4, r3
      9c:	e1a0200c 	mov	r2, r12
      a0:	1afffff9 	bne	8c <__cs3_start_c+0x48>
      a4:	e515e004 	ldr	lr, [r5, #-4]
      a8:	e35e0000 	cmp	lr, #0
      ac:	11a03002 	movne	r3, r2
      b0:	0a000003 	beq	c4 <__cs3_start_c+0x80>
      b4:	e8a30003 	stmia	r3!, {r0, r1}
      b8:	e062c003 	rsb	r12, r2, r3
      bc:	e15e000c 	cmp	lr, r12
      c0:	1afffffb 	bne	b4 <__cs3_start_c+0x70>
      c4:	e2466001 	sub	r6, r6, #1
      c8:	e3760001 	cmn	r6, #1
      cc:	e2855014 	add	r5, r5, #20
      d0:	1affffe3 	bne	64 <__cs3_start_c+0x20>
      d4:	eb004bda 	bl	13044 <__cs3_premain>
      d8:	00000001 	.word	0x00000001
      dc:	00013c6c 	.word	0x00013c6c

000000e0 <__cs3_start_asm_sim>:
      e0:	e28f103c 	add	r1, pc, #60	; 0x3c
      e4:	e3a00016 	mov	r0, #22
      e8:	ef123456 	svc	0x00123456
      ec:	e3500000 	cmp	r0, #0
      f0:	ba000008 	blt	118 <__cs3_start_asm_sim+0x38>
      f4:	e59f2028 	ldr	r2, [pc, #40]	; 124 <__cs3_heap_start_ptr>
      f8:	e59fd01c 	ldr	sp, [pc, #28]	; 11c <__cs3_start_asm_sim+0x3c>
      fc:	e5920008 	ldr	r0, [r2, #8]
     100:	e3500000 	cmp	r0, #0
     104:	11a0d000 	movne	sp, r0
     108:	e59f1010 	ldr	r1, [pc, #16]	; 120 <__cs3_start_asm_sim+0x40>
     10c:	e5920004 	ldr	r0, [r2, #4]
     110:	e3500000 	cmp	r0, #0
     114:	15810000 	strne	r0, [r1]
     118:	eaffffc9 	b	44 <__cs3_start_c>
     11c:	3ffffff8 	.word	0x3ffffff8
     120:	00014568 	.word	0x00014568

00000124 <__cs3_heap_start_ptr>:
     124:	00014780 	.word	0x00014780

00000128 <_start>:
     128:	e51fd000 	ldr	sp, [pc, #-0]	; 130 <_start+0x8>
     12c:	eaffffc4 	b	44 <__cs3_start_c>
     130:	3ffffff8 	.word	0x3ffffff8

00000134 <deregister_tm_clones>:
     134:	e92d4008 	push	{r3, lr}
     138:	e59f002c 	ldr	r0, [pc, #44]	; 16c <deregister_tm_clones+0x38>
     13c:	e59f302c 	ldr	r3, [pc, #44]	; 170 <deregister_tm_clones+0x3c>
     140:	e0603003 	rsb	r3, r0, r3
     144:	e3530006 	cmp	r3, #6
     148:	8a000001 	bhi	154 <deregister_tm_clones+0x20>
     14c:	e8bd4008 	pop	{r3, lr}
     150:	e12fff1e 	bx	lr
     154:	e59f3018 	ldr	r3, [pc, #24]	; 174 <deregister_tm_clones+0x40>
     158:	e3530000 	cmp	r3, #0
     15c:	0afffffa 	beq	14c <deregister_tm_clones+0x18>
     160:	e1a0e00f 	mov	lr, pc
     164:	e12fff13 	bx	r3
     168:	eafffff7 	b	14c <deregister_tm_clones+0x18>
     16c:	00014570 	.word	0x00014570
     170:	00014573 	.word	0x00014573
     174:	00000000 	.word	0x00000000

00000178 <register_tm_clones>:
     178:	e92d4008 	push	{r3, lr}
     17c:	e59f0034 	ldr	r0, [pc, #52]	; 1b8 <register_tm_clones+0x40>
     180:	e59f3034 	ldr	r3, [pc, #52]	; 1bc <register_tm_clones+0x44>
     184:	e0603003 	rsb	r3, r0, r3
     188:	e1a03143 	asr	r3, r3, #2
     18c:	e0833fa3 	add	r3, r3, r3, lsr #31
     190:	e1b010c3 	asrs	r1, r3, #1
     194:	1a000001 	bne	1a0 <register_tm_clones+0x28>
     198:	e8bd4008 	pop	{r3, lr}
     19c:	e12fff1e 	bx	lr
     1a0:	e59f2018 	ldr	r2, [pc, #24]	; 1c0 <register_tm_clones+0x48>
     1a4:	e3520000 	cmp	r2, #0
     1a8:	0afffffa 	beq	198 <register_tm_clones+0x20>
     1ac:	e1a0e00f 	mov	lr, pc
     1b0:	e12fff12 	bx	r2
     1b4:	eafffff7 	b	198 <register_tm_clones+0x20>
     1b8:	00014570 	.word	0x00014570
     1bc:	00014570 	.word	0x00014570
     1c0:	00000000 	.word	0x00000000

000001c4 <__do_global_dtors_aux>:
     1c4:	e92d4010 	push	{r4, lr}
     1c8:	e59f402c 	ldr	r4, [pc, #44]	; 1fc <__do_global_dtors_aux+0x38>
     1cc:	e5d43000 	ldrb	r3, [r4]
     1d0:	e3530000 	cmp	r3, #0
     1d4:	1a000006 	bne	1f4 <__do_global_dtors_aux+0x30>
     1d8:	ebffffd5 	bl	134 <deregister_tm_clones>
     1dc:	e59f301c 	ldr	r3, [pc, #28]	; 200 <__do_global_dtors_aux+0x3c>
     1e0:	e3530000 	cmp	r3, #0
     1e4:	159f0018 	ldrne	r0, [pc, #24]	; 204 <__do_global_dtors_aux+0x40>
     1e8:	1320f000 	nopne	{0}
     1ec:	e3a03001 	mov	r3, #1
     1f0:	e5c43000 	strb	r3, [r4]
     1f4:	e8bd4010 	pop	{r4, lr}
     1f8:	e12fff1e 	bx	lr
     1fc:	00014570 	.word	0x00014570
     200:	00000000 	.word	0x00000000
     204:	0001376c 	.word	0x0001376c

00000208 <frame_dummy>:
     208:	e92d4008 	push	{r3, lr}
     20c:	e59f3034 	ldr	r3, [pc, #52]	; 248 <__cs3_region_zero_size_ram+0x38>
     210:	e3530000 	cmp	r3, #0
     214:	159f0030 	ldrne	r0, [pc, #48]	; 24c <__cs3_region_zero_size_ram+0x3c>
     218:	159f1030 	ldrne	r1, [pc, #48]	; 250 <__cs3_region_zero_size_ram+0x40>
     21c:	1320f000 	nopne	{0}
     220:	e59f002c 	ldr	r0, [pc, #44]	; 254 <__cs3_region_zero_size_ram+0x44>
     224:	e5903000 	ldr	r3, [r0]
     228:	e3530000 	cmp	r3, #0
     22c:	0a000003 	beq	240 <__cs3_region_zero_size_ram+0x30>
     230:	e59f3020 	ldr	r3, [pc, #32]	; 258 <__cs3_region_zero_size_ram+0x48>
     234:	e3530000 	cmp	r3, #0
     238:	11a0e00f 	movne	lr, pc
     23c:	112fff13 	bxne	r3
     240:	e8bd4008 	pop	{r3, lr}
     244:	eaffffcb 	b	178 <register_tm_clones>
     248:	00000000 	.word	0x00000000
     24c:	0001376c 	.word	0x0001376c
     250:	00014574 	.word	0x00014574
     254:	00013c70 	.word	0x00013c70
     258:	00000000 	.word	0x00000000

0000025c <start_timer>:
volatile uint8_t * const done_64 = (uint32_t *) 0x0820000D;


void start_timer(){
    //stop the timer
    *TIMER_CONTROL = 0x00000002;
     25c:	e3e03a13 	mvn	r3, #77824	; 0x13000
     260:	e3a02002 	mov	r2, #2
     264:	e50329f7 	str	r2, [r3, #-2551]	; 0xfffff609
    //set the timer interval to max
    *TIMER_START_VAL = 0xFFFFFFFF;
     268:	e3e02000 	mvn	r2, #0
     26c:	e50329ff 	str	r2, [r3, #-2559]	; 0xfffff601
    //start the timer
    *TIMER_CONTROL = 0x00000003;
     270:	e3a02003 	mov	r2, #3
     274:	e50329f7 	str	r2, [r3, #-2551]	; 0xfffff609
     278:	e12fff1e 	bx	lr

0000027c <get_elapsed_time>:
}

uint32_t get_elapsed_time(){
    //stop the timer
    *TIMER_CONTROL = 0x00000002;
     27c:	e3e03a13 	mvn	r3, #77824	; 0x13000
     280:	e3a02002 	mov	r2, #2
     284:	e50329f7 	str	r2, [r3, #-2551]	; 0xfffff609
    return (0xFFFFFFFF - *TIMER_SNAPSHOT);
     288:	e51309fb 	ldr	r0, [r3, #-2555]	; 0xfffff605
}
     28c:	e1e00000 	mvn	r0, r0
     290:	e12fff1e 	bx	lr

00000294 <get_GCF_32>:

uint32_t get_GCF_32(uint32_t a, uint32_t b) {

    // Swap if B > A
    if (a < b) {
     294:	e1500001 	cmp	r0, r1
     298:	31a03000 	movcc	r3, r0
        uint32_t temp = a;
        a = b;
     29c:	31a00001 	movcc	r0, r1
        b = temp;
     2a0:	31a01003 	movcc	r1, r3
     2a4:	3a000001 	bcc	2b0 <get_GCF_32+0x1c>
    }

    // Euclid's subtraction algorithm
    while (a != b) {
     2a8:	e1500001 	cmp	r0, r1
     2ac:	012fff1e 	bxeq	lr
        if (a > b) {
     2b0:	e1500001 	cmp	r0, r1
            a = a - b;
     2b4:	80610000 	rsbhi	r0, r1, r0
        } else {
            b = b - a;
     2b8:	90601001 	rsbls	r1, r0, r1
        a = b;
        b = temp;
    }

    // Euclid's subtraction algorithm
    while (a != b) {
     2bc:	e1500001 	cmp	r0, r1
     2c0:	1afffffa 	bne	2b0 <get_GCF_32+0x1c>
        } else {
            b = b - a;
        }
    }
    return a;
}
     2c4:	e12fff1e 	bx	lr

000002c8 <get_hw_GCF_32>:

uint32_t get_hw_GCF_32(uint32_t a, uint32_t b) {
     2c8:	e92d40f0 	push	{r4, r5, r6, r7, lr}
     2cc:	e24dd00c 	sub	sp, sp, #12
     2d0:	e1a07000 	mov	r7, r0
     2d4:	e1a06001 	mov	r6, r1

    printf("%u %u %u %u\n", *param_a_32, *param_b_32, *output_32, *done_32);
     2d8:	e3a04000 	mov	r4, #0
     2dc:	e5941018 	ldr	r1, [r4, #24]
     2e0:	e5942014 	ldr	r2, [r4, #20]
     2e4:	e5943000 	ldr	r3, [r4]
     2e8:	e5d4001c 	ldrb	r0, [r4, #28]
     2ec:	e30357ac 	movw	r5, #14252	; 0x37ac
     2f0:	e3405001 	movt	r5, #1
     2f4:	e58d0000 	str	r0, [sp]
     2f8:	e1a00005 	mov	r0, r5
     2fc:	eb000394 	bl	1154 <printf>

    *param_a_32 = a;
     300:	e5847018 	str	r7, [r4, #24]
    int i;
    for(i=0; i<5; i++){
        i = i;
    }

    *param_b_32 = b;
     304:	e5846014 	str	r6, [r4, #20]

    printf("%u %u %u %u\n", *param_a_32, *param_b_32, *output_32, *done_32);
     308:	e5941018 	ldr	r1, [r4, #24]
     30c:	e5942014 	ldr	r2, [r4, #20]
     310:	e5943000 	ldr	r3, [r4]
     314:	e5d4001c 	ldrb	r0, [r4, #28]
     318:	e58d0000 	str	r0, [sp]
     31c:	e1a00005 	mov	r0, r5
     320:	eb00038b 	bl	1154 <printf>

    while(*done_32 == 0){
     324:	e1a02004 	mov	r2, r4
     328:	e5d2301c 	ldrb	r3, [r2, #28]
     32c:	e3530000 	cmp	r3, #0
     330:	0afffffc 	beq	328 <get_hw_GCF_32+0x60>
    }

    printf("%u %u %u %u\n", *param_a_32, *param_b_32, *output_32, *done_32);
     334:	e3a04000 	mov	r4, #0
     338:	e5941018 	ldr	r1, [r4, #24]
     33c:	e5942014 	ldr	r2, [r4, #20]
     340:	e5943000 	ldr	r3, [r4]
     344:	e5d4001c 	ldrb	r0, [r4, #28]
     348:	e58d0000 	str	r0, [sp]
     34c:	e30307ac 	movw	r0, #14252	; 0x37ac
     350:	e3400001 	movt	r0, #1
     354:	eb00037e 	bl	1154 <printf>
    //return the output from memory
    return *output_32;
     358:	e5940000 	ldr	r0, [r4]
}
     35c:	e28dd00c 	add	sp, sp, #12
     360:	e8bd80f0 	pop	{r4, r5, r6, r7, pc}

00000364 <get_GCF_64>:

uint64_t get_GCF_64(uint64_t a, uint64_t b) {
     364:	e92d0030 	push	{r4, r5}
     368:	e1a04000 	mov	r4, r0
     36c:	e1a05001 	mov	r5, r1

    // Swap if B > A
    if (a < b) {
     370:	e1550003 	cmp	r5, r3
     374:	01540002 	cmpeq	r4, r2
     378:	2a000004 	bcs	390 <get_GCF_64+0x2c>
        uint64_t temp = a;
        a = b;
     37c:	e1a04002 	mov	r4, r2
     380:	e1a05003 	mov	r5, r3
        b = temp;
     384:	e1a02000 	mov	r2, r0
     388:	e1a03001 	mov	r3, r1
     38c:	ea000002 	b	39c <get_GCF_64+0x38>
    }

    // Euclid's subtraction algorithm
    while (a != b) {
     390:	e1550003 	cmp	r5, r3
     394:	01540002 	cmpeq	r4, r2
     398:	0a00000a 	beq	3c8 <get_GCF_64+0x64>
        if (a > b) {
     39c:	e1530005 	cmp	r3, r5
     3a0:	01520004 	cmpeq	r2, r4
     3a4:	2a000002 	bcs	3b4 <get_GCF_64+0x50>
            a = a - b;
     3a8:	e0544002 	subs	r4, r4, r2
     3ac:	e0c55003 	sbc	r5, r5, r3
     3b0:	ea000001 	b	3bc <get_GCF_64+0x58>
        } else {
            b = b - a;
     3b4:	e0522004 	subs	r2, r2, r4
     3b8:	e0c33005 	sbc	r3, r3, r5
        a = b;
        b = temp;
    }

    // Euclid's subtraction algorithm
    while (a != b) {
     3bc:	e1550003 	cmp	r5, r3
     3c0:	01540002 	cmpeq	r4, r2
     3c4:	1afffff4 	bne	39c <get_GCF_64+0x38>
        } else {
            b = b - a;
        }
    }
    return a;
}
     3c8:	e1a00004 	mov	r0, r4
     3cc:	e1a01005 	mov	r1, r5
     3d0:	e8bd0030 	pop	{r4, r5}
     3d4:	e12fff1e 	bx	lr

000003d8 <get_hw_GCF_64>:

uint64_t get_hw_GCF_64(uint64_t a, uint64_t b) {
     3d8:	e24dd010 	sub	sp, sp, #16
     3dc:	e1cd00f8 	strd	r0, [sp, #8]
     3e0:	e1cd20f0 	strd	r2, [sp]
    //grab the upper and lower words of each operand and assign to hw module
    *param_a_64_lo = *((uint32_t *)&a);
     3e4:	e3a03682 	mov	r3, #136314880	; 0x8200000
     3e8:	e5830020 	str	r0, [r3, #32]
    *param_a_64_hi = *(((uint32_t *)&a) + 1);
     3ec:	e59d200c 	ldr	r2, [sp, #12]
     3f0:	e5832024 	str	r2, [r3, #36]	; 0x24
    *param_b_64_lo = *((uint32_t *)&b);
     3f4:	e59d2000 	ldr	r2, [sp]
     3f8:	e5832018 	str	r2, [r3, #24]
    *param_b_64_hi = *(((uint32_t *)&b) + 1);
     3fc:	e59d2004 	ldr	r2, [sp, #4]
     400:	e583201c 	str	r2, [r3, #28]
    //wait until done signal is sent from hw
    while(done_64 == 0){
    }

    //return the 64 bit value from hw output
    return *output_64;
     404:	e1c321d0 	ldrd	r2, [r3, #16]
}
     408:	e1a00002 	mov	r0, r2
     40c:	e1a01003 	mov	r1, r3
     410:	e28dd010 	add	sp, sp, #16
     414:	e12fff1e 	bx	lr

00000418 <main>:

int main() {
     418:	e92d4ff0 	push	{r4, r5, r6, r7, r8, r9, r10, r11, lr}
     41c:	e24dd01c 	sub	sp, sp, #28
    uint32_t elapsed_time;

    while(1) {

        //ask user for which version of gcd
        printf("32 or 64 bit GCD?: ");
     420:	e30357bc 	movw	r5, #14268	; 0x37bc
     424:	e3405001 	movt	r5, #1
        scanf("%d", &selection);
     428:	e30347d0 	movw	r4, #14288	; 0x37d0
     42c:	e3404001 	movt	r4, #1

        if(selection == 32) {

            //ask for user input 32 bit values
            printf("Enter an unsigned 32 bit number for reg A: ");
     430:	e303b7d4 	movw	r11, #14292	; 0x37d4
     434:	e340b001 	movt	r11, #1
            scanf("%u", &REG_A);
     438:	e3038800 	movw	r8, #14336	; 0x3800
     43c:	e3408001 	movt	r8, #1
            printf("Enter an unsigned 32 bit number for reg B: ");
     440:	e3033804 	movw	r3, #14340	; 0x3804
     444:	e3403001 	movt	r3, #1
     448:	e58d3004 	str	r3, [sp, #4]
    uint32_t elapsed_time;

    while(1) {

        //ask user for which version of gcd
        printf("32 or 64 bit GCD?: ");
     44c:	e1a00005 	mov	r0, r5
     450:	eb00033f 	bl	1154 <printf>
        scanf("%d", &selection);
     454:	e1a00004 	mov	r0, r4
     458:	e28d1014 	add	r1, sp, #20
     45c:	eb00037a 	bl	124c <scanf>

        if(selection == 32) {
     460:	e59d3014 	ldr	r3, [sp, #20]
     464:	e3530020 	cmp	r3, #32
     468:	1afffff7 	bne	44c <main+0x34>

            //ask for user input 32 bit values
            printf("Enter an unsigned 32 bit number for reg A: ");
     46c:	e1a0000b 	mov	r0, r11
     470:	eb000337 	bl	1154 <printf>
            scanf("%u", &REG_A);
     474:	e1a00008 	mov	r0, r8
     478:	e28d1010 	add	r1, sp, #16
     47c:	eb000372 	bl	124c <scanf>
            printf("Enter an unsigned 32 bit number for reg B: ");
     480:	e59d0004 	ldr	r0, [sp, #4]
     484:	eb000332 	bl	1154 <printf>
            scanf("%u", &REG_B);
     488:	e1a00008 	mov	r0, r8
     48c:	e28d100c 	add	r1, sp, #12
     490:	eb00036d 	bl	124c <scanf>

            //calculate result in software
            printf("\nBegin software gcf:\n");
     494:	e3030830 	movw	r0, #14384	; 0x3830
     498:	e3400001 	movt	r0, #1
     49c:	eb000365 	bl	1238 <puts>
            start_timer();
     4a0:	ebffff6d 	bl	25c <start_timer>
            uint32_t GCF = get_GCF_32(REG_A, REG_B);
     4a4:	e59d0010 	ldr	r0, [sp, #16]
     4a8:	e59d100c 	ldr	r1, [sp, #12]
     4ac:	ebffff78 	bl	294 <get_GCF_32>
     4b0:	e1a06000 	mov	r6, r0
            elapsed_time = get_elapsed_time();
     4b4:	ebffff70 	bl	27c <get_elapsed_time>
     4b8:	e1a0a000 	mov	r10, r0
            printf("GCD = %u\n", GCF);
     4bc:	e3037848 	movw	r7, #14408	; 0x3848
     4c0:	e3407001 	movt	r7, #1
     4c4:	e1a00007 	mov	r0, r7
     4c8:	e1a01006 	mov	r1, r6
     4cc:	eb000320 	bl	1154 <printf>
            printf("Time: %.3fus\n\n", (float)elapsed_time/200.0);
     4d0:	e3036854 	movw	r6, #14420	; 0x3854
     4d4:	e3406001 	movt	r6, #1
     4d8:	e1a0000a 	mov	r0, r10
     4dc:	eb0002c1 	bl	fe8 <__aeabi_ui2f>
     4e0:	eb0000fa 	bl	8d0 <__aeabi_f2d>
     4e4:	e3a02000 	mov	r2, #0
     4e8:	e3a03000 	mov	r3, #0
     4ec:	e3443069 	movt	r3, #16489	; 0x4069
     4f0:	eb0001c7 	bl	c14 <__aeabi_ddiv>
     4f4:	e1a02000 	mov	r2, r0
     4f8:	e1a03001 	mov	r3, r1
     4fc:	e1a00006 	mov	r0, r6
     500:	eb000313 	bl	1154 <printf>

            //calculate result in hardware
            printf("\nBegin hardware gcf:\n");
     504:	e3030864 	movw	r0, #14436	; 0x3864
     508:	e3400001 	movt	r0, #1
     50c:	eb000349 	bl	1238 <puts>
            start_timer();
     510:	ebffff51 	bl	25c <start_timer>
            GCF = get_hw_GCF_32(REG_A, REG_B);
     514:	e59d0010 	ldr	r0, [sp, #16]
     518:	e59d100c 	ldr	r1, [sp, #12]
     51c:	ebffff69 	bl	2c8 <get_hw_GCF_32>
     520:	e1a09000 	mov	r9, r0
            elapsed_time = get_elapsed_time();
     524:	ebffff54 	bl	27c <get_elapsed_time>
     528:	e1a0a000 	mov	r10, r0
            printf("GCD = %u\n", GCF);
     52c:	e1a00007 	mov	r0, r7
     530:	e1a01009 	mov	r1, r9
     534:	eb000306 	bl	1154 <printf>
            printf("Time: %.3fus\n\n", (float)elapsed_time/200.0);
     538:	e1a0000a 	mov	r0, r10
     53c:	eb0002a9 	bl	fe8 <__aeabi_ui2f>
     540:	eb0000e2 	bl	8d0 <__aeabi_f2d>
     544:	e3a02000 	mov	r2, #0
     548:	e3a03000 	mov	r3, #0
     54c:	e3443069 	movt	r3, #16489	; 0x4069
     550:	eb0001af 	bl	c14 <__aeabi_ddiv>
     554:	e1a02000 	mov	r2, r0
     558:	e1a03001 	mov	r3, r1
     55c:	e1a00006 	mov	r0, r6
     560:	eb0002fb 	bl	1154 <printf>
     564:	eaffffb8 	b	44c <main+0x34>

00000568 <__aeabi_drsub>:
     568:	e2211102 	eor	r1, r1, #-2147483648	; 0x80000000
     56c:	ea000000 	b	574 <__adddf3>

00000570 <__aeabi_dsub>:
     570:	e2233102 	eor	r3, r3, #-2147483648	; 0x80000000

00000574 <__adddf3>:
     574:	e92d4030 	push	{r4, r5, lr}
     578:	e1a04081 	lsl	r4, r1, #1
     57c:	e1a05083 	lsl	r5, r3, #1
     580:	e1340005 	teq	r4, r5
     584:	01300002 	teqeq	r0, r2
     588:	1194c000 	orrsne	r12, r4, r0
     58c:	1195c002 	orrsne	r12, r5, r2
     590:	11f0cac4 	mvnsne	r12, r4, asr #21
     594:	11f0cac5 	mvnsne	r12, r5, asr #21
     598:	0a00008c 	beq	7d0 <__adddf3+0x25c>
     59c:	e1a04aa4 	lsr	r4, r4, #21
     5a0:	e0745aa5 	rsbs	r5, r4, r5, lsr #21
     5a4:	b2655000 	rsblt	r5, r5, #0
     5a8:	da000006 	ble	5c8 <__adddf3+0x54>
     5ac:	e0844005 	add	r4, r4, r5
     5b0:	e0202002 	eor	r2, r0, r2
     5b4:	e0213003 	eor	r3, r1, r3
     5b8:	e0220000 	eor	r0, r2, r0
     5bc:	e0231001 	eor	r1, r3, r1
     5c0:	e0202002 	eor	r2, r0, r2
     5c4:	e0213003 	eor	r3, r1, r3
     5c8:	e3550036 	cmp	r5, #54	; 0x36
     5cc:	88bd4030 	pophi	{r4, r5, lr}
     5d0:	812fff1e 	bxhi	lr
     5d4:	e3110102 	tst	r1, #-2147483648	; 0x80000000
     5d8:	e1a01601 	lsl	r1, r1, #12
     5dc:	e3a0c601 	mov	r12, #1048576	; 0x100000
     5e0:	e18c1621 	orr	r1, r12, r1, lsr #12
     5e4:	0a000001 	beq	5f0 <__adddf3+0x7c>
     5e8:	e2700000 	rsbs	r0, r0, #0
     5ec:	e2e11000 	rsc	r1, r1, #0
     5f0:	e3130102 	tst	r3, #-2147483648	; 0x80000000
     5f4:	e1a03603 	lsl	r3, r3, #12
     5f8:	e18c3623 	orr	r3, r12, r3, lsr #12
     5fc:	0a000001 	beq	608 <__adddf3+0x94>
     600:	e2722000 	rsbs	r2, r2, #0
     604:	e2e33000 	rsc	r3, r3, #0
     608:	e1340005 	teq	r4, r5
     60c:	0a000069 	beq	7b8 <__adddf3+0x244>
     610:	e2444001 	sub	r4, r4, #1
     614:	e275e020 	rsbs	lr, r5, #32
     618:	ba000005 	blt	634 <__adddf3+0xc0>
     61c:	e1a0ce12 	lsl	r12, r2, lr
     620:	e0900532 	adds	r0, r0, r2, lsr r5
     624:	e2a11000 	adc	r1, r1, #0
     628:	e0900e13 	adds	r0, r0, r3, lsl lr
     62c:	e0b11553 	adcs	r1, r1, r3, asr r5
     630:	ea000006 	b	650 <__adddf3+0xdc>
     634:	e2455020 	sub	r5, r5, #32
     638:	e28ee020 	add	lr, lr, #32
     63c:	e3520001 	cmp	r2, #1
     640:	e1a0ce13 	lsl	r12, r3, lr
     644:	238cc002 	orrcs	r12, r12, #2
     648:	e0900553 	adds	r0, r0, r3, asr r5
     64c:	e0b11fc3 	adcs	r1, r1, r3, asr #31
     650:	e2015102 	and	r5, r1, #-2147483648	; 0x80000000
     654:	5a000002 	bpl	664 <__adddf3+0xf0>
     658:	e27cc000 	rsbs	r12, r12, #0
     65c:	e2f00000 	rscs	r0, r0, #0
     660:	e2e11000 	rsc	r1, r1, #0
     664:	e3510601 	cmp	r1, #1048576	; 0x100000
     668:	3a00000f 	bcc	6ac <__adddf3+0x138>
     66c:	e3510602 	cmp	r1, #2097152	; 0x200000
     670:	3a000006 	bcc	690 <__adddf3+0x11c>
     674:	e1b010a1 	lsrs	r1, r1, #1
     678:	e1b00060 	rrxs	r0, r0
     67c:	e1a0c06c 	rrx	r12, r12
     680:	e2844001 	add	r4, r4, #1
     684:	e1a02a84 	lsl	r2, r4, #21
     688:	e3720501 	cmn	r2, #4194304	; 0x400000
     68c:	2a00006b 	bcs	840 <__adddf3+0x2cc>
     690:	e35c0102 	cmp	r12, #-2147483648	; 0x80000000
     694:	01b0c0a0 	lsrseq	r12, r0, #1
     698:	e2b00000 	adcs	r0, r0, #0
     69c:	e0a11a04 	adc	r1, r1, r4, lsl #20
     6a0:	e1811005 	orr	r1, r1, r5
     6a4:	e8bd4030 	pop	{r4, r5, lr}
     6a8:	e12fff1e 	bx	lr
     6ac:	e1b0c08c 	lsls	r12, r12, #1
     6b0:	e0b00000 	adcs	r0, r0, r0
     6b4:	e0a11001 	adc	r1, r1, r1
     6b8:	e3110601 	tst	r1, #1048576	; 0x100000
     6bc:	e2444001 	sub	r4, r4, #1
     6c0:	1afffff2 	bne	690 <__adddf3+0x11c>
     6c4:	e3310000 	teq	r1, #0
     6c8:	13a03014 	movne	r3, #20
     6cc:	03a03034 	moveq	r3, #52	; 0x34
     6d0:	01a01000 	moveq	r1, r0
     6d4:	03a00000 	moveq	r0, #0
     6d8:	e1a02001 	mov	r2, r1
     6dc:	e3520801 	cmp	r2, #65536	; 0x10000
     6e0:	21a02822 	lsrcs	r2, r2, #16
     6e4:	22433010 	subcs	r3, r3, #16
     6e8:	e3520c01 	cmp	r2, #256	; 0x100
     6ec:	21a02422 	lsrcs	r2, r2, #8
     6f0:	22433008 	subcs	r3, r3, #8
     6f4:	e3520010 	cmp	r2, #16
     6f8:	21a02222 	lsrcs	r2, r2, #4
     6fc:	22433004 	subcs	r3, r3, #4
     700:	e3520004 	cmp	r2, #4
     704:	22433002 	subcs	r3, r3, #2
     708:	304330a2 	subcc	r3, r3, r2, lsr #1
     70c:	e04331a2 	sub	r3, r3, r2, lsr #3
     710:	e2532020 	subs	r2, r3, #32
     714:	aa000007 	bge	738 <__adddf3+0x1c4>
     718:	e292200c 	adds	r2, r2, #12
     71c:	da000004 	ble	734 <__adddf3+0x1c0>
     720:	e282c014 	add	r12, r2, #20
     724:	e262200c 	rsb	r2, r2, #12
     728:	e1a00c11 	lsl	r0, r1, r12
     72c:	e1a01231 	lsr	r1, r1, r2
     730:	ea000004 	b	748 <__adddf3+0x1d4>
     734:	e2822014 	add	r2, r2, #20
     738:	d262c020 	rsble	r12, r2, #32
     73c:	e1a01211 	lsl	r1, r1, r2
     740:	d1811c30 	orrle	r1, r1, r0, lsr r12
     744:	d1a00210 	lslle	r0, r0, r2
     748:	e0544003 	subs	r4, r4, r3
     74c:	a0811a04 	addge	r1, r1, r4, lsl #20
     750:	a1811005 	orrge	r1, r1, r5
     754:	a8bd4030 	popge	{r4, r5, lr}
     758:	a12fff1e 	bxge	lr
     75c:	e1e04004 	mvn	r4, r4
     760:	e254401f 	subs	r4, r4, #31
     764:	aa00000f 	bge	7a8 <__adddf3+0x234>
     768:	e294400c 	adds	r4, r4, #12
     76c:	ca000006 	bgt	78c <__adddf3+0x218>
     770:	e2844014 	add	r4, r4, #20
     774:	e2642020 	rsb	r2, r4, #32
     778:	e1a00430 	lsr	r0, r0, r4
     77c:	e1800211 	orr	r0, r0, r1, lsl r2
     780:	e1851431 	orr	r1, r5, r1, lsr r4
     784:	e8bd4030 	pop	{r4, r5, lr}
     788:	e12fff1e 	bx	lr
     78c:	e264400c 	rsb	r4, r4, #12
     790:	e2642020 	rsb	r2, r4, #32
     794:	e1a00230 	lsr	r0, r0, r2
     798:	e1800411 	orr	r0, r0, r1, lsl r4
     79c:	e1a01005 	mov	r1, r5
     7a0:	e8bd4030 	pop	{r4, r5, lr}
     7a4:	e12fff1e 	bx	lr
     7a8:	e1a00431 	lsr	r0, r1, r4
     7ac:	e1a01005 	mov	r1, r5
     7b0:	e8bd4030 	pop	{r4, r5, lr}
     7b4:	e12fff1e 	bx	lr
     7b8:	e3340000 	teq	r4, #0
     7bc:	e2233601 	eor	r3, r3, #1048576	; 0x100000
     7c0:	02211601 	eoreq	r1, r1, #1048576	; 0x100000
     7c4:	02844001 	addeq	r4, r4, #1
     7c8:	12455001 	subne	r5, r5, #1
     7cc:	eaffff8f 	b	610 <__adddf3+0x9c>
     7d0:	e1f0cac4 	mvns	r12, r4, asr #21
     7d4:	11f0cac5 	mvnsne	r12, r5, asr #21
     7d8:	0a00001d 	beq	854 <__adddf3+0x2e0>
     7dc:	e1340005 	teq	r4, r5
     7e0:	01300002 	teqeq	r0, r2
     7e4:	0a000004 	beq	7fc <__adddf3+0x288>
     7e8:	e194c000 	orrs	r12, r4, r0
     7ec:	01a01003 	moveq	r1, r3
     7f0:	01a00002 	moveq	r0, r2
     7f4:	e8bd4030 	pop	{r4, r5, lr}
     7f8:	e12fff1e 	bx	lr
     7fc:	e1310003 	teq	r1, r3
     800:	13a01000 	movne	r1, #0
     804:	13a00000 	movne	r0, #0
     808:	18bd4030 	popne	{r4, r5, lr}
     80c:	112fff1e 	bxne	lr
     810:	e1b0caa4 	lsrs	r12, r4, #21
     814:	1a000004 	bne	82c <__adddf3+0x2b8>
     818:	e1b00080 	lsls	r0, r0, #1
     81c:	e0b11001 	adcs	r1, r1, r1
     820:	23811102 	orrcs	r1, r1, #-2147483648	; 0x80000000
     824:	e8bd4030 	pop	{r4, r5, lr}
     828:	e12fff1e 	bx	lr
     82c:	e2944501 	adds	r4, r4, #4194304	; 0x400000
     830:	32811601 	addcc	r1, r1, #1048576	; 0x100000
     834:	38bd4030 	popcc	{r4, r5, lr}
     838:	312fff1e 	bxcc	lr
     83c:	e2015102 	and	r5, r1, #-2147483648	; 0x80000000
     840:	e385147f 	orr	r1, r5, #2130706432	; 0x7f000000
     844:	e381160f 	orr	r1, r1, #15728640	; 0xf00000
     848:	e3a00000 	mov	r0, #0
     84c:	e8bd4030 	pop	{r4, r5, lr}
     850:	e12fff1e 	bx	lr
     854:	e1f0cac4 	mvns	r12, r4, asr #21
     858:	11a01003 	movne	r1, r3
     85c:	11a00002 	movne	r0, r2
     860:	01f0cac5 	mvnseq	r12, r5, asr #21
     864:	11a03001 	movne	r3, r1
     868:	11a02000 	movne	r2, r0
     86c:	e1904601 	orrs	r4, r0, r1, lsl #12
     870:	01925603 	orrseq	r5, r2, r3, lsl #12
     874:	01310003 	teqeq	r1, r3
     878:	13811702 	orrne	r1, r1, #524288	; 0x80000
     87c:	e8bd4030 	pop	{r4, r5, lr}
     880:	e12fff1e 	bx	lr

00000884 <__aeabi_ui2d>:
     884:	e3300000 	teq	r0, #0
     888:	03a01000 	moveq	r1, #0
     88c:	012fff1e 	bxeq	lr
     890:	e92d4030 	push	{r4, r5, lr}
     894:	e3a04b01 	mov	r4, #1024	; 0x400
     898:	e2844032 	add	r4, r4, #50	; 0x32
     89c:	e3a05000 	mov	r5, #0
     8a0:	e3a01000 	mov	r1, #0
     8a4:	eaffff86 	b	6c4 <__adddf3+0x150>

000008a8 <__aeabi_i2d>:
     8a8:	e3300000 	teq	r0, #0
     8ac:	03a01000 	moveq	r1, #0
     8b0:	012fff1e 	bxeq	lr
     8b4:	e92d4030 	push	{r4, r5, lr}
     8b8:	e3a04b01 	mov	r4, #1024	; 0x400
     8bc:	e2844032 	add	r4, r4, #50	; 0x32
     8c0:	e2105102 	ands	r5, r0, #-2147483648	; 0x80000000
     8c4:	42600000 	rsbmi	r0, r0, #0
     8c8:	e3a01000 	mov	r1, #0
     8cc:	eaffff7c 	b	6c4 <__adddf3+0x150>

000008d0 <__aeabi_f2d>:
     8d0:	e1b02080 	lsls	r2, r0, #1
     8d4:	e1a011c2 	asr	r1, r2, #3
     8d8:	e1a01061 	rrx	r1, r1
     8dc:	e1a00e02 	lsl	r0, r2, #28
     8e0:	121234ff 	andsne	r3, r2, #-16777216	; 0xff000000
     8e4:	133304ff 	teqne	r3, #-16777216	; 0xff000000
     8e8:	1221130e 	eorne	r1, r1, #939524096	; 0x38000000
     8ec:	112fff1e 	bxne	lr
     8f0:	e3320000 	teq	r2, #0
     8f4:	133304ff 	teqne	r3, #-16777216	; 0xff000000
     8f8:	012fff1e 	bxeq	lr
     8fc:	e92d4030 	push	{r4, r5, lr}
     900:	e3a04d0e 	mov	r4, #896	; 0x380
     904:	e2015102 	and	r5, r1, #-2147483648	; 0x80000000
     908:	e3c11102 	bic	r1, r1, #-2147483648	; 0x80000000
     90c:	eaffff6c 	b	6c4 <__adddf3+0x150>

00000910 <__aeabi_ul2d>:
     910:	e1902001 	orrs	r2, r0, r1
     914:	012fff1e 	bxeq	lr
     918:	e92d4030 	push	{r4, r5, lr}
     91c:	e3a05000 	mov	r5, #0
     920:	ea000006 	b	940 <__aeabi_l2d+0x1c>

00000924 <__aeabi_l2d>:
     924:	e1902001 	orrs	r2, r0, r1
     928:	012fff1e 	bxeq	lr
     92c:	e92d4030 	push	{r4, r5, lr}
     930:	e2115102 	ands	r5, r1, #-2147483648	; 0x80000000
     934:	5a000001 	bpl	940 <__aeabi_l2d+0x1c>
     938:	e2700000 	rsbs	r0, r0, #0
     93c:	e2e11000 	rsc	r1, r1, #0
     940:	e3a04b01 	mov	r4, #1024	; 0x400
     944:	e2844032 	add	r4, r4, #50	; 0x32
     948:	e1b0cb21 	lsrs	r12, r1, #22
     94c:	0affff44 	beq	664 <__adddf3+0xf0>
     950:	e3a02003 	mov	r2, #3
     954:	e1b0c1ac 	lsrs	r12, r12, #3
     958:	12822003 	addne	r2, r2, #3
     95c:	e1b0c1ac 	lsrs	r12, r12, #3
     960:	12822003 	addne	r2, r2, #3
     964:	e08221ac 	add	r2, r2, r12, lsr #3
     968:	e2623020 	rsb	r3, r2, #32
     96c:	e1a0c310 	lsl	r12, r0, r3
     970:	e1a00230 	lsr	r0, r0, r2
     974:	e1800311 	orr	r0, r0, r1, lsl r3
     978:	e1a01231 	lsr	r1, r1, r2
     97c:	e0844002 	add	r4, r4, r2
     980:	eaffff37 	b	664 <__adddf3+0xf0>

00000984 <__aeabi_dmul>:
     984:	e92d4070 	push	{r4, r5, r6, lr}
     988:	e3a0c0ff 	mov	r12, #255	; 0xff
     98c:	e38ccc07 	orr	r12, r12, #1792	; 0x700
     990:	e01c4a21 	ands	r4, r12, r1, lsr #20
     994:	101c5a23 	andsne	r5, r12, r3, lsr #20
     998:	1134000c 	teqne	r4, r12
     99c:	1135000c 	teqne	r5, r12
     9a0:	0b000075 	bleq	b7c <__aeabi_dmul+0x1f8>
     9a4:	e0844005 	add	r4, r4, r5
     9a8:	e0216003 	eor	r6, r1, r3
     9ac:	e1c11a8c 	bic	r1, r1, r12, lsl #21
     9b0:	e1c33a8c 	bic	r3, r3, r12, lsl #21
     9b4:	e1905601 	orrs	r5, r0, r1, lsl #12
     9b8:	11925603 	orrsne	r5, r2, r3, lsl #12
     9bc:	e3811601 	orr	r1, r1, #1048576	; 0x100000
     9c0:	e3833601 	orr	r3, r3, #1048576	; 0x100000
     9c4:	0a00001d 	beq	a40 <__aeabi_dmul+0xbc>
     9c8:	e08ec290 	umull	r12, lr, r0, r2
     9cc:	e3a05000 	mov	r5, #0
     9d0:	e0a5e291 	umlal	lr, r5, r1, r2
     9d4:	e2062102 	and	r2, r6, #-2147483648	; 0x80000000
     9d8:	e0a5e390 	umlal	lr, r5, r0, r3
     9dc:	e3a06000 	mov	r6, #0
     9e0:	e0a65391 	umlal	r5, r6, r1, r3
     9e4:	e33c0000 	teq	r12, #0
     9e8:	138ee001 	orrne	lr, lr, #1
     9ec:	e24440ff 	sub	r4, r4, #255	; 0xff
     9f0:	e3560c02 	cmp	r6, #512	; 0x200
     9f4:	e2c44c03 	sbc	r4, r4, #768	; 0x300
     9f8:	2a000002 	bcs	a08 <__aeabi_dmul+0x84>
     9fc:	e1b0e08e 	lsls	lr, lr, #1
     a00:	e0b55005 	adcs	r5, r5, r5
     a04:	e0a66006 	adc	r6, r6, r6
     a08:	e1821586 	orr	r1, r2, r6, lsl #11
     a0c:	e1811aa5 	orr	r1, r1, r5, lsr #21
     a10:	e1a00585 	lsl	r0, r5, #11
     a14:	e1800aae 	orr	r0, r0, lr, lsr #21
     a18:	e1a0e58e 	lsl	lr, lr, #11
     a1c:	e254c0fd 	subs	r12, r4, #253	; 0xfd
     a20:	835c0c07 	cmphi	r12, #1792	; 0x700
     a24:	8a000011 	bhi	a70 <__aeabi_dmul+0xec>
     a28:	e35e0102 	cmp	lr, #-2147483648	; 0x80000000
     a2c:	01b0e0a0 	lsrseq	lr, r0, #1
     a30:	e2b00000 	adcs	r0, r0, #0
     a34:	e0a11a04 	adc	r1, r1, r4, lsl #20
     a38:	e8bd4070 	pop	{r4, r5, r6, lr}
     a3c:	e12fff1e 	bx	lr
     a40:	e2066102 	and	r6, r6, #-2147483648	; 0x80000000
     a44:	e1861001 	orr	r1, r6, r1
     a48:	e1800002 	orr	r0, r0, r2
     a4c:	e0211003 	eor	r1, r1, r3
     a50:	e05440ac 	subs	r4, r4, r12, lsr #1
     a54:	c074500c 	rsbsgt	r5, r4, r12
     a58:	c1811a04 	orrgt	r1, r1, r4, lsl #20
     a5c:	c8bd4070 	popgt	{r4, r5, r6, lr}
     a60:	c12fff1e 	bxgt	lr
     a64:	e3811601 	orr	r1, r1, #1048576	; 0x100000
     a68:	e3a0e000 	mov	lr, #0
     a6c:	e2544001 	subs	r4, r4, #1
     a70:	ca00005d 	bgt	bec <__aeabi_dmul+0x268>
     a74:	e3740036 	cmn	r4, #54	; 0x36
     a78:	d3a00000 	movle	r0, #0
     a7c:	d2011102 	andle	r1, r1, #-2147483648	; 0x80000000
     a80:	d8bd4070 	pople	{r4, r5, r6, lr}
     a84:	d12fff1e 	bxle	lr
     a88:	e2644000 	rsb	r4, r4, #0
     a8c:	e2544020 	subs	r4, r4, #32
     a90:	aa00001a 	bge	b00 <__aeabi_dmul+0x17c>
     a94:	e294400c 	adds	r4, r4, #12
     a98:	ca00000c 	bgt	ad0 <__aeabi_dmul+0x14c>
     a9c:	e2844014 	add	r4, r4, #20
     aa0:	e2645020 	rsb	r5, r4, #32
     aa4:	e1a03510 	lsl	r3, r0, r5
     aa8:	e1a00430 	lsr	r0, r0, r4
     aac:	e1800511 	orr	r0, r0, r1, lsl r5
     ab0:	e2012102 	and	r2, r1, #-2147483648	; 0x80000000
     ab4:	e3c11102 	bic	r1, r1, #-2147483648	; 0x80000000
     ab8:	e0900fa3 	adds	r0, r0, r3, lsr #31
     abc:	e0a21431 	adc	r1, r2, r1, lsr r4
     ac0:	e19ee083 	orrs	lr, lr, r3, lsl #1
     ac4:	01c00fa3 	biceq	r0, r0, r3, lsr #31
     ac8:	e8bd4070 	pop	{r4, r5, r6, lr}
     acc:	e12fff1e 	bx	lr
     ad0:	e264400c 	rsb	r4, r4, #12
     ad4:	e2645020 	rsb	r5, r4, #32
     ad8:	e1a03410 	lsl	r3, r0, r4
     adc:	e1a00530 	lsr	r0, r0, r5
     ae0:	e1800411 	orr	r0, r0, r1, lsl r4
     ae4:	e2011102 	and	r1, r1, #-2147483648	; 0x80000000
     ae8:	e0900fa3 	adds	r0, r0, r3, lsr #31
     aec:	e2a11000 	adc	r1, r1, #0
     af0:	e19ee083 	orrs	lr, lr, r3, lsl #1
     af4:	01c00fa3 	biceq	r0, r0, r3, lsr #31
     af8:	e8bd4070 	pop	{r4, r5, r6, lr}
     afc:	e12fff1e 	bx	lr
     b00:	e2645020 	rsb	r5, r4, #32
     b04:	e18ee510 	orr	lr, lr, r0, lsl r5
     b08:	e1a03430 	lsr	r3, r0, r4
     b0c:	e1833511 	orr	r3, r3, r1, lsl r5
     b10:	e1a00431 	lsr	r0, r1, r4
     b14:	e2011102 	and	r1, r1, #-2147483648	; 0x80000000
     b18:	e1c00431 	bic	r0, r0, r1, lsr r4
     b1c:	e0800fa3 	add	r0, r0, r3, lsr #31
     b20:	e19ee083 	orrs	lr, lr, r3, lsl #1
     b24:	01c00fa3 	biceq	r0, r0, r3, lsr #31
     b28:	e8bd4070 	pop	{r4, r5, r6, lr}
     b2c:	e12fff1e 	bx	lr
     b30:	e3340000 	teq	r4, #0
     b34:	1a000008 	bne	b5c <__aeabi_dmul+0x1d8>
     b38:	e2016102 	and	r6, r1, #-2147483648	; 0x80000000
     b3c:	e1b00080 	lsls	r0, r0, #1
     b40:	e0a11001 	adc	r1, r1, r1
     b44:	e3110601 	tst	r1, #1048576	; 0x100000
     b48:	02444001 	subeq	r4, r4, #1
     b4c:	0afffffa 	beq	b3c <__aeabi_dmul+0x1b8>
     b50:	e1811006 	orr	r1, r1, r6
     b54:	e3350000 	teq	r5, #0
     b58:	112fff1e 	bxne	lr
     b5c:	e2036102 	and	r6, r3, #-2147483648	; 0x80000000
     b60:	e1b02082 	lsls	r2, r2, #1
     b64:	e0a33003 	adc	r3, r3, r3
     b68:	e3130601 	tst	r3, #1048576	; 0x100000
     b6c:	02455001 	subeq	r5, r5, #1
     b70:	0afffffa 	beq	b60 <__aeabi_dmul+0x1dc>
     b74:	e1833006 	orr	r3, r3, r6
     b78:	e12fff1e 	bx	lr
     b7c:	e134000c 	teq	r4, r12
     b80:	e00c5a23 	and	r5, r12, r3, lsr #20
     b84:	1135000c 	teqne	r5, r12
     b88:	0a000007 	beq	bac <__aeabi_dmul+0x228>
     b8c:	e1906081 	orrs	r6, r0, r1, lsl #1
     b90:	11926083 	orrsne	r6, r2, r3, lsl #1
     b94:	1affffe5 	bne	b30 <__aeabi_dmul+0x1ac>
     b98:	e0211003 	eor	r1, r1, r3
     b9c:	e2011102 	and	r1, r1, #-2147483648	; 0x80000000
     ba0:	e3a00000 	mov	r0, #0
     ba4:	e8bd4070 	pop	{r4, r5, r6, lr}
     ba8:	e12fff1e 	bx	lr
     bac:	e1906081 	orrs	r6, r0, r1, lsl #1
     bb0:	01a00002 	moveq	r0, r2
     bb4:	01a01003 	moveq	r1, r3
     bb8:	11926083 	orrsne	r6, r2, r3, lsl #1
     bbc:	0a000010 	beq	c04 <__aeabi_dmul+0x280>
     bc0:	e134000c 	teq	r4, r12
     bc4:	1a000001 	bne	bd0 <__aeabi_dmul+0x24c>
     bc8:	e1906601 	orrs	r6, r0, r1, lsl #12
     bcc:	1a00000c 	bne	c04 <__aeabi_dmul+0x280>
     bd0:	e135000c 	teq	r5, r12
     bd4:	1a000003 	bne	be8 <__aeabi_dmul+0x264>
     bd8:	e1926603 	orrs	r6, r2, r3, lsl #12
     bdc:	11a00002 	movne	r0, r2
     be0:	11a01003 	movne	r1, r3
     be4:	1a000006 	bne	c04 <__aeabi_dmul+0x280>
     be8:	e0211003 	eor	r1, r1, r3
     bec:	e2011102 	and	r1, r1, #-2147483648	; 0x80000000
     bf0:	e381147f 	orr	r1, r1, #2130706432	; 0x7f000000
     bf4:	e381160f 	orr	r1, r1, #15728640	; 0xf00000
     bf8:	e3a00000 	mov	r0, #0
     bfc:	e8bd4070 	pop	{r4, r5, r6, lr}
     c00:	e12fff1e 	bx	lr
     c04:	e381147f 	orr	r1, r1, #2130706432	; 0x7f000000
     c08:	e381173e 	orr	r1, r1, #16252928	; 0xf80000
     c0c:	e8bd4070 	pop	{r4, r5, r6, lr}
     c10:	e12fff1e 	bx	lr

00000c14 <__aeabi_ddiv>:
     c14:	e92d4070 	push	{r4, r5, r6, lr}
     c18:	e3a0c0ff 	mov	r12, #255	; 0xff
     c1c:	e38ccc07 	orr	r12, r12, #1792	; 0x700
     c20:	e01c4a21 	ands	r4, r12, r1, lsr #20
     c24:	101c5a23 	andsne	r5, r12, r3, lsr #20
     c28:	1134000c 	teqne	r4, r12
     c2c:	1135000c 	teqne	r5, r12
     c30:	0b00005e 	bleq	db0 <__aeabi_ddiv+0x19c>
     c34:	e0444005 	sub	r4, r4, r5
     c38:	e021e003 	eor	lr, r1, r3
     c3c:	e1925603 	orrs	r5, r2, r3, lsl #12
     c40:	e1a01601 	lsl	r1, r1, #12
     c44:	0a00004c 	beq	d7c <__aeabi_ddiv+0x168>
     c48:	e1a03603 	lsl	r3, r3, #12
     c4c:	e3a05201 	mov	r5, #268435456	; 0x10000000
     c50:	e1853223 	orr	r3, r5, r3, lsr #4
     c54:	e1833c22 	orr	r3, r3, r2, lsr #24
     c58:	e1a02402 	lsl	r2, r2, #8
     c5c:	e1855221 	orr	r5, r5, r1, lsr #4
     c60:	e1855c20 	orr	r5, r5, r0, lsr #24
     c64:	e1a06400 	lsl	r6, r0, #8
     c68:	e20e1102 	and	r1, lr, #-2147483648	; 0x80000000
     c6c:	e1550003 	cmp	r5, r3
     c70:	01560002 	cmpeq	r6, r2
     c74:	e2a440fd 	adc	r4, r4, #253	; 0xfd
     c78:	e2844c03 	add	r4, r4, #768	; 0x300
     c7c:	2a000001 	bcs	c88 <__aeabi_ddiv+0x74>
     c80:	e1b030a3 	lsrs	r3, r3, #1
     c84:	e1a02062 	rrx	r2, r2
     c88:	e0566002 	subs	r6, r6, r2
     c8c:	e0c55003 	sbc	r5, r5, r3
     c90:	e1b030a3 	lsrs	r3, r3, #1
     c94:	e1a02062 	rrx	r2, r2
     c98:	e3a00601 	mov	r0, #1048576	; 0x100000
     c9c:	e3a0c702 	mov	r12, #524288	; 0x80000
     ca0:	e056e002 	subs	lr, r6, r2
     ca4:	e0d5e003 	sbcs	lr, r5, r3
     ca8:	20466002 	subcs	r6, r6, r2
     cac:	21a0500e 	movcs	r5, lr
     cb0:	2180000c 	orrcs	r0, r0, r12
     cb4:	e1b030a3 	lsrs	r3, r3, #1
     cb8:	e1a02062 	rrx	r2, r2
     cbc:	e056e002 	subs	lr, r6, r2
     cc0:	e0d5e003 	sbcs	lr, r5, r3
     cc4:	20466002 	subcs	r6, r6, r2
     cc8:	21a0500e 	movcs	r5, lr
     ccc:	218000ac 	orrcs	r0, r0, r12, lsr #1
     cd0:	e1b030a3 	lsrs	r3, r3, #1
     cd4:	e1a02062 	rrx	r2, r2
     cd8:	e056e002 	subs	lr, r6, r2
     cdc:	e0d5e003 	sbcs	lr, r5, r3
     ce0:	20466002 	subcs	r6, r6, r2
     ce4:	21a0500e 	movcs	r5, lr
     ce8:	2180012c 	orrcs	r0, r0, r12, lsr #2
     cec:	e1b030a3 	lsrs	r3, r3, #1
     cf0:	e1a02062 	rrx	r2, r2
     cf4:	e056e002 	subs	lr, r6, r2
     cf8:	e0d5e003 	sbcs	lr, r5, r3
     cfc:	20466002 	subcs	r6, r6, r2
     d00:	21a0500e 	movcs	r5, lr
     d04:	218001ac 	orrcs	r0, r0, r12, lsr #3
     d08:	e195e006 	orrs	lr, r5, r6
     d0c:	0a00000d 	beq	d48 <__aeabi_ddiv+0x134>
     d10:	e1a05205 	lsl	r5, r5, #4
     d14:	e1855e26 	orr	r5, r5, r6, lsr #28
     d18:	e1a06206 	lsl	r6, r6, #4
     d1c:	e1a03183 	lsl	r3, r3, #3
     d20:	e1833ea2 	orr	r3, r3, r2, lsr #29
     d24:	e1a02182 	lsl	r2, r2, #3
     d28:	e1b0c22c 	lsrs	r12, r12, #4
     d2c:	1affffdb 	bne	ca0 <__aeabi_ddiv+0x8c>
     d30:	e3110601 	tst	r1, #1048576	; 0x100000
     d34:	1a000006 	bne	d54 <__aeabi_ddiv+0x140>
     d38:	e1811000 	orr	r1, r1, r0
     d3c:	e3a00000 	mov	r0, #0
     d40:	e3a0c102 	mov	r12, #-2147483648	; 0x80000000
     d44:	eaffffd5 	b	ca0 <__aeabi_ddiv+0x8c>
     d48:	e3110601 	tst	r1, #1048576	; 0x100000
     d4c:	01811000 	orreq	r1, r1, r0
     d50:	03a00000 	moveq	r0, #0
     d54:	e254c0fd 	subs	r12, r4, #253	; 0xfd
     d58:	835c0c07 	cmphi	r12, #1792	; 0x700
     d5c:	8affff43 	bhi	a70 <__aeabi_dmul+0xec>
     d60:	e055c003 	subs	r12, r5, r3
     d64:	0056c002 	subseq	r12, r6, r2
     d68:	01b0c0a0 	lsrseq	r12, r0, #1
     d6c:	e2b00000 	adcs	r0, r0, #0
     d70:	e0a11a04 	adc	r1, r1, r4, lsl #20
     d74:	e8bd4070 	pop	{r4, r5, r6, lr}
     d78:	e12fff1e 	bx	lr
     d7c:	e20ee102 	and	lr, lr, #-2147483648	; 0x80000000
     d80:	e18e1621 	orr	r1, lr, r1, lsr #12
     d84:	e09440ac 	adds	r4, r4, r12, lsr #1
     d88:	c074500c 	rsbsgt	r5, r4, r12
     d8c:	c1811a04 	orrgt	r1, r1, r4, lsl #20
     d90:	c8bd4070 	popgt	{r4, r5, r6, lr}
     d94:	c12fff1e 	bxgt	lr
     d98:	e3811601 	orr	r1, r1, #1048576	; 0x100000
     d9c:	e3a0e000 	mov	lr, #0
     da0:	e2544001 	subs	r4, r4, #1
     da4:	eaffff31 	b	a70 <__aeabi_dmul+0xec>
     da8:	e185e006 	orr	lr, r5, r6
     dac:	eaffff2f 	b	a70 <__aeabi_dmul+0xec>
     db0:	e00c5a23 	and	r5, r12, r3, lsr #20
     db4:	e134000c 	teq	r4, r12
     db8:	0135000c 	teqeq	r5, r12
     dbc:	0affff90 	beq	c04 <__aeabi_dmul+0x280>
     dc0:	e134000c 	teq	r4, r12
     dc4:	1a000006 	bne	de4 <__aeabi_ddiv+0x1d0>
     dc8:	e1904601 	orrs	r4, r0, r1, lsl #12
     dcc:	1affff8c 	bne	c04 <__aeabi_dmul+0x280>
     dd0:	e135000c 	teq	r5, r12
     dd4:	1affff83 	bne	be8 <__aeabi_dmul+0x264>
     dd8:	e1a00002 	mov	r0, r2
     ddc:	e1a01003 	mov	r1, r3
     de0:	eaffff87 	b	c04 <__aeabi_dmul+0x280>
     de4:	e135000c 	teq	r5, r12
     de8:	1a000004 	bne	e00 <__aeabi_ddiv+0x1ec>
     dec:	e1925603 	orrs	r5, r2, r3, lsl #12
     df0:	0affff68 	beq	b98 <__aeabi_dmul+0x214>
     df4:	e1a00002 	mov	r0, r2
     df8:	e1a01003 	mov	r1, r3
     dfc:	eaffff80 	b	c04 <__aeabi_dmul+0x280>
     e00:	e1906081 	orrs	r6, r0, r1, lsl #1
     e04:	11926083 	orrsne	r6, r2, r3, lsl #1
     e08:	1affff48 	bne	b30 <__aeabi_dmul+0x1ac>
     e0c:	e1904081 	orrs	r4, r0, r1, lsl #1
     e10:	1affff74 	bne	be8 <__aeabi_dmul+0x264>
     e14:	e1925083 	orrs	r5, r2, r3, lsl #1
     e18:	1affff5e 	bne	b98 <__aeabi_dmul+0x214>
     e1c:	eaffff78 	b	c04 <__aeabi_dmul+0x280>

00000e20 <__aeabi_frsub>:
     e20:	e2200102 	eor	r0, r0, #-2147483648	; 0x80000000
     e24:	ea000000 	b	e2c <__addsf3>

00000e28 <__aeabi_fsub>:
     e28:	e2211102 	eor	r1, r1, #-2147483648	; 0x80000000

00000e2c <__addsf3>:
     e2c:	e1b02080 	lsls	r2, r0, #1
     e30:	11b03081 	lslsne	r3, r1, #1
     e34:	11320003 	teqne	r2, r3
     e38:	11f0cc42 	mvnsne	r12, r2, asr #24
     e3c:	11f0cc43 	mvnsne	r12, r3, asr #24
     e40:	0a000047 	beq	f64 <__addsf3+0x138>
     e44:	e1a02c22 	lsr	r2, r2, #24
     e48:	e0723c23 	rsbs	r3, r2, r3, lsr #24
     e4c:	c0822003 	addgt	r2, r2, r3
     e50:	c0201001 	eorgt	r1, r0, r1
     e54:	c0210000 	eorgt	r0, r1, r0
     e58:	c0201001 	eorgt	r1, r0, r1
     e5c:	b2633000 	rsblt	r3, r3, #0
     e60:	e3530019 	cmp	r3, #25
     e64:	812fff1e 	bxhi	lr
     e68:	e3100102 	tst	r0, #-2147483648	; 0x80000000
     e6c:	e3800502 	orr	r0, r0, #8388608	; 0x800000
     e70:	e3c004ff 	bic	r0, r0, #-16777216	; 0xff000000
     e74:	12600000 	rsbne	r0, r0, #0
     e78:	e3110102 	tst	r1, #-2147483648	; 0x80000000
     e7c:	e3811502 	orr	r1, r1, #8388608	; 0x800000
     e80:	e3c114ff 	bic	r1, r1, #-16777216	; 0xff000000
     e84:	12611000 	rsbne	r1, r1, #0
     e88:	e1320003 	teq	r2, r3
     e8c:	0a00002e 	beq	f4c <__addsf3+0x120>
     e90:	e2422001 	sub	r2, r2, #1
     e94:	e0900351 	adds	r0, r0, r1, asr r3
     e98:	e2633020 	rsb	r3, r3, #32
     e9c:	e1a01311 	lsl	r1, r1, r3
     ea0:	e2003102 	and	r3, r0, #-2147483648	; 0x80000000
     ea4:	5a000001 	bpl	eb0 <__addsf3+0x84>
     ea8:	e2711000 	rsbs	r1, r1, #0
     eac:	e2e00000 	rsc	r0, r0, #0
     eb0:	e3500502 	cmp	r0, #8388608	; 0x800000
     eb4:	3a00000b 	bcc	ee8 <__addsf3+0xbc>
     eb8:	e3500401 	cmp	r0, #16777216	; 0x1000000
     ebc:	3a000004 	bcc	ed4 <__addsf3+0xa8>
     ec0:	e1b000a0 	lsrs	r0, r0, #1
     ec4:	e1a01061 	rrx	r1, r1
     ec8:	e2822001 	add	r2, r2, #1
     ecc:	e35200fe 	cmp	r2, #254	; 0xfe
     ed0:	2a000038 	bcs	fb8 <__addsf3+0x18c>
     ed4:	e3510102 	cmp	r1, #-2147483648	; 0x80000000
     ed8:	e0a00b82 	adc	r0, r0, r2, lsl #23
     edc:	03c00001 	biceq	r0, r0, #1
     ee0:	e1800003 	orr	r0, r0, r3
     ee4:	e12fff1e 	bx	lr
     ee8:	e1b01081 	lsls	r1, r1, #1
     eec:	e0a00000 	adc	r0, r0, r0
     ef0:	e3100502 	tst	r0, #8388608	; 0x800000
     ef4:	e2422001 	sub	r2, r2, #1
     ef8:	1afffff5 	bne	ed4 <__addsf3+0xa8>
     efc:	e1b0c620 	lsrs	r12, r0, #12
     f00:	01a00600 	lsleq	r0, r0, #12
     f04:	0242200c 	subeq	r2, r2, #12
     f08:	e31008ff 	tst	r0, #16711680	; 0xff0000
     f0c:	01a00400 	lsleq	r0, r0, #8
     f10:	02422008 	subeq	r2, r2, #8
     f14:	e310060f 	tst	r0, #15728640	; 0xf00000
     f18:	01a00200 	lsleq	r0, r0, #4
     f1c:	02422004 	subeq	r2, r2, #4
     f20:	e3100503 	tst	r0, #12582912	; 0xc00000
     f24:	01a00100 	lsleq	r0, r0, #2
     f28:	02422002 	subeq	r2, r2, #2
     f2c:	e3500502 	cmp	r0, #8388608	; 0x800000
     f30:	31a00080 	lslcc	r0, r0, #1
     f34:	e2d22000 	sbcs	r2, r2, #0
     f38:	a0800b82 	addge	r0, r0, r2, lsl #23
     f3c:	b2622000 	rsblt	r2, r2, #0
     f40:	a1800003 	orrge	r0, r0, r3
     f44:	b1830230 	orrlt	r0, r3, r0, lsr r2
     f48:	e12fff1e 	bx	lr
     f4c:	e3320000 	teq	r2, #0
     f50:	e2211502 	eor	r1, r1, #8388608	; 0x800000
     f54:	02200502 	eoreq	r0, r0, #8388608	; 0x800000
     f58:	02822001 	addeq	r2, r2, #1
     f5c:	12433001 	subne	r3, r3, #1
     f60:	eaffffca 	b	e90 <__addsf3+0x64>
     f64:	e1a03081 	lsl	r3, r1, #1
     f68:	e1f0cc42 	mvns	r12, r2, asr #24
     f6c:	11f0cc43 	mvnsne	r12, r3, asr #24
     f70:	0a000013 	beq	fc4 <__addsf3+0x198>
     f74:	e1320003 	teq	r2, r3
     f78:	0a000002 	beq	f88 <__addsf3+0x15c>
     f7c:	e3320000 	teq	r2, #0
     f80:	01a00001 	moveq	r0, r1
     f84:	e12fff1e 	bx	lr
     f88:	e1300001 	teq	r0, r1
     f8c:	13a00000 	movne	r0, #0
     f90:	112fff1e 	bxne	lr
     f94:	e31204ff 	tst	r2, #-16777216	; 0xff000000
     f98:	1a000002 	bne	fa8 <__addsf3+0x17c>
     f9c:	e1b00080 	lsls	r0, r0, #1
     fa0:	23800102 	orrcs	r0, r0, #-2147483648	; 0x80000000
     fa4:	e12fff1e 	bx	lr
     fa8:	e2922402 	adds	r2, r2, #33554432	; 0x2000000
     fac:	32800502 	addcc	r0, r0, #8388608	; 0x800000
     fb0:	312fff1e 	bxcc	lr
     fb4:	e2003102 	and	r3, r0, #-2147483648	; 0x80000000
     fb8:	e383047f 	orr	r0, r3, #2130706432	; 0x7f000000
     fbc:	e3800502 	orr	r0, r0, #8388608	; 0x800000
     fc0:	e12fff1e 	bx	lr
     fc4:	e1f02c42 	mvns	r2, r2, asr #24
     fc8:	11a00001 	movne	r0, r1
     fcc:	01f03c43 	mvnseq	r3, r3, asr #24
     fd0:	11a01000 	movne	r1, r0
     fd4:	e1b02480 	lsls	r2, r0, #9
     fd8:	01b03481 	lslseq	r3, r1, #9
     fdc:	01300001 	teqeq	r0, r1
     fe0:	13800501 	orrne	r0, r0, #4194304	; 0x400000
     fe4:	e12fff1e 	bx	lr

00000fe8 <__aeabi_ui2f>:
     fe8:	e3a03000 	mov	r3, #0
     fec:	ea000001 	b	ff8 <__aeabi_i2f+0x8>

00000ff0 <__aeabi_i2f>:
     ff0:	e2103102 	ands	r3, r0, #-2147483648	; 0x80000000
     ff4:	42600000 	rsbmi	r0, r0, #0
     ff8:	e1b0c000 	movs	r12, r0
     ffc:	012fff1e 	bxeq	lr
    1000:	e383344b 	orr	r3, r3, #1258291200	; 0x4b000000
    1004:	e1a01000 	mov	r1, r0
    1008:	e3a00000 	mov	r0, #0
    100c:	ea00000f 	b	1050 <__aeabi_l2f+0x30>

00001010 <__aeabi_ul2f>:
    1010:	e1902001 	orrs	r2, r0, r1
    1014:	012fff1e 	bxeq	lr
    1018:	e3a03000 	mov	r3, #0
    101c:	ea000005 	b	1038 <__aeabi_l2f+0x18>

00001020 <__aeabi_l2f>:
    1020:	e1902001 	orrs	r2, r0, r1
    1024:	012fff1e 	bxeq	lr
    1028:	e2113102 	ands	r3, r1, #-2147483648	; 0x80000000
    102c:	5a000001 	bpl	1038 <__aeabi_l2f+0x18>
    1030:	e2700000 	rsbs	r0, r0, #0
    1034:	e2e11000 	rsc	r1, r1, #0
    1038:	e1b0c001 	movs	r12, r1
    103c:	01a0c000 	moveq	r12, r0
    1040:	01a01000 	moveq	r1, r0
    1044:	03a00000 	moveq	r0, #0
    1048:	e383345b 	orr	r3, r3, #1526726656	; 0x5b000000
    104c:	02433201 	subeq	r3, r3, #268435456	; 0x10000000
    1050:	e2433502 	sub	r3, r3, #8388608	; 0x800000
    1054:	e3a02017 	mov	r2, #23
    1058:	e35c0801 	cmp	r12, #65536	; 0x10000
    105c:	21a0c82c 	lsrcs	r12, r12, #16
    1060:	22422010 	subcs	r2, r2, #16
    1064:	e35c0c01 	cmp	r12, #256	; 0x100
    1068:	21a0c42c 	lsrcs	r12, r12, #8
    106c:	22422008 	subcs	r2, r2, #8
    1070:	e35c0010 	cmp	r12, #16
    1074:	21a0c22c 	lsrcs	r12, r12, #4
    1078:	22422004 	subcs	r2, r2, #4
    107c:	e35c0004 	cmp	r12, #4
    1080:	22422002 	subcs	r2, r2, #2
    1084:	304220ac 	subcc	r2, r2, r12, lsr #1
    1088:	e05221ac 	subs	r2, r2, r12, lsr #3
    108c:	e0433b82 	sub	r3, r3, r2, lsl #23
    1090:	ba000006 	blt	10b0 <__aeabi_l2f+0x90>
    1094:	e0833211 	add	r3, r3, r1, lsl r2
    1098:	e1a0c210 	lsl	r12, r0, r2
    109c:	e2622020 	rsb	r2, r2, #32
    10a0:	e35c0102 	cmp	r12, #-2147483648	; 0x80000000
    10a4:	e0a30230 	adc	r0, r3, r0, lsr r2
    10a8:	03c00001 	biceq	r0, r0, #1
    10ac:	e12fff1e 	bx	lr
    10b0:	e2822020 	add	r2, r2, #32
    10b4:	e1a0c211 	lsl	r12, r1, r2
    10b8:	e2622020 	rsb	r2, r2, #32
    10bc:	e190008c 	orrs	r0, r0, r12, lsl #1
    10c0:	e0a30231 	adc	r0, r3, r1, lsr r2
    10c4:	01c00fac 	biceq	r0, r0, r12, lsr #31
    10c8:	e12fff1e 	bx	lr

000010cc <atexit>:
    10cc:	e1a01000 	mov	r1, r0
    10d0:	e3a00000 	mov	r0, #0
    10d4:	e92d4008 	push	{r3, lr}
    10d8:	e1a02000 	mov	r2, r0
    10dc:	e1a03000 	mov	r3, r0
    10e0:	eb000ed4 	bl	4c38 <__register_exitproc>
    10e4:	e8bd4008 	pop	{r3, lr}
    10e8:	e12fff1e 	bx	lr

000010ec <exit>:
    10ec:	e92d4008 	push	{r3, lr}
    10f0:	e3a01000 	mov	r1, #0
    10f4:	e1a04000 	mov	r4, r0
    10f8:	eb000f0b 	bl	4d2c <__call_exitprocs>
    10fc:	e59f3018 	ldr	r3, [pc, #24]	; 111c <exit+0x30>
    1100:	e5930000 	ldr	r0, [r3]
    1104:	e590303c 	ldr	r3, [r0, #60]	; 0x3c
    1108:	e3530000 	cmp	r3, #0
    110c:	11a0e00f 	movne	lr, pc
    1110:	112fff13 	bxne	r3
    1114:	e1a00004 	mov	r0, r4
    1118:	eb0047fa 	bl	13108 <_exit>
    111c:	0001387c 	.word	0x0001387c

00001120 <_printf_r>:
    1120:	e92d000e 	push	{r1, r2, r3}
    1124:	e52de004 	push	{lr}		; (str lr, [sp, #-4]!)
    1128:	e24dd008 	sub	sp, sp, #8
    112c:	e28dc010 	add	r12, sp, #16
    1130:	e5901008 	ldr	r1, [r0, #8]
    1134:	e59d200c 	ldr	r2, [sp, #12]
    1138:	e1a0300c 	mov	r3, r12
    113c:	e58dc004 	str	r12, [sp, #4]
    1140:	eb000076 	bl	1320 <_vfprintf_r>
    1144:	e28dd008 	add	sp, sp, #8
    1148:	e49de004 	pop	{lr}		; (ldr lr, [sp], #4)
    114c:	e28dd00c 	add	sp, sp, #12
    1150:	e12fff1e 	bx	lr

00001154 <printf>:
    1154:	e92d000f 	push	{r0, r1, r2, r3}
    1158:	e52de004 	push	{lr}		; (str lr, [sp, #-4]!)
    115c:	e59f302c 	ldr	r3, [pc, #44]	; 1190 <printf+0x3c>
    1160:	e24dd00c 	sub	sp, sp, #12
    1164:	e5930000 	ldr	r0, [r3]
    1168:	e28dc014 	add	r12, sp, #20
    116c:	e5901008 	ldr	r1, [r0, #8]
    1170:	e59d2010 	ldr	r2, [sp, #16]
    1174:	e1a0300c 	mov	r3, r12
    1178:	e58dc004 	str	r12, [sp, #4]
    117c:	eb000067 	bl	1320 <_vfprintf_r>
    1180:	e28dd00c 	add	sp, sp, #12
    1184:	e49de004 	pop	{lr}		; (ldr lr, [sp], #4)
    1188:	e28dd010 	add	sp, sp, #16
    118c:	e12fff1e 	bx	lr
    1190:	00013c78 	.word	0x00013c78

00001194 <_puts_r>:
    1194:	e92d4030 	push	{r4, r5, lr}
    1198:	e1a05000 	mov	r5, r0
    119c:	e24dd024 	sub	sp, sp, #36	; 0x24
    11a0:	e1a00001 	mov	r0, r1
    11a4:	e1a04001 	mov	r4, r1
    11a8:	eb000044 	bl	12c0 <strlen>
    11ac:	e59f307c 	ldr	r3, [pc, #124]	; 1230 <_puts_r+0x9c>
    11b0:	e5933000 	ldr	r3, [r3]
    11b4:	e1a02000 	mov	r2, r0
    11b8:	e5933008 	ldr	r3, [r3, #8]
    11bc:	e58d2014 	str	r2, [sp, #20]
    11c0:	e59f206c 	ldr	r2, [pc, #108]	; 1234 <_puts_r+0xa0>
    11c4:	e1d310bc 	ldrh	r1, [r3, #12]
    11c8:	e58d2018 	str	r2, [sp, #24]
    11cc:	e3a02001 	mov	r2, #1
    11d0:	e58d201c 	str	r2, [sp, #28]
    11d4:	e28d2010 	add	r2, sp, #16
    11d8:	e3110a02 	tst	r1, #8192	; 0x2000
    11dc:	e58d2004 	str	r2, [sp, #4]
    11e0:	e3a02002 	mov	r2, #2
    11e4:	e58d2008 	str	r2, [sp, #8]
    11e8:	05932064 	ldreq	r2, [r3, #100]	; 0x64
    11ec:	03811a02 	orreq	r1, r1, #8192	; 0x2000
    11f0:	03c22a02 	biceq	r2, r2, #8192	; 0x2000
    11f4:	e2800001 	add	r0, r0, #1
    11f8:	01c310bc 	strheq	r1, [r3, #12]
    11fc:	05832064 	streq	r2, [r3, #100]	; 0x64
    1200:	e58d000c 	str	r0, [sp, #12]
    1204:	e5951008 	ldr	r1, [r5, #8]
    1208:	e1a00005 	mov	r0, r5
    120c:	e28d2004 	add	r2, sp, #4
    1210:	e58d4010 	str	r4, [sp, #16]
    1214:	eb00181d 	bl	7290 <__sfvwrite_r>
    1218:	e3500000 	cmp	r0, #0
    121c:	03a0000a 	moveq	r0, #10
    1220:	13e00000 	mvnne	r0, #0
    1224:	e28dd024 	add	sp, sp, #36	; 0x24
    1228:	e8bd4030 	pop	{r4, r5, lr}
    122c:	e12fff1e 	bx	lr
    1230:	00013c78 	.word	0x00013c78
    1234:	00013850 	.word	0x00013850

00001238 <puts>:
    1238:	e59f3008 	ldr	r3, [pc, #8]	; 1248 <puts+0x10>
    123c:	e1a01000 	mov	r1, r0
    1240:	e5930000 	ldr	r0, [r3]
    1244:	eaffffd2 	b	1194 <_puts_r>
    1248:	00013c78 	.word	0x00013c78

0000124c <scanf>:
    124c:	e92d000f 	push	{r0, r1, r2, r3}
    1250:	e52de004 	push	{lr}		; (str lr, [sp, #-4]!)
    1254:	e59f302c 	ldr	r3, [pc, #44]	; 1288 <scanf+0x3c>
    1258:	e24dd00c 	sub	sp, sp, #12
    125c:	e5930000 	ldr	r0, [r3]
    1260:	e28dc014 	add	r12, sp, #20
    1264:	e5901004 	ldr	r1, [r0, #4]
    1268:	e59d2010 	ldr	r2, [sp, #16]
    126c:	e1a0300c 	mov	r3, r12
    1270:	e58dc004 	str	r12, [sp, #4]
    1274:	eb000889 	bl	34a0 <__svfscanf_r>
    1278:	e28dd00c 	add	sp, sp, #12
    127c:	e49de004 	pop	{lr}		; (ldr lr, [sp], #4)
    1280:	e28dd010 	add	sp, sp, #16
    1284:	e12fff1e 	bx	lr
    1288:	00013c78 	.word	0x00013c78

0000128c <_scanf_r>:
    128c:	e92d000e 	push	{r1, r2, r3}
    1290:	e52de004 	push	{lr}		; (str lr, [sp, #-4]!)
    1294:	e24dd008 	sub	sp, sp, #8
    1298:	e28dc010 	add	r12, sp, #16
    129c:	e5901004 	ldr	r1, [r0, #4]
    12a0:	e59d200c 	ldr	r2, [sp, #12]
    12a4:	e1a0300c 	mov	r3, r12
    12a8:	e58dc004 	str	r12, [sp, #4]
    12ac:	eb00087b 	bl	34a0 <__svfscanf_r>
    12b0:	e28dd008 	add	sp, sp, #8
    12b4:	e49de004 	pop	{lr}		; (ldr lr, [sp], #4)
    12b8:	e28dd00c 	add	sp, sp, #12
    12bc:	e12fff1e 	bx	lr

000012c0 <strlen>:
    12c0:	e3c01003 	bic	r1, r0, #3
    12c4:	e2100003 	ands	r0, r0, #3
    12c8:	e2600000 	rsb	r0, r0, #0
    12cc:	e4913004 	ldr	r3, [r1], #4
    12d0:	e280c004 	add	r12, r0, #4
    12d4:	e1a0c18c 	lsl	r12, r12, #3
    12d8:	e3e02000 	mvn	r2, #0
    12dc:	11833c32 	orrne	r3, r3, r2, lsr r12
    12e0:	e3a0c001 	mov	r12, #1
    12e4:	e18cc40c 	orr	r12, r12, r12, lsl #8
    12e8:	e18cc80c 	orr	r12, r12, r12, lsl #16
    12ec:	e043200c 	sub	r2, r3, r12
    12f0:	e1c22003 	bic	r2, r2, r3
    12f4:	e012238c 	ands	r2, r2, r12, lsl #7
    12f8:	04913004 	ldreq	r3, [r1], #4
    12fc:	02800004 	addeq	r0, r0, #4
    1300:	0afffff9 	beq	12ec <strlen+0x2c>
    1304:	e31300ff 	tst	r3, #255	; 0xff
    1308:	12800001 	addne	r0, r0, #1
    130c:	13130cff 	tstne	r3, #65280	; 0xff00
    1310:	12800001 	addne	r0, r0, #1
    1314:	131308ff 	tstne	r3, #16711680	; 0xff0000
    1318:	12800001 	addne	r0, r0, #1
    131c:	e12fff1e 	bx	lr

00001320 <_vfprintf_r>:
    1320:	e92d4ff0 	push	{r4, r5, r6, r7, r8, r9, r10, r11, lr}
    1324:	e24ddd15 	sub	sp, sp, #1344	; 0x540
    1328:	e24dd004 	sub	sp, sp, #4
    132c:	e1a09001 	mov	r9, r1
    1330:	e1a04002 	mov	r4, r2
    1334:	e58d303c 	str	r3, [sp, #60]	; 0x3c
    1338:	e58d002c 	str	r0, [sp, #44]	; 0x2c
    133c:	eb001979 	bl	7928 <_localeconv_r>
    1340:	e5900000 	ldr	r0, [r0]
    1344:	e58d0058 	str	r0, [sp, #88]	; 0x58
    1348:	ebffffdc 	bl	12c0 <strlen>
    134c:	e59d602c 	ldr	r6, [sp, #44]	; 0x2c
    1350:	e3a0b000 	mov	r11, #0
    1354:	e3a0c000 	mov	r12, #0
    1358:	e3560000 	cmp	r6, #0
    135c:	e58d0064 	str	r0, [sp, #100]	; 0x64
    1360:	e58db068 	str	r11, [sp, #104]	; 0x68
    1364:	e58dc06c 	str	r12, [sp, #108]	; 0x6c
    1368:	0a000002 	beq	1378 <_vfprintf_r+0x58>
    136c:	e5963038 	ldr	r3, [r6, #56]	; 0x38
    1370:	e3530000 	cmp	r3, #0
    1374:	0a000101 	beq	1780 <_vfprintf_r+0x460>
    1378:	e1d980bc 	ldrh	r8, [r9, #12]
    137c:	e3180a02 	tst	r8, #8192	; 0x2000
    1380:	05993064 	ldreq	r3, [r9, #100]	; 0x64
    1384:	03888a02 	orreq	r8, r8, #8192	; 0x2000
    1388:	03c33a02 	biceq	r3, r3, #8192	; 0x2000
    138c:	01c980bc 	strheq	r8, [r9, #12]
    1390:	05893064 	streq	r3, [r9, #100]	; 0x64
    1394:	e3180008 	tst	r8, #8
    1398:	0a0000aa 	beq	1648 <_vfprintf_r+0x328>
    139c:	e5993010 	ldr	r3, [r9, #16]
    13a0:	e3530000 	cmp	r3, #0
    13a4:	0a0000a7 	beq	1648 <_vfprintf_r+0x328>
    13a8:	e208301a 	and	r3, r8, #26
    13ac:	e353000a 	cmp	r3, #10
    13b0:	0a0000c4 	beq	16c8 <_vfprintf_r+0x3a8>
    13b4:	e28d60d8 	add	r6, sp, #216	; 0xd8
    13b8:	e28d70d7 	add	r7, sp, #215	; 0xd7
    13bc:	e3a03000 	mov	r3, #0
    13c0:	e28dbd05 	add	r11, sp, #320	; 0x140
    13c4:	e58d4028 	str	r4, [sp, #40]	; 0x28
    13c8:	e0674006 	rsb	r4, r7, r6
    13cc:	e58d3044 	str	r3, [sp, #68]	; 0x44
    13d0:	e58d6054 	str	r6, [sp, #84]	; 0x54
    13d4:	e58d705c 	str	r7, [sp, #92]	; 0x5c
    13d8:	e58db0a4 	str	r11, [sp, #164]	; 0xa4
    13dc:	e58d30ac 	str	r3, [sp, #172]	; 0xac
    13e0:	e58d30a8 	str	r3, [sp, #168]	; 0xa8
    13e4:	e58d3074 	str	r3, [sp, #116]	; 0x74
    13e8:	e58d3070 	str	r3, [sp, #112]	; 0x70
    13ec:	e58d3034 	str	r3, [sp, #52]	; 0x34
    13f0:	e58d407c 	str	r4, [sp, #124]	; 0x7c
    13f4:	e58d901c 	str	r9, [sp, #28]
    13f8:	e1a0c00b 	mov	r12, r11
    13fc:	e1a0500b 	mov	r5, r11
    1400:	e59d6028 	ldr	r6, [sp, #40]	; 0x28
    1404:	e5d63000 	ldrb	r3, [r6]
    1408:	e3530025 	cmp	r3, #37	; 0x25
    140c:	13530000 	cmpne	r3, #0
    1410:	0a0000dd 	beq	178c <_vfprintf_r+0x46c>
    1414:	e2863001 	add	r3, r6, #1
    1418:	e1a07003 	mov	r7, r3
    141c:	e5d33000 	ldrb	r3, [r3]
    1420:	e3530025 	cmp	r3, #37	; 0x25
    1424:	13530000 	cmpne	r3, #0
    1428:	e2873001 	add	r3, r7, #1
    142c:	1afffff9 	bne	1418 <_vfprintf_r+0xf8>
    1430:	e59dc028 	ldr	r12, [sp, #40]	; 0x28
    1434:	e057800c 	subs	r8, r7, r12
    1438:	0a00000d 	beq	1474 <_vfprintf_r+0x154>
    143c:	e28d40a8 	add	r4, sp, #168	; 0xa8
    1440:	e8940050 	ldm	r4, {r4, r6}
    1444:	e2844001 	add	r4, r4, #1
    1448:	e0866008 	add	r6, r6, r8
    144c:	e3540007 	cmp	r4, #7
    1450:	e585c000 	str	r12, [r5]
    1454:	e5858004 	str	r8, [r5, #4]
    1458:	e58d60ac 	str	r6, [sp, #172]	; 0xac
    145c:	e58d40a8 	str	r4, [sp, #168]	; 0xa8
    1460:	d2855008 	addle	r5, r5, #8
    1464:	ca000084 	bgt	167c <_vfprintf_r+0x35c>
    1468:	e59d4034 	ldr	r4, [sp, #52]	; 0x34
    146c:	e0844008 	add	r4, r4, r8
    1470:	e58d4034 	str	r4, [sp, #52]	; 0x34
    1474:	e5d73000 	ldrb	r3, [r7]
    1478:	e3530000 	cmp	r3, #0
    147c:	0a000699 	beq	2ee8 <_vfprintf_r+0x1bc8>
    1480:	e2876001 	add	r6, r7, #1
    1484:	e3a03000 	mov	r3, #0
    1488:	e58d6028 	str	r6, [sp, #40]	; 0x28
    148c:	e5d78001 	ldrb	r8, [r7, #1]
    1490:	e58d3030 	str	r3, [sp, #48]	; 0x30
    1494:	e5cd3083 	strb	r3, [sp, #131]	; 0x83
    1498:	e58d3018 	str	r3, [sp, #24]
    149c:	e3e04000 	mvn	r4, #0
    14a0:	e3a01020 	mov	r1, #32
    14a4:	e3a0202b 	mov	r2, #43	; 0x2b
    14a8:	e1a03006 	mov	r3, r6
    14ac:	e2833001 	add	r3, r3, #1
    14b0:	e2480020 	sub	r0, r8, #32
    14b4:	e3500058 	cmp	r0, #88	; 0x58
    14b8:	979ff100 	ldrls	pc, [pc, r0, lsl #2]
    14bc:	ea000224 	b	1d54 <_vfprintf_r+0xa34>
    14c0:	00001d90 	.word	0x00001d90
    14c4:	00001d54 	.word	0x00001d54
    14c8:	00001d54 	.word	0x00001d54
    14cc:	00001da8 	.word	0x00001da8
    14d0:	00001d54 	.word	0x00001d54
    14d4:	00001d54 	.word	0x00001d54
    14d8:	00001d54 	.word	0x00001d54
    14dc:	00001d54 	.word	0x00001d54
    14e0:	00001d54 	.word	0x00001d54
    14e4:	00001d54 	.word	0x00001d54
    14e8:	00001dbc 	.word	0x00001dbc
    14ec:	00001794 	.word	0x00001794
    14f0:	00001d54 	.word	0x00001d54
    14f4:	00001634 	.word	0x00001634
    14f8:	000017a0 	.word	0x000017a0
    14fc:	00001d54 	.word	0x00001d54
    1500:	000017ec 	.word	0x000017ec
    1504:	00001800 	.word	0x00001800
    1508:	00001800 	.word	0x00001800
    150c:	00001800 	.word	0x00001800
    1510:	00001800 	.word	0x00001800
    1514:	00001800 	.word	0x00001800
    1518:	00001800 	.word	0x00001800
    151c:	00001800 	.word	0x00001800
    1520:	00001800 	.word	0x00001800
    1524:	00001800 	.word	0x00001800
    1528:	00001d54 	.word	0x00001d54
    152c:	00001d54 	.word	0x00001d54
    1530:	00001d54 	.word	0x00001d54
    1534:	00001d54 	.word	0x00001d54
    1538:	00001d54 	.word	0x00001d54
    153c:	00001d54 	.word	0x00001d54
    1540:	00001d54 	.word	0x00001d54
    1544:	00001d54 	.word	0x00001d54
    1548:	00001d54 	.word	0x00001d54
    154c:	00001d54 	.word	0x00001d54
    1550:	00001830 	.word	0x00001830
    1554:	00001a6c 	.word	0x00001a6c
    1558:	00001d54 	.word	0x00001d54
    155c:	00001a6c 	.word	0x00001a6c
    1560:	00001d54 	.word	0x00001d54
    1564:	00001d54 	.word	0x00001d54
    1568:	00001d54 	.word	0x00001d54
    156c:	00001d54 	.word	0x00001d54
    1570:	00001b1c 	.word	0x00001b1c
    1574:	00001d54 	.word	0x00001d54
    1578:	00001d54 	.word	0x00001d54
    157c:	00001b30 	.word	0x00001b30
    1580:	00001d54 	.word	0x00001d54
    1584:	00001d54 	.word	0x00001d54
    1588:	00001d54 	.word	0x00001d54
    158c:	00001d54 	.word	0x00001d54
    1590:	00001d54 	.word	0x00001d54
    1594:	00001b80 	.word	0x00001b80
    1598:	00001d54 	.word	0x00001d54
    159c:	00001d54 	.word	0x00001d54
    15a0:	00001bc8 	.word	0x00001bc8
    15a4:	00001d54 	.word	0x00001d54
    15a8:	00001d54 	.word	0x00001d54
    15ac:	00001d54 	.word	0x00001d54
    15b0:	00001d54 	.word	0x00001d54
    15b4:	00001d54 	.word	0x00001d54
    15b8:	00001d54 	.word	0x00001d54
    15bc:	00001d54 	.word	0x00001d54
    15c0:	00001d54 	.word	0x00001d54
    15c4:	00001d54 	.word	0x00001d54
    15c8:	00001d54 	.word	0x00001d54
    15cc:	00001ec4 	.word	0x00001ec4
    15d0:	00001e6c 	.word	0x00001e6c
    15d4:	00001a6c 	.word	0x00001a6c
    15d8:	00001a6c 	.word	0x00001a6c
    15dc:	00001a6c 	.word	0x00001a6c
    15e0:	00001eb0 	.word	0x00001eb0
    15e4:	00001e6c 	.word	0x00001e6c
    15e8:	00001d54 	.word	0x00001d54
    15ec:	00001d54 	.word	0x00001d54
    15f0:	00001cac 	.word	0x00001cac
    15f4:	00001d54 	.word	0x00001d54
    15f8:	00001cdc 	.word	0x00001cdc
    15fc:	00001d10 	.word	0x00001d10
    1600:	00001f00 	.word	0x00001f00
    1604:	00001c18 	.word	0x00001c18
    1608:	00001d54 	.word	0x00001d54
    160c:	00001c2c 	.word	0x00001c2c
    1610:	00001d54 	.word	0x00001d54
    1614:	00001de4 	.word	0x00001de4
    1618:	00001d54 	.word	0x00001d54
    161c:	00001d54 	.word	0x00001d54
    1620:	00001e2c 	.word	0x00001e2c
    1624:	e59d6030 	ldr	r6, [sp, #48]	; 0x30
    1628:	e2666000 	rsb	r6, r6, #0
    162c:	e58d6030 	str	r6, [sp, #48]	; 0x30
    1630:	e58d003c 	str	r0, [sp, #60]	; 0x3c
    1634:	e59d7018 	ldr	r7, [sp, #24]
    1638:	e3877004 	orr	r7, r7, #4
    163c:	e58d7018 	str	r7, [sp, #24]
    1640:	e5d38000 	ldrb	r8, [r3]
    1644:	eaffff98 	b	14ac <_vfprintf_r+0x18c>
    1648:	e59d002c 	ldr	r0, [sp, #44]	; 0x2c
    164c:	e1a01009 	mov	r1, r9
    1650:	eb000d2a 	bl	4b00 <__swsetup_r>
    1654:	e3500000 	cmp	r0, #0
    1658:	01d980bc 	ldrheq	r8, [r9, #12]
    165c:	0affff51 	beq	13a8 <_vfprintf_r+0x88>
    1660:	e3e0c000 	mvn	r12, #0
    1664:	e58dc034 	str	r12, [sp, #52]	; 0x34
    1668:	e59d0034 	ldr	r0, [sp, #52]	; 0x34
    166c:	e28ddf51 	add	sp, sp, #324	; 0x144
    1670:	e28ddb01 	add	sp, sp, #1024	; 0x400
    1674:	e8bd4ff0 	pop	{r4, r5, r6, r7, r8, r9, r10, r11, lr}
    1678:	e12fff1e 	bx	lr
    167c:	e59d002c 	ldr	r0, [sp, #44]	; 0x2c
    1680:	e59d101c 	ldr	r1, [sp, #28]
    1684:	e28d20a4 	add	r2, sp, #164	; 0xa4
    1688:	eb00339f 	bl	e50c <__sprint_r>
    168c:	e3500000 	cmp	r0, #0
    1690:	1a000007 	bne	16b4 <_vfprintf_r+0x394>
    1694:	e28d5d05 	add	r5, sp, #320	; 0x140
    1698:	eaffff72 	b	1468 <_vfprintf_r+0x148>
    169c:	e59d002c 	ldr	r0, [sp, #44]	; 0x2c
    16a0:	e59d101c 	ldr	r1, [sp, #28]
    16a4:	e28d20a4 	add	r2, sp, #164	; 0xa4
    16a8:	eb003397 	bl	e50c <__sprint_r>
    16ac:	e3500000 	cmp	r0, #0
    16b0:	0a0002d2 	beq	2200 <_vfprintf_r+0xee0>
    16b4:	e59d901c 	ldr	r9, [sp, #28]
    16b8:	e1d930bc 	ldrh	r3, [r9, #12]
    16bc:	e3130040 	tst	r3, #64	; 0x40
    16c0:	1affffe6 	bne	1660 <_vfprintf_r+0x340>
    16c4:	eaffffe7 	b	1668 <_vfprintf_r+0x348>
    16c8:	e1d9c0be 	ldrh	r12, [r9, #14]
    16cc:	e31c0902 	tst	r12, #32768	; 0x8000
    16d0:	1affff37 	bne	13b4 <_vfprintf_r+0x94>
    16d4:	e1a02004 	mov	r2, r4
    16d8:	e59f4fb0 	ldr	r4, [pc, #4016]	; 2690 <_vfprintf_r+0x1370>
    16dc:	e28dbd15 	add	r11, sp, #1344	; 0x540
    16e0:	e3c88002 	bic	r8, r8, #2
    16e4:	e18b80b4 	strh	r8, [r11, r4]
    16e8:	e5997064 	ldr	r7, [r9, #100]	; 0x64
    16ec:	e599601c 	ldr	r6, [r9, #28]
    16f0:	e599a024 	ldr	r10, [r9, #36]	; 0x24
    16f4:	e2844002 	add	r4, r4, #2
    16f8:	e3a0eb01 	mov	lr, #1024	; 0x400
    16fc:	e28d5d05 	add	r5, sp, #320	; 0x140
    1700:	e18bc0b4 	strh	r12, [r11, r4]
    1704:	e59d002c 	ldr	r0, [sp, #44]	; 0x2c
    1708:	e3a0c000 	mov	r12, #0
    170c:	e28d10d8 	add	r1, sp, #216	; 0xd8
    1710:	e59d303c 	ldr	r3, [sp, #60]	; 0x3c
    1714:	e58d713c 	str	r7, [sp, #316]	; 0x13c
    1718:	e58d60f4 	str	r6, [sp, #244]	; 0xf4
    171c:	e58da0fc 	str	r10, [sp, #252]	; 0xfc
    1720:	e58d50d8 	str	r5, [sp, #216]	; 0xd8
    1724:	e58d50e8 	str	r5, [sp, #232]	; 0xe8
    1728:	e58de0e0 	str	lr, [sp, #224]	; 0xe0
    172c:	e58de0ec 	str	lr, [sp, #236]	; 0xec
    1730:	e58dc0f0 	str	r12, [sp, #240]	; 0xf0
    1734:	ebfffef9 	bl	1320 <_vfprintf_r>
    1738:	e3500000 	cmp	r0, #0
    173c:	e58d0034 	str	r0, [sp, #52]	; 0x34
    1740:	ba000006 	blt	1760 <_vfprintf_r+0x440>
    1744:	e59d002c 	ldr	r0, [sp, #44]	; 0x2c
    1748:	e28d10d8 	add	r1, sp, #216	; 0xd8
    174c:	eb001409 	bl	6778 <_fflush_r>
    1750:	e59dc034 	ldr	r12, [sp, #52]	; 0x34
    1754:	e3500000 	cmp	r0, #0
    1758:	13e0c000 	mvnne	r12, #0
    175c:	e58dc034 	str	r12, [sp, #52]	; 0x34
    1760:	e59f3f28 	ldr	r3, [pc, #3880]	; 2690 <_vfprintf_r+0x1370>
    1764:	e28d0d15 	add	r0, sp, #1344	; 0x540
    1768:	e19030b3 	ldrh	r3, [r0, r3]
    176c:	e3130040 	tst	r3, #64	; 0x40
    1770:	11d930bc 	ldrhne	r3, [r9, #12]
    1774:	13833040 	orrne	r3, r3, #64	; 0x40
    1778:	11c930bc 	strhne	r3, [r9, #12]
    177c:	eaffffb9 	b	1668 <_vfprintf_r+0x348>
    1780:	e1a00006 	mov	r0, r6
    1784:	eb0014d5 	bl	6ae0 <__sinit>
    1788:	eafffefa 	b	1378 <_vfprintf_r+0x58>
    178c:	e59d7028 	ldr	r7, [sp, #40]	; 0x28
    1790:	eaffff37 	b	1474 <_vfprintf_r+0x154>
    1794:	e5cd2083 	strb	r2, [sp, #131]	; 0x83
    1798:	e5d38000 	ldrb	r8, [r3]
    179c:	eaffff42 	b	14ac <_vfprintf_r+0x18c>
    17a0:	e1a0c003 	mov	r12, r3
    17a4:	e4dc8001 	ldrb	r8, [r12], #1
    17a8:	e358002a 	cmp	r8, #42	; 0x2a
    17ac:	0a000717 	beq	3410 <_vfprintf_r+0x20f0>
    17b0:	e2480030 	sub	r0, r8, #48	; 0x30
    17b4:	e3500009 	cmp	r0, #9
    17b8:	81a0300c 	movhi	r3, r12
    17bc:	83a04000 	movhi	r4, #0
    17c0:	8affff3a 	bhi	14b0 <_vfprintf_r+0x190>
    17c4:	e3a04000 	mov	r4, #0
    17c8:	e4dc8001 	ldrb	r8, [r12], #1
    17cc:	e0844104 	add	r4, r4, r4, lsl #2
    17d0:	e0804084 	add	r4, r0, r4, lsl #1
    17d4:	e2480030 	sub	r0, r8, #48	; 0x30
    17d8:	e3500009 	cmp	r0, #9
    17dc:	e1a0300c 	mov	r3, r12
    17e0:	9afffff8 	bls	17c8 <_vfprintf_r+0x4a8>
    17e4:	e1844fc4 	orr	r4, r4, r4, asr #31
    17e8:	eaffff30 	b	14b0 <_vfprintf_r+0x190>
    17ec:	e59dc018 	ldr	r12, [sp, #24]
    17f0:	e38cc080 	orr	r12, r12, #128	; 0x80
    17f4:	e58dc018 	str	r12, [sp, #24]
    17f8:	e5d38000 	ldrb	r8, [r3]
    17fc:	eaffff2a 	b	14ac <_vfprintf_r+0x18c>
    1800:	e1a0c003 	mov	r12, r3
    1804:	e3a00000 	mov	r0, #0
    1808:	e2483030 	sub	r3, r8, #48	; 0x30
    180c:	e4dc8001 	ldrb	r8, [r12], #1
    1810:	e2486030 	sub	r6, r8, #48	; 0x30
    1814:	e0800100 	add	r0, r0, r0, lsl #2
    1818:	e3560009 	cmp	r6, #9
    181c:	e0830080 	add	r0, r3, r0, lsl #1
    1820:	e1a0300c 	mov	r3, r12
    1824:	9afffff7 	bls	1808 <_vfprintf_r+0x4e8>
    1828:	e58d0030 	str	r0, [sp, #48]	; 0x30
    182c:	eaffff1f 	b	14b0 <_vfprintf_r+0x190>
    1830:	e59d6018 	ldr	r6, [sp, #24]
    1834:	e3866010 	orr	r6, r6, #16
    1838:	e58d6018 	str	r6, [sp, #24]
    183c:	e59d7018 	ldr	r7, [sp, #24]
    1840:	e3170020 	tst	r7, #32
    1844:	e58d3028 	str	r3, [sp, #40]	; 0x28
    1848:	0a00018b 	beq	1e7c <_vfprintf_r+0xb5c>
    184c:	e59db03c 	ldr	r11, [sp, #60]	; 0x3c
    1850:	e28b1007 	add	r1, r11, #7
    1854:	e3c11007 	bic	r1, r1, #7
    1858:	e891000c 	ldm	r1, {r2, r3}
    185c:	e2811008 	add	r1, r1, #8
    1860:	e58d103c 	str	r1, [sp, #60]	; 0x3c
    1864:	e1a06002 	mov	r6, r2
    1868:	e1a07003 	mov	r7, r3
    186c:	e3520000 	cmp	r2, #0
    1870:	e2d30000 	sbcs	r0, r3, #0
    1874:	ba0004ae 	blt	2b34 <_vfprintf_r+0x1814>
    1878:	e1961007 	orrs	r1, r6, r7
    187c:	03a02000 	moveq	r2, #0
    1880:	13a02001 	movne	r2, #1
    1884:	e3a03001 	mov	r3, #1
    1888:	e3540000 	cmp	r4, #0
    188c:	a59dc018 	ldrge	r12, [sp, #24]
    1890:	a3ccc080 	bicge	r12, r12, #128	; 0x80
    1894:	a58dc018 	strge	r12, [sp, #24]
    1898:	e3540000 	cmp	r4, #0
    189c:	13822001 	orrne	r2, r2, #1
    18a0:	e3520000 	cmp	r2, #0
    18a4:	0a0002a4 	beq	233c <_vfprintf_r+0x101c>
    18a8:	e3530001 	cmp	r3, #1
    18ac:	0a000397 	beq	2710 <_vfprintf_r+0x13f0>
    18b0:	e3530002 	cmp	r3, #2
    18b4:	e59dc05c 	ldr	r12, [sp, #92]	; 0x5c
    18b8:	0a000380 	beq	26c0 <_vfprintf_r+0x13a0>
    18bc:	e3a00007 	mov	r0, #7
    18c0:	e1a0a1a6 	lsr	r10, r6, #3
    18c4:	e18aae87 	orr	r10, r10, r7, lsl #29
    18c8:	e0062000 	and	r2, r6, r0
    18cc:	e1a031a7 	lsr	r3, r7, #3
    18d0:	e1a07003 	mov	r7, r3
    18d4:	e1a0600a 	mov	r6, r10
    18d8:	e2822030 	add	r2, r2, #48	; 0x30
    18dc:	e20220ff 	and	r2, r2, #255	; 0xff
    18e0:	e196b007 	orrs	r11, r6, r7
    18e4:	e1a0300c 	mov	r3, r12
    18e8:	e5cc2000 	strb	r2, [r12]
    18ec:	e24cc001 	sub	r12, r12, #1
    18f0:	1afffff2 	bne	18c0 <_vfprintf_r+0x5a0>
    18f4:	e59d6018 	ldr	r6, [sp, #24]
    18f8:	e3160001 	tst	r6, #1
    18fc:	e58d304c 	str	r3, [sp, #76]	; 0x4c
    1900:	1a00047f 	bne	2b04 <_vfprintf_r+0x17e4>
    1904:	e59d7054 	ldr	r7, [sp, #84]	; 0x54
    1908:	e0637007 	rsb	r7, r3, r7
    190c:	e58d7038 	str	r7, [sp, #56]	; 0x38
    1910:	e59d7038 	ldr	r7, [sp, #56]	; 0x38
    1914:	e3a0b000 	mov	r11, #0
    1918:	e1570004 	cmp	r7, r4
    191c:	b1a07004 	movlt	r7, r4
    1920:	e58d7020 	str	r7, [sp, #32]
    1924:	e5dd3083 	ldrb	r3, [sp, #131]	; 0x83
    1928:	e58d4040 	str	r4, [sp, #64]	; 0x40
    192c:	e58db060 	str	r11, [sp, #96]	; 0x60
    1930:	e3530000 	cmp	r3, #0
    1934:	0a000002 	beq	1944 <_vfprintf_r+0x624>
    1938:	e59d7020 	ldr	r7, [sp, #32]
    193c:	e2877001 	add	r7, r7, #1
    1940:	e58d7020 	str	r7, [sp, #32]
    1944:	e59db018 	ldr	r11, [sp, #24]
    1948:	e21bb002 	ands	r11, r11, #2
    194c:	159dc020 	ldrne	r12, [sp, #32]
    1950:	e59d3018 	ldr	r3, [sp, #24]
    1954:	128cc002 	addne	r12, r12, #2
    1958:	158dc020 	strne	r12, [sp, #32]
    195c:	e2133084 	ands	r3, r3, #132	; 0x84
    1960:	e58db048 	str	r11, [sp, #72]	; 0x48
    1964:	e58d3050 	str	r3, [sp, #80]	; 0x50
    1968:	1a000178 	bne	1f50 <_vfprintf_r+0xc30>
    196c:	e59d4030 	ldr	r4, [sp, #48]	; 0x30
    1970:	e59d6020 	ldr	r6, [sp, #32]
    1974:	e0667004 	rsb	r7, r6, r4
    1978:	e3570000 	cmp	r7, #0
    197c:	da000173 	ble	1f50 <_vfprintf_r+0xc30>
    1980:	e28d40a8 	add	r4, sp, #168	; 0xa8
    1984:	e3570010 	cmp	r7, #16
    1988:	e8940050 	ldm	r4, {r4, r6}
    198c:	e59f9d00 	ldr	r9, [pc, #3328]	; 2694 <_vfprintf_r+0x1374>
    1990:	da000023 	ble	1a24 <_vfprintf_r+0x704>
    1994:	e28da0a4 	add	r10, sp, #164	; 0xa4
    1998:	e1a03009 	mov	r3, r9
    199c:	e58d8078 	str	r8, [sp, #120]	; 0x78
    19a0:	e1a09007 	mov	r9, r7
    19a4:	e1a0800a 	mov	r8, r10
    19a8:	e3a0b010 	mov	r11, #16
    19ac:	e59da02c 	ldr	r10, [sp, #44]	; 0x2c
    19b0:	e1a07003 	mov	r7, r3
    19b4:	ea000002 	b	19c4 <_vfprintf_r+0x6a4>
    19b8:	e2499010 	sub	r9, r9, #16
    19bc:	e3590010 	cmp	r9, #16
    19c0:	da000013 	ble	1a14 <_vfprintf_r+0x6f4>
    19c4:	e2844001 	add	r4, r4, #1
    19c8:	e3540007 	cmp	r4, #7
    19cc:	e2866010 	add	r6, r6, #16
    19d0:	e8850880 	stm	r5, {r7, r11}
    19d4:	e58d60ac 	str	r6, [sp, #172]	; 0xac
    19d8:	e58d40a8 	str	r4, [sp, #168]	; 0xa8
    19dc:	d2855008 	addle	r5, r5, #8
    19e0:	dafffff4 	ble	19b8 <_vfprintf_r+0x698>
    19e4:	e1a0000a 	mov	r0, r10
    19e8:	e59d101c 	ldr	r1, [sp, #28]
    19ec:	e1a02008 	mov	r2, r8
    19f0:	eb0032c5 	bl	e50c <__sprint_r>
    19f4:	e3500000 	cmp	r0, #0
    19f8:	1affff2d 	bne	16b4 <_vfprintf_r+0x394>
    19fc:	e2499010 	sub	r9, r9, #16
    1a00:	e28d40a8 	add	r4, sp, #168	; 0xa8
    1a04:	e3590010 	cmp	r9, #16
    1a08:	e8940050 	ldm	r4, {r4, r6}
    1a0c:	e28d5d05 	add	r5, sp, #320	; 0x140
    1a10:	caffffeb 	bgt	19c4 <_vfprintf_r+0x6a4>
    1a14:	e1a03007 	mov	r3, r7
    1a18:	e59d8078 	ldr	r8, [sp, #120]	; 0x78
    1a1c:	e1a07009 	mov	r7, r9
    1a20:	e1a09003 	mov	r9, r3
    1a24:	e2844001 	add	r4, r4, #1
    1a28:	e0866007 	add	r6, r6, r7
    1a2c:	e3540007 	cmp	r4, #7
    1a30:	e5859000 	str	r9, [r5]
    1a34:	e5857004 	str	r7, [r5, #4]
    1a38:	e58d60ac 	str	r6, [sp, #172]	; 0xac
    1a3c:	e58d40a8 	str	r4, [sp, #168]	; 0xa8
    1a40:	d2855008 	addle	r5, r5, #8
    1a44:	da000142 	ble	1f54 <_vfprintf_r+0xc34>
    1a48:	e59d002c 	ldr	r0, [sp, #44]	; 0x2c
    1a4c:	e59d101c 	ldr	r1, [sp, #28]
    1a50:	e28d20a4 	add	r2, sp, #164	; 0xa4
    1a54:	eb0032ac 	bl	e50c <__sprint_r>
    1a58:	e3500000 	cmp	r0, #0
    1a5c:	1affff14 	bne	16b4 <_vfprintf_r+0x394>
    1a60:	e59d60ac 	ldr	r6, [sp, #172]	; 0xac
    1a64:	e28d5d05 	add	r5, sp, #320	; 0x140
    1a68:	ea000139 	b	1f54 <_vfprintf_r+0xc34>
    1a6c:	e59d6018 	ldr	r6, [sp, #24]
    1a70:	e3160008 	tst	r6, #8
    1a74:	e58d3028 	str	r3, [sp, #40]	; 0x28
    1a78:	0a000493 	beq	2ccc <_vfprintf_r+0x19ac>
    1a7c:	e59d703c 	ldr	r7, [sp, #60]	; 0x3c
    1a80:	e2871007 	add	r1, r7, #7
    1a84:	e3c11007 	bic	r1, r1, #7
    1a88:	e591a000 	ldr	r10, [r1]
    1a8c:	e5917004 	ldr	r7, [r1, #4]
    1a90:	e1a0b00a 	mov	r11, r10
    1a94:	e1a0c007 	mov	r12, r7
    1a98:	e2811008 	add	r1, r1, #8
    1a9c:	e58db068 	str	r11, [sp, #104]	; 0x68
    1aa0:	e58dc06c 	str	r12, [sp, #108]	; 0x6c
    1aa4:	e58d103c 	str	r1, [sp, #60]	; 0x3c
    1aa8:	e1a01007 	mov	r1, r7
    1aac:	e1a0000a 	mov	r0, r10
    1ab0:	eb0020bc 	bl	9da8 <__fpclassifyd>
    1ab4:	e3500001 	cmp	r0, #1
    1ab8:	e1a01007 	mov	r1, r7
    1abc:	e1a0000a 	mov	r0, r10
    1ac0:	1a000426 	bne	2b60 <_vfprintf_r+0x1840>
    1ac4:	e3a03000 	mov	r3, #0
    1ac8:	e3a02000 	mov	r2, #0
    1acc:	eb00420b 	bl	12300 <__aeabi_dcmplt>
    1ad0:	e3500000 	cmp	r0, #0
    1ad4:	13a0302d 	movne	r3, #45	; 0x2d
    1ad8:	e59d7018 	ldr	r7, [sp, #24]
    1adc:	e59f2bb4 	ldr	r2, [pc, #2996]	; 2698 <_vfprintf_r+0x1378>
    1ae0:	e59f1bb4 	ldr	r1, [pc, #2996]	; 269c <_vfprintf_r+0x137c>
    1ae4:	05dd3083 	ldrbeq	r3, [sp, #131]	; 0x83
    1ae8:	15cd3083 	strbne	r3, [sp, #131]	; 0x83
    1aec:	e3580047 	cmp	r8, #71	; 0x47
    1af0:	e3a04003 	mov	r4, #3
    1af4:	e3a06000 	mov	r6, #0
    1af8:	d1a01002 	movle	r1, r2
    1afc:	e3c77080 	bic	r7, r7, #128	; 0x80
    1b00:	e58d4020 	str	r4, [sp, #32]
    1b04:	e58d6040 	str	r6, [sp, #64]	; 0x40
    1b08:	e58d104c 	str	r1, [sp, #76]	; 0x4c
    1b0c:	e58d7018 	str	r7, [sp, #24]
    1b10:	e58d4038 	str	r4, [sp, #56]	; 0x38
    1b14:	e58d6060 	str	r6, [sp, #96]	; 0x60
    1b18:	eaffff84 	b	1930 <_vfprintf_r+0x610>
    1b1c:	e59d6018 	ldr	r6, [sp, #24]
    1b20:	e3866008 	orr	r6, r6, #8
    1b24:	e58d6018 	str	r6, [sp, #24]
    1b28:	e5d38000 	ldrb	r8, [r3]
    1b2c:	eafffe5e 	b	14ac <_vfprintf_r+0x18c>
    1b30:	e59d6018 	ldr	r6, [sp, #24]
    1b34:	e3866010 	orr	r6, r6, #16
    1b38:	e58d6018 	str	r6, [sp, #24]
    1b3c:	e59d7018 	ldr	r7, [sp, #24]
    1b40:	e58d3028 	str	r3, [sp, #40]	; 0x28
    1b44:	e2173020 	ands	r3, r7, #32
    1b48:	0a000074 	beq	1d20 <_vfprintf_r+0xa00>
    1b4c:	e59db03c 	ldr	r11, [sp, #60]	; 0x3c
    1b50:	e28b3007 	add	r3, r11, #7
    1b54:	e3c33007 	bic	r3, r3, #7
    1b58:	e89300c0 	ldm	r3, {r6, r7}
    1b5c:	e2833008 	add	r3, r3, #8
    1b60:	e196c007 	orrs	r12, r6, r7
    1b64:	e58d303c 	str	r3, [sp, #60]	; 0x3c
    1b68:	03a02000 	moveq	r2, #0
    1b6c:	13a02001 	movne	r2, #1
    1b70:	e3a03000 	mov	r3, #0
    1b74:	e3a01000 	mov	r1, #0
    1b78:	e5cd1083 	strb	r1, [sp, #131]	; 0x83
    1b7c:	eaffff41 	b	1888 <_vfprintf_r+0x568>
    1b80:	e59d6018 	ldr	r6, [sp, #24]
    1b84:	e3866010 	orr	r6, r6, #16
    1b88:	e58d6018 	str	r6, [sp, #24]
    1b8c:	e59d7018 	ldr	r7, [sp, #24]
    1b90:	e3170020 	tst	r7, #32
    1b94:	e58d3028 	str	r3, [sp, #40]	; 0x28
    1b98:	0a000095 	beq	1df4 <_vfprintf_r+0xad4>
    1b9c:	e59db03c 	ldr	r11, [sp, #60]	; 0x3c
    1ba0:	e28b3007 	add	r3, r11, #7
    1ba4:	e3c33007 	bic	r3, r3, #7
    1ba8:	e89300c0 	ldm	r3, {r6, r7}
    1bac:	e2833008 	add	r3, r3, #8
    1bb0:	e196c007 	orrs	r12, r6, r7
    1bb4:	e58d303c 	str	r3, [sp, #60]	; 0x3c
    1bb8:	03a02000 	moveq	r2, #0
    1bbc:	13a02001 	movne	r2, #1
    1bc0:	e3a03001 	mov	r3, #1
    1bc4:	eaffffea 	b	1b74 <_vfprintf_r+0x854>
    1bc8:	e59db018 	ldr	r11, [sp, #24]
    1bcc:	e59f7acc 	ldr	r7, [pc, #2764]	; 26a0 <_vfprintf_r+0x1380>
    1bd0:	e31b0020 	tst	r11, #32
    1bd4:	e58d3028 	str	r3, [sp, #40]	; 0x28
    1bd8:	e58d7074 	str	r7, [sp, #116]	; 0x74
    1bdc:	0a000098 	beq	1e44 <_vfprintf_r+0xb24>
    1be0:	e59dc03c 	ldr	r12, [sp, #60]	; 0x3c
    1be4:	e28c3007 	add	r3, r12, #7
    1be8:	e3c33007 	bic	r3, r3, #7
    1bec:	e2836008 	add	r6, r3, #8
    1bf0:	e58d603c 	str	r6, [sp, #60]	; 0x3c
    1bf4:	e89300c0 	ldm	r3, {r6, r7}
    1bf8:	e59db018 	ldr	r11, [sp, #24]
    1bfc:	e31b0001 	tst	r11, #1
    1c00:	1a0002f2 	bne	27d0 <_vfprintf_r+0x14b0>
    1c04:	e196c007 	orrs	r12, r6, r7
    1c08:	03a02000 	moveq	r2, #0
    1c0c:	13a02001 	movne	r2, #1
    1c10:	e3a03002 	mov	r3, #2
    1c14:	eaffffd6 	b	1b74 <_vfprintf_r+0x854>
    1c18:	e59d6018 	ldr	r6, [sp, #24]
    1c1c:	e3866020 	orr	r6, r6, #32
    1c20:	e58d6018 	str	r6, [sp, #24]
    1c24:	e5d38000 	ldrb	r8, [r3]
    1c28:	eafffe1f 	b	14ac <_vfprintf_r+0x18c>
    1c2c:	e3a06000 	mov	r6, #0
    1c30:	e5cd6083 	strb	r6, [sp, #131]	; 0x83
    1c34:	e59d703c 	ldr	r7, [sp, #60]	; 0x3c
    1c38:	e5977000 	ldr	r7, [r7]
    1c3c:	e59db03c 	ldr	r11, [sp, #60]	; 0x3c
    1c40:	e1570006 	cmp	r7, r6
    1c44:	e58d704c 	str	r7, [sp, #76]	; 0x4c
    1c48:	e58d3028 	str	r3, [sp, #40]	; 0x28
    1c4c:	e28b7004 	add	r7, r11, #4
    1c50:	0a000536 	beq	3130 <_vfprintf_r+0x1e10>
    1c54:	e3540000 	cmp	r4, #0
    1c58:	e59d004c 	ldr	r0, [sp, #76]	; 0x4c
    1c5c:	ba000513 	blt	30b0 <_vfprintf_r+0x1d90>
    1c60:	e1a01006 	mov	r1, r6
    1c64:	e1a02004 	mov	r2, r4
    1c68:	eb0019d0 	bl	83b0 <memchr>
    1c6c:	e3500000 	cmp	r0, #0
    1c70:	0a000584 	beq	3288 <_vfprintf_r+0x1f68>
    1c74:	e59dc04c 	ldr	r12, [sp, #76]	; 0x4c
    1c78:	e06c0000 	rsb	r0, r12, r0
    1c7c:	e1500004 	cmp	r0, r4
    1c80:	e58d0038 	str	r0, [sp, #56]	; 0x38
    1c84:	e58d6040 	str	r6, [sp, #64]	; 0x40
    1c88:	da00049f 	ble	2f0c <_vfprintf_r+0x1bec>
    1c8c:	e58d703c 	str	r7, [sp, #60]	; 0x3c
    1c90:	e59d7040 	ldr	r7, [sp, #64]	; 0x40
    1c94:	e1c46fc4 	bic	r6, r4, r4, asr #31
    1c98:	e58d6020 	str	r6, [sp, #32]
    1c9c:	e5dd3083 	ldrb	r3, [sp, #131]	; 0x83
    1ca0:	e58d4038 	str	r4, [sp, #56]	; 0x38
    1ca4:	e58d7060 	str	r7, [sp, #96]	; 0x60
    1ca8:	eaffff20 	b	1930 <_vfprintf_r+0x610>
    1cac:	e5d38000 	ldrb	r8, [r3]
    1cb0:	e358006c 	cmp	r8, #108	; 0x6c
    1cb4:	059db018 	ldreq	r11, [sp, #24]
    1cb8:	159dc018 	ldrne	r12, [sp, #24]
    1cbc:	e1a00003 	mov	r0, r3
    1cc0:	038bb020 	orreq	r11, r11, #32
    1cc4:	138cc010 	orrne	r12, r12, #16
    1cc8:	02833001 	addeq	r3, r3, #1
    1ccc:	058db018 	streq	r11, [sp, #24]
    1cd0:	05d08001 	ldrbeq	r8, [r0, #1]
    1cd4:	158dc018 	strne	r12, [sp, #24]
    1cd8:	eafffdf3 	b	14ac <_vfprintf_r+0x18c>
    1cdc:	e59d4018 	ldr	r4, [sp, #24]
    1ce0:	e3140020 	tst	r4, #32
    1ce4:	e58d3028 	str	r3, [sp, #40]	; 0x28
    1ce8:	0a000403 	beq	2cfc <_vfprintf_r+0x19dc>
    1cec:	e59d603c 	ldr	r6, [sp, #60]	; 0x3c
    1cf0:	e59d2034 	ldr	r2, [sp, #52]	; 0x34
    1cf4:	e5963000 	ldr	r3, [r6]
    1cf8:	e1a01fc2 	asr	r1, r2, #31
    1cfc:	e2866004 	add	r6, r6, #4
    1d00:	e5832000 	str	r2, [r3]
    1d04:	e5831004 	str	r1, [r3, #4]
    1d08:	e58d603c 	str	r6, [sp, #60]	; 0x3c
    1d0c:	eafffdbb 	b	1400 <_vfprintf_r+0xe0>
    1d10:	e59d7018 	ldr	r7, [sp, #24]
    1d14:	e58d3028 	str	r3, [sp, #40]	; 0x28
    1d18:	e2173020 	ands	r3, r7, #32
    1d1c:	1affff8a 	bne	1b4c <_vfprintf_r+0x82c>
    1d20:	e59d6018 	ldr	r6, [sp, #24]
    1d24:	e2161010 	ands	r1, r6, #16
    1d28:	0a00041e 	beq	2da8 <_vfprintf_r+0x1a88>
    1d2c:	e59d703c 	ldr	r7, [sp, #60]	; 0x3c
    1d30:	e59db03c 	ldr	r11, [sp, #60]	; 0x3c
    1d34:	e5972000 	ldr	r2, [r7]
    1d38:	e3a07000 	mov	r7, #0
    1d3c:	e1a06002 	mov	r6, r2
    1d40:	e28bb004 	add	r11, r11, #4
    1d44:	e0522007 	subs	r2, r2, r7
    1d48:	13a02001 	movne	r2, #1
    1d4c:	e58db03c 	str	r11, [sp, #60]	; 0x3c
    1d50:	eaffff87 	b	1b74 <_vfprintf_r+0x854>
    1d54:	e3580000 	cmp	r8, #0
    1d58:	e58d3028 	str	r3, [sp, #40]	; 0x28
    1d5c:	0a000461 	beq	2ee8 <_vfprintf_r+0x1bc8>
    1d60:	e3a0c001 	mov	r12, #1
    1d64:	e3a03000 	mov	r3, #0
    1d68:	e28d40b0 	add	r4, sp, #176	; 0xb0
    1d6c:	e58dc020 	str	r12, [sp, #32]
    1d70:	e5cd80b0 	strb	r8, [sp, #176]	; 0xb0
    1d74:	e5cd3083 	strb	r3, [sp, #131]	; 0x83
    1d78:	e58dc038 	str	r12, [sp, #56]	; 0x38
    1d7c:	e58d404c 	str	r4, [sp, #76]	; 0x4c
    1d80:	e3a04000 	mov	r4, #0
    1d84:	e58d4040 	str	r4, [sp, #64]	; 0x40
    1d88:	e58d4060 	str	r4, [sp, #96]	; 0x60
    1d8c:	eafffeec 	b	1944 <_vfprintf_r+0x624>
    1d90:	e5dd0083 	ldrb	r0, [sp, #131]	; 0x83
    1d94:	e3500000 	cmp	r0, #0
    1d98:	1a00036e 	bne	2b58 <_vfprintf_r+0x1838>
    1d9c:	e5cd1083 	strb	r1, [sp, #131]	; 0x83
    1da0:	e5d38000 	ldrb	r8, [r3]
    1da4:	eafffdc0 	b	14ac <_vfprintf_r+0x18c>
    1da8:	e59d7018 	ldr	r7, [sp, #24]
    1dac:	e3877001 	orr	r7, r7, #1
    1db0:	e58d7018 	str	r7, [sp, #24]
    1db4:	e5d38000 	ldrb	r8, [r3]
    1db8:	eafffdbb 	b	14ac <_vfprintf_r+0x18c>
    1dbc:	e59db03c 	ldr	r11, [sp, #60]	; 0x3c
    1dc0:	e59bb000 	ldr	r11, [r11]
    1dc4:	e59dc03c 	ldr	r12, [sp, #60]	; 0x3c
    1dc8:	e35b0000 	cmp	r11, #0
    1dcc:	e58db030 	str	r11, [sp, #48]	; 0x30
    1dd0:	e28c0004 	add	r0, r12, #4
    1dd4:	bafffe12 	blt	1624 <_vfprintf_r+0x304>
    1dd8:	e5d38000 	ldrb	r8, [r3]
    1ddc:	e58d003c 	str	r0, [sp, #60]	; 0x3c
    1de0:	eafffdb1 	b	14ac <_vfprintf_r+0x18c>
    1de4:	e59d7018 	ldr	r7, [sp, #24]
    1de8:	e3170020 	tst	r7, #32
    1dec:	e58d3028 	str	r3, [sp, #40]	; 0x28
    1df0:	1affff69 	bne	1b9c <_vfprintf_r+0x87c>
    1df4:	e59d6018 	ldr	r6, [sp, #24]
    1df8:	e3160010 	tst	r6, #16
    1dfc:	0a0003e3 	beq	2d90 <_vfprintf_r+0x1a70>
    1e00:	e59d703c 	ldr	r7, [sp, #60]	; 0x3c
    1e04:	e5972000 	ldr	r2, [r7]
    1e08:	e59db03c 	ldr	r11, [sp, #60]	; 0x3c
    1e0c:	e3a07000 	mov	r7, #0
    1e10:	e1a06002 	mov	r6, r2
    1e14:	e28bb004 	add	r11, r11, #4
    1e18:	e0522007 	subs	r2, r2, r7
    1e1c:	13a02001 	movne	r2, #1
    1e20:	e58db03c 	str	r11, [sp, #60]	; 0x3c
    1e24:	e3a03001 	mov	r3, #1
    1e28:	eaffff51 	b	1b74 <_vfprintf_r+0x854>
    1e2c:	e59db018 	ldr	r11, [sp, #24]
    1e30:	e59f686c 	ldr	r6, [pc, #2156]	; 26a4 <_vfprintf_r+0x1384>
    1e34:	e31b0020 	tst	r11, #32
    1e38:	e58d3028 	str	r3, [sp, #40]	; 0x28
    1e3c:	e58d6074 	str	r6, [sp, #116]	; 0x74
    1e40:	1affff66 	bne	1be0 <_vfprintf_r+0x8c0>
    1e44:	e59d7018 	ldr	r7, [sp, #24]
    1e48:	e3170010 	tst	r7, #16
    1e4c:	0a0003c4 	beq	2d64 <_vfprintf_r+0x1a44>
    1e50:	e59db03c 	ldr	r11, [sp, #60]	; 0x3c
    1e54:	e59b3000 	ldr	r3, [r11]
    1e58:	e28bb004 	add	r11, r11, #4
    1e5c:	e1a06003 	mov	r6, r3
    1e60:	e3a07000 	mov	r7, #0
    1e64:	e58db03c 	str	r11, [sp, #60]	; 0x3c
    1e68:	eaffff62 	b	1bf8 <_vfprintf_r+0x8d8>
    1e6c:	e59d7018 	ldr	r7, [sp, #24]
    1e70:	e3170020 	tst	r7, #32
    1e74:	e58d3028 	str	r3, [sp, #40]	; 0x28
    1e78:	1afffe73 	bne	184c <_vfprintf_r+0x52c>
    1e7c:	e59dc018 	ldr	r12, [sp, #24]
    1e80:	e31c0010 	tst	r12, #16
    1e84:	0a0003b0 	beq	2d4c <_vfprintf_r+0x1a2c>
    1e88:	e59d603c 	ldr	r6, [sp, #60]	; 0x3c
    1e8c:	e5963000 	ldr	r3, [r6]
    1e90:	e59db03c 	ldr	r11, [sp, #60]	; 0x3c
    1e94:	e1a07fc3 	asr	r7, r3, #31
    1e98:	e28bb004 	add	r11, r11, #4
    1e9c:	e1a06003 	mov	r6, r3
    1ea0:	e1a02003 	mov	r2, r3
    1ea4:	e58db03c 	str	r11, [sp, #60]	; 0x3c
    1ea8:	e1a03007 	mov	r3, r7
    1eac:	eafffe6e 	b	186c <_vfprintf_r+0x54c>
    1eb0:	e59d7018 	ldr	r7, [sp, #24]
    1eb4:	e3877040 	orr	r7, r7, #64	; 0x40
    1eb8:	e58d7018 	str	r7, [sp, #24]
    1ebc:	e5d38000 	ldrb	r8, [r3]
    1ec0:	eafffd79 	b	14ac <_vfprintf_r+0x18c>
    1ec4:	e58d3028 	str	r3, [sp, #40]	; 0x28
    1ec8:	e59d303c 	ldr	r3, [sp, #60]	; 0x3c
    1ecc:	e59db03c 	ldr	r11, [sp, #60]	; 0x3c
    1ed0:	e5933000 	ldr	r3, [r3]
    1ed4:	e3a07001 	mov	r7, #1
    1ed8:	e28bb004 	add	r11, r11, #4
    1edc:	e5cd30b0 	strb	r3, [sp, #176]	; 0xb0
    1ee0:	e28dc0b0 	add	r12, sp, #176	; 0xb0
    1ee4:	e3a03000 	mov	r3, #0
    1ee8:	e58d7020 	str	r7, [sp, #32]
    1eec:	e58db03c 	str	r11, [sp, #60]	; 0x3c
    1ef0:	e5cd3083 	strb	r3, [sp, #131]	; 0x83
    1ef4:	e58d7038 	str	r7, [sp, #56]	; 0x38
    1ef8:	e58dc04c 	str	r12, [sp, #76]	; 0x4c
    1efc:	eaffff9f 	b	1d80 <_vfprintf_r+0xa60>
    1f00:	e59dc018 	ldr	r12, [sp, #24]
    1f04:	e58d3028 	str	r3, [sp, #40]	; 0x28
    1f08:	e59d303c 	ldr	r3, [sp, #60]	; 0x3c
    1f0c:	e38cc002 	orr	r12, r12, #2
    1f10:	e5932000 	ldr	r2, [r3]
    1f14:	e58dc018 	str	r12, [sp, #24]
    1f18:	e3a07000 	mov	r7, #0
    1f1c:	e59fc780 	ldr	r12, [pc, #1920]	; 26a4 <_vfprintf_r+0x1384>
    1f20:	e283b004 	add	r11, r3, #4
    1f24:	e3a08078 	mov	r8, #120	; 0x78
    1f28:	e3a03030 	mov	r3, #48	; 0x30
    1f2c:	e1a06002 	mov	r6, r2
    1f30:	e0522007 	subs	r2, r2, r7
    1f34:	e5cd3084 	strb	r3, [sp, #132]	; 0x84
    1f38:	e58db03c 	str	r11, [sp, #60]	; 0x3c
    1f3c:	e5cd8085 	strb	r8, [sp, #133]	; 0x85
    1f40:	13a02001 	movne	r2, #1
    1f44:	e58dc074 	str	r12, [sp, #116]	; 0x74
    1f48:	e3a03002 	mov	r3, #2
    1f4c:	eaffff08 	b	1b74 <_vfprintf_r+0x854>
    1f50:	e59d60ac 	ldr	r6, [sp, #172]	; 0xac
    1f54:	e5dd3083 	ldrb	r3, [sp, #131]	; 0x83
    1f58:	e3530000 	cmp	r3, #0
    1f5c:	0a00000c 	beq	1f94 <_vfprintf_r+0xc74>
    1f60:	e59d40a8 	ldr	r4, [sp, #168]	; 0xa8
    1f64:	e28d3083 	add	r3, sp, #131	; 0x83
    1f68:	e2844001 	add	r4, r4, #1
    1f6c:	e5853000 	str	r3, [r5]
    1f70:	e2866001 	add	r6, r6, #1
    1f74:	e3540007 	cmp	r4, #7
    1f78:	e3a03001 	mov	r3, #1
    1f7c:	e5853004 	str	r3, [r5, #4]
    1f80:	e28d7090 	add	r7, sp, #144	; 0x90
    1f84:	e58d60ac 	str	r6, [sp, #172]	; 0xac
    1f88:	e58d40a8 	str	r4, [sp, #168]	; 0xa8
    1f8c:	d2855008 	addle	r5, r5, #8
    1f90:	ca000179 	bgt	257c <_vfprintf_r+0x125c>
    1f94:	e59dc048 	ldr	r12, [sp, #72]	; 0x48
    1f98:	e35c0000 	cmp	r12, #0
    1f9c:	0a00000b 	beq	1fd0 <_vfprintf_r+0xcb0>
    1fa0:	e59d40a8 	ldr	r4, [sp, #168]	; 0xa8
    1fa4:	e28d3084 	add	r3, sp, #132	; 0x84
    1fa8:	e2844001 	add	r4, r4, #1
    1fac:	e5853000 	str	r3, [r5]
    1fb0:	e2866002 	add	r6, r6, #2
    1fb4:	e3540007 	cmp	r4, #7
    1fb8:	e3a03002 	mov	r3, #2
    1fbc:	e5853004 	str	r3, [r5, #4]
    1fc0:	e58d60ac 	str	r6, [sp, #172]	; 0xac
    1fc4:	e58d40a8 	str	r4, [sp, #168]	; 0xa8
    1fc8:	d2855008 	addle	r5, r5, #8
    1fcc:	ca000161 	bgt	2558 <_vfprintf_r+0x1238>
    1fd0:	e59d4050 	ldr	r4, [sp, #80]	; 0x50
    1fd4:	e3540080 	cmp	r4, #128	; 0x80
    1fd8:	0a0000e3 	beq	236c <_vfprintf_r+0x104c>
    1fdc:	e59d4040 	ldr	r4, [sp, #64]	; 0x40
    1fe0:	e59d7038 	ldr	r7, [sp, #56]	; 0x38
    1fe4:	e0679004 	rsb	r9, r7, r4
    1fe8:	e3590000 	cmp	r9, #0
    1fec:	da000031 	ble	20b8 <_vfprintf_r+0xd98>
    1ff0:	e3590010 	cmp	r9, #16
    1ff4:	e59d40a8 	ldr	r4, [sp, #168]	; 0xa8
    1ff8:	e59f76ac 	ldr	r7, [pc, #1708]	; 26ac <_vfprintf_r+0x138c>
    1ffc:	da00001d 	ble	2078 <_vfprintf_r+0xd58>
    2000:	e28da0a4 	add	r10, sp, #164	; 0xa4
    2004:	e58d8040 	str	r8, [sp, #64]	; 0x40
    2008:	e3a0b010 	mov	r11, #16
    200c:	e1a0800a 	mov	r8, r10
    2010:	e59da02c 	ldr	r10, [sp, #44]	; 0x2c
    2014:	ea000002 	b	2024 <_vfprintf_r+0xd04>
    2018:	e2499010 	sub	r9, r9, #16
    201c:	e3590010 	cmp	r9, #16
    2020:	da000013 	ble	2074 <_vfprintf_r+0xd54>
    2024:	e2844001 	add	r4, r4, #1
    2028:	e3540007 	cmp	r4, #7
    202c:	e2866010 	add	r6, r6, #16
    2030:	e8850880 	stm	r5, {r7, r11}
    2034:	e58d60ac 	str	r6, [sp, #172]	; 0xac
    2038:	e58d40a8 	str	r4, [sp, #168]	; 0xa8
    203c:	d2855008 	addle	r5, r5, #8
    2040:	dafffff4 	ble	2018 <_vfprintf_r+0xcf8>
    2044:	e1a0000a 	mov	r0, r10
    2048:	e59d101c 	ldr	r1, [sp, #28]
    204c:	e1a02008 	mov	r2, r8
    2050:	eb00312d 	bl	e50c <__sprint_r>
    2054:	e3500000 	cmp	r0, #0
    2058:	1afffd95 	bne	16b4 <_vfprintf_r+0x394>
    205c:	e2499010 	sub	r9, r9, #16
    2060:	e28d40a8 	add	r4, sp, #168	; 0xa8
    2064:	e3590010 	cmp	r9, #16
    2068:	e8940050 	ldm	r4, {r4, r6}
    206c:	e28d5d05 	add	r5, sp, #320	; 0x140
    2070:	caffffeb 	bgt	2024 <_vfprintf_r+0xd04>
    2074:	e59d8040 	ldr	r8, [sp, #64]	; 0x40
    2078:	e2844001 	add	r4, r4, #1
    207c:	e0866009 	add	r6, r6, r9
    2080:	e3540007 	cmp	r4, #7
    2084:	e8850280 	stm	r5, {r7, r9}
    2088:	e58d60ac 	str	r6, [sp, #172]	; 0xac
    208c:	e58d40a8 	str	r4, [sp, #168]	; 0xa8
    2090:	d2855008 	addle	r5, r5, #8
    2094:	da000007 	ble	20b8 <_vfprintf_r+0xd98>
    2098:	e59d002c 	ldr	r0, [sp, #44]	; 0x2c
    209c:	e59d101c 	ldr	r1, [sp, #28]
    20a0:	e28d20a4 	add	r2, sp, #164	; 0xa4
    20a4:	eb003118 	bl	e50c <__sprint_r>
    20a8:	e3500000 	cmp	r0, #0
    20ac:	1afffd80 	bne	16b4 <_vfprintf_r+0x394>
    20b0:	e59d60ac 	ldr	r6, [sp, #172]	; 0xac
    20b4:	e28d5d05 	add	r5, sp, #320	; 0x140
    20b8:	e59d4018 	ldr	r4, [sp, #24]
    20bc:	e3140c01 	tst	r4, #256	; 0x100
    20c0:	1a000052 	bne	2210 <_vfprintf_r+0xef0>
    20c4:	e59d40a8 	ldr	r4, [sp, #168]	; 0xa8
    20c8:	e59d7038 	ldr	r7, [sp, #56]	; 0x38
    20cc:	e2844001 	add	r4, r4, #1
    20d0:	e59dc04c 	ldr	r12, [sp, #76]	; 0x4c
    20d4:	e0866007 	add	r6, r6, r7
    20d8:	e3540007 	cmp	r4, #7
    20dc:	e585c000 	str	r12, [r5]
    20e0:	e5857004 	str	r7, [r5, #4]
    20e4:	e58d60ac 	str	r6, [sp, #172]	; 0xac
    20e8:	e58d40a8 	str	r4, [sp, #168]	; 0xa8
    20ec:	ca00010c 	bgt	2524 <_vfprintf_r+0x1204>
    20f0:	e2855008 	add	r5, r5, #8
    20f4:	e59d4018 	ldr	r4, [sp, #24]
    20f8:	e3140004 	tst	r4, #4
    20fc:	0a000036 	beq	21dc <_vfprintf_r+0xebc>
    2100:	e59d7030 	ldr	r7, [sp, #48]	; 0x30
    2104:	e59db020 	ldr	r11, [sp, #32]
    2108:	e06b8007 	rsb	r8, r11, r7
    210c:	e3580000 	cmp	r8, #0
    2110:	da000031 	ble	21dc <_vfprintf_r+0xebc>
    2114:	e3580010 	cmp	r8, #16
    2118:	e59d40a8 	ldr	r4, [sp, #168]	; 0xa8
    211c:	e59f9570 	ldr	r9, [pc, #1392]	; 2694 <_vfprintf_r+0x1374>
    2120:	da00001e 	ble	21a0 <_vfprintf_r+0xe80>
    2124:	e28d70a4 	add	r7, sp, #164	; 0xa4
    2128:	e1a03007 	mov	r3, r7
    212c:	e3a0a010 	mov	r10, #16
    2130:	e1a07009 	mov	r7, r9
    2134:	e59db02c 	ldr	r11, [sp, #44]	; 0x2c
    2138:	e1a09003 	mov	r9, r3
    213c:	ea000002 	b	214c <_vfprintf_r+0xe2c>
    2140:	e2488010 	sub	r8, r8, #16
    2144:	e3580010 	cmp	r8, #16
    2148:	da000013 	ble	219c <_vfprintf_r+0xe7c>
    214c:	e2844001 	add	r4, r4, #1
    2150:	e3540007 	cmp	r4, #7
    2154:	e2866010 	add	r6, r6, #16
    2158:	e8850480 	stm	r5, {r7, r10}
    215c:	e58d60ac 	str	r6, [sp, #172]	; 0xac
    2160:	e58d40a8 	str	r4, [sp, #168]	; 0xa8
    2164:	d2855008 	addle	r5, r5, #8
    2168:	dafffff4 	ble	2140 <_vfprintf_r+0xe20>
    216c:	e1a0000b 	mov	r0, r11
    2170:	e59d101c 	ldr	r1, [sp, #28]
    2174:	e1a02009 	mov	r2, r9
    2178:	eb0030e3 	bl	e50c <__sprint_r>
    217c:	e3500000 	cmp	r0, #0
    2180:	1afffd4b 	bne	16b4 <_vfprintf_r+0x394>
    2184:	e2488010 	sub	r8, r8, #16
    2188:	e28d40a8 	add	r4, sp, #168	; 0xa8
    218c:	e3580010 	cmp	r8, #16
    2190:	e8940050 	ldm	r4, {r4, r6}
    2194:	e28d5d05 	add	r5, sp, #320	; 0x140
    2198:	caffffeb 	bgt	214c <_vfprintf_r+0xe2c>
    219c:	e1a09007 	mov	r9, r7
    21a0:	e2844001 	add	r4, r4, #1
    21a4:	e0886006 	add	r6, r8, r6
    21a8:	e3540007 	cmp	r4, #7
    21ac:	e5859000 	str	r9, [r5]
    21b0:	e5858004 	str	r8, [r5, #4]
    21b4:	e58d60ac 	str	r6, [sp, #172]	; 0xac
    21b8:	e58d40a8 	str	r4, [sp, #168]	; 0xa8
    21bc:	da000006 	ble	21dc <_vfprintf_r+0xebc>
    21c0:	e59d002c 	ldr	r0, [sp, #44]	; 0x2c
    21c4:	e59d101c 	ldr	r1, [sp, #28]
    21c8:	e28d20a4 	add	r2, sp, #164	; 0xa4
    21cc:	eb0030ce 	bl	e50c <__sprint_r>
    21d0:	e3500000 	cmp	r0, #0
    21d4:	1afffd36 	bne	16b4 <_vfprintf_r+0x394>
    21d8:	e59d60ac 	ldr	r6, [sp, #172]	; 0xac
    21dc:	e59d4034 	ldr	r4, [sp, #52]	; 0x34
    21e0:	e59d7020 	ldr	r7, [sp, #32]
    21e4:	e59db030 	ldr	r11, [sp, #48]	; 0x30
    21e8:	e157000b 	cmp	r7, r11
    21ec:	a0844007 	addge	r4, r4, r7
    21f0:	b084400b 	addlt	r4, r4, r11
    21f4:	e3560000 	cmp	r6, #0
    21f8:	e58d4034 	str	r4, [sp, #52]	; 0x34
    21fc:	1afffd26 	bne	169c <_vfprintf_r+0x37c>
    2200:	e3a03000 	mov	r3, #0
    2204:	e58d30a8 	str	r3, [sp, #168]	; 0xa8
    2208:	e28d5d05 	add	r5, sp, #320	; 0x140
    220c:	eafffc7b 	b	1400 <_vfprintf_r+0xe0>
    2210:	e3580065 	cmp	r8, #101	; 0x65
    2214:	da00008c 	ble	244c <_vfprintf_r+0x112c>
    2218:	e28d1068 	add	r1, sp, #104	; 0x68
    221c:	e8910003 	ldm	r1, {r0, r1}
    2220:	e3a02000 	mov	r2, #0
    2224:	e3a03000 	mov	r3, #0
    2228:	eb00402e 	bl	122e8 <__aeabi_dcmpeq>
    222c:	e3500000 	cmp	r0, #0
    2230:	0a0000db 	beq	25a4 <_vfprintf_r+0x1284>
    2234:	e59d40a8 	ldr	r4, [sp, #168]	; 0xa8
    2238:	e59f3468 	ldr	r3, [pc, #1128]	; 26a8 <_vfprintf_r+0x1388>
    223c:	e2844001 	add	r4, r4, #1
    2240:	e5853000 	str	r3, [r5]
    2244:	e2866001 	add	r6, r6, #1
    2248:	e3540007 	cmp	r4, #7
    224c:	e3a03001 	mov	r3, #1
    2250:	e5853004 	str	r3, [r5, #4]
    2254:	e58d60ac 	str	r6, [sp, #172]	; 0xac
    2258:	e58d40a8 	str	r4, [sp, #168]	; 0xa8
    225c:	d2855008 	addle	r5, r5, #8
    2260:	ca0002de 	bgt	2de0 <_vfprintf_r+0x1ac0>
    2264:	e59d3088 	ldr	r3, [sp, #136]	; 0x88
    2268:	e59d7044 	ldr	r7, [sp, #68]	; 0x44
    226c:	e1530007 	cmp	r3, r7
    2270:	ba000002 	blt	2280 <_vfprintf_r+0xf60>
    2274:	e59db018 	ldr	r11, [sp, #24]
    2278:	e31b0001 	tst	r11, #1
    227c:	0affff9c 	beq	20f4 <_vfprintf_r+0xdd4>
    2280:	e59d40a8 	ldr	r4, [sp, #168]	; 0xa8
    2284:	e59dc064 	ldr	r12, [sp, #100]	; 0x64
    2288:	e2844001 	add	r4, r4, #1
    228c:	e59d7058 	ldr	r7, [sp, #88]	; 0x58
    2290:	e086600c 	add	r6, r6, r12
    2294:	e3540007 	cmp	r4, #7
    2298:	e8851080 	stm	r5, {r7, r12}
    229c:	e58d60ac 	str	r6, [sp, #172]	; 0xac
    22a0:	e58d40a8 	str	r4, [sp, #168]	; 0xa8
    22a4:	d2855008 	addle	r5, r5, #8
    22a8:	ca000362 	bgt	3038 <_vfprintf_r+0x1d18>
    22ac:	e59dc044 	ldr	r12, [sp, #68]	; 0x44
    22b0:	e24ca001 	sub	r10, r12, #1
    22b4:	e35a0000 	cmp	r10, #0
    22b8:	daffff8d 	ble	20f4 <_vfprintf_r+0xdd4>
    22bc:	e35a0010 	cmp	r10, #16
    22c0:	e59d40a8 	ldr	r4, [sp, #168]	; 0xa8
    22c4:	e59f73e0 	ldr	r7, [pc, #992]	; 26ac <_vfprintf_r+0x138c>
    22c8:	da00014c 	ble	2800 <_vfprintf_r+0x14e0>
    22cc:	e28d80a4 	add	r8, sp, #164	; 0xa4
    22d0:	e1a03008 	mov	r3, r8
    22d4:	e3a09010 	mov	r9, #16
    22d8:	e1a08007 	mov	r8, r7
    22dc:	e59db02c 	ldr	r11, [sp, #44]	; 0x2c
    22e0:	e1a07003 	mov	r7, r3
    22e4:	ea000002 	b	22f4 <_vfprintf_r+0xfd4>
    22e8:	e24aa010 	sub	r10, r10, #16
    22ec:	e35a0010 	cmp	r10, #16
    22f0:	da000141 	ble	27fc <_vfprintf_r+0x14dc>
    22f4:	e2844001 	add	r4, r4, #1
    22f8:	e3540007 	cmp	r4, #7
    22fc:	e2866010 	add	r6, r6, #16
    2300:	e8850300 	stm	r5, {r8, r9}
    2304:	e58d60ac 	str	r6, [sp, #172]	; 0xac
    2308:	e58d40a8 	str	r4, [sp, #168]	; 0xa8
    230c:	d2855008 	addle	r5, r5, #8
    2310:	dafffff4 	ble	22e8 <_vfprintf_r+0xfc8>
    2314:	e1a0000b 	mov	r0, r11
    2318:	e59d101c 	ldr	r1, [sp, #28]
    231c:	e1a02007 	mov	r2, r7
    2320:	eb003079 	bl	e50c <__sprint_r>
    2324:	e3500000 	cmp	r0, #0
    2328:	1afffce1 	bne	16b4 <_vfprintf_r+0x394>
    232c:	e28d40a8 	add	r4, sp, #168	; 0xa8
    2330:	e8940050 	ldm	r4, {r4, r6}
    2334:	e28d5d05 	add	r5, sp, #320	; 0x140
    2338:	eaffffea 	b	22e8 <_vfprintf_r+0xfc8>
    233c:	e3530000 	cmp	r3, #0
    2340:	1a000080 	bne	2548 <_vfprintf_r+0x1228>
    2344:	e59d6018 	ldr	r6, [sp, #24]
    2348:	e3160001 	tst	r6, #1
    234c:	0a0000f9 	beq	2738 <_vfprintf_r+0x1418>
    2350:	e59d707c 	ldr	r7, [sp, #124]	; 0x7c
    2354:	e59db05c 	ldr	r11, [sp, #92]	; 0x5c
    2358:	e3a03030 	mov	r3, #48	; 0x30
    235c:	e5cd30d7 	strb	r3, [sp, #215]	; 0xd7
    2360:	e58d7038 	str	r7, [sp, #56]	; 0x38
    2364:	e58db04c 	str	r11, [sp, #76]	; 0x4c
    2368:	eafffd68 	b	1910 <_vfprintf_r+0x5f0>
    236c:	e59d7030 	ldr	r7, [sp, #48]	; 0x30
    2370:	e59db020 	ldr	r11, [sp, #32]
    2374:	e06b9007 	rsb	r9, r11, r7
    2378:	e3590000 	cmp	r9, #0
    237c:	daffff16 	ble	1fdc <_vfprintf_r+0xcbc>
    2380:	e3590010 	cmp	r9, #16
    2384:	e59d40a8 	ldr	r4, [sp, #168]	; 0xa8
    2388:	e59f731c 	ldr	r7, [pc, #796]	; 26ac <_vfprintf_r+0x138c>
    238c:	da00001d 	ble	2408 <_vfprintf_r+0x10e8>
    2390:	e28da0a4 	add	r10, sp, #164	; 0xa4
    2394:	e58d8048 	str	r8, [sp, #72]	; 0x48
    2398:	e3a0b010 	mov	r11, #16
    239c:	e1a0800a 	mov	r8, r10
    23a0:	e59da02c 	ldr	r10, [sp, #44]	; 0x2c
    23a4:	ea000002 	b	23b4 <_vfprintf_r+0x1094>
    23a8:	e2499010 	sub	r9, r9, #16
    23ac:	e3590010 	cmp	r9, #16
    23b0:	da000013 	ble	2404 <_vfprintf_r+0x10e4>
    23b4:	e2844001 	add	r4, r4, #1
    23b8:	e3540007 	cmp	r4, #7
    23bc:	e2866010 	add	r6, r6, #16
    23c0:	e8850880 	stm	r5, {r7, r11}
    23c4:	e58d60ac 	str	r6, [sp, #172]	; 0xac
    23c8:	e58d40a8 	str	r4, [sp, #168]	; 0xa8
    23cc:	d2855008 	addle	r5, r5, #8
    23d0:	dafffff4 	ble	23a8 <_vfprintf_r+0x1088>
    23d4:	e1a0000a 	mov	r0, r10
    23d8:	e59d101c 	ldr	r1, [sp, #28]
    23dc:	e1a02008 	mov	r2, r8
    23e0:	eb003049 	bl	e50c <__sprint_r>
    23e4:	e3500000 	cmp	r0, #0
    23e8:	1afffcb1 	bne	16b4 <_vfprintf_r+0x394>
    23ec:	e2499010 	sub	r9, r9, #16
    23f0:	e28d40a8 	add	r4, sp, #168	; 0xa8
    23f4:	e3590010 	cmp	r9, #16
    23f8:	e8940050 	ldm	r4, {r4, r6}
    23fc:	e28d5d05 	add	r5, sp, #320	; 0x140
    2400:	caffffeb 	bgt	23b4 <_vfprintf_r+0x1094>
    2404:	e59d8048 	ldr	r8, [sp, #72]	; 0x48
    2408:	e2844001 	add	r4, r4, #1
    240c:	e0866009 	add	r6, r6, r9
    2410:	e3540007 	cmp	r4, #7
    2414:	e8850280 	stm	r5, {r7, r9}
    2418:	e58d60ac 	str	r6, [sp, #172]	; 0xac
    241c:	e58d40a8 	str	r4, [sp, #168]	; 0xa8
    2420:	d2855008 	addle	r5, r5, #8
    2424:	dafffeec 	ble	1fdc <_vfprintf_r+0xcbc>
    2428:	e59d002c 	ldr	r0, [sp, #44]	; 0x2c
    242c:	e59d101c 	ldr	r1, [sp, #28]
    2430:	e28d20a4 	add	r2, sp, #164	; 0xa4
    2434:	eb003034 	bl	e50c <__sprint_r>
    2438:	e3500000 	cmp	r0, #0
    243c:	1afffc9c 	bne	16b4 <_vfprintf_r+0x394>
    2440:	e59d60ac 	ldr	r6, [sp, #172]	; 0xac
    2444:	e28d5d05 	add	r5, sp, #320	; 0x140
    2448:	eafffee3 	b	1fdc <_vfprintf_r+0xcbc>
    244c:	e59d4044 	ldr	r4, [sp, #68]	; 0x44
    2450:	e3540001 	cmp	r4, #1
    2454:	e59d40a8 	ldr	r4, [sp, #168]	; 0xa8
    2458:	e2866001 	add	r6, r6, #1
    245c:	e2844001 	add	r4, r4, #1
    2460:	da000156 	ble	29c0 <_vfprintf_r+0x16a0>
    2464:	e59dc04c 	ldr	r12, [sp, #76]	; 0x4c
    2468:	e3540007 	cmp	r4, #7
    246c:	e3a03001 	mov	r3, #1
    2470:	e585c000 	str	r12, [r5]
    2474:	e5853004 	str	r3, [r5, #4]
    2478:	e58d60ac 	str	r6, [sp, #172]	; 0xac
    247c:	e58d40a8 	str	r4, [sp, #168]	; 0xa8
    2480:	d2855008 	addle	r5, r5, #8
    2484:	ca000160 	bgt	2a0c <_vfprintf_r+0x16ec>
    2488:	e59d7064 	ldr	r7, [sp, #100]	; 0x64
    248c:	e2844001 	add	r4, r4, #1
    2490:	e59db058 	ldr	r11, [sp, #88]	; 0x58
    2494:	e0866007 	add	r6, r6, r7
    2498:	e3540007 	cmp	r4, #7
    249c:	e585b000 	str	r11, [r5]
    24a0:	e5857004 	str	r7, [r5, #4]
    24a4:	e58d60ac 	str	r6, [sp, #172]	; 0xac
    24a8:	e58d40a8 	str	r4, [sp, #168]	; 0xa8
    24ac:	d2855008 	addle	r5, r5, #8
    24b0:	ca00015f 	bgt	2a34 <_vfprintf_r+0x1714>
    24b4:	e28d1068 	add	r1, sp, #104	; 0x68
    24b8:	e8910003 	ldm	r1, {r0, r1}
    24bc:	e3a02000 	mov	r2, #0
    24c0:	e3a03000 	mov	r3, #0
    24c4:	eb003f87 	bl	122e8 <__aeabi_dcmpeq>
    24c8:	e3500000 	cmp	r0, #0
    24cc:	e59d7044 	ldr	r7, [sp, #68]	; 0x44
    24d0:	1a00009c 	bne	2748 <_vfprintf_r+0x1428>
    24d4:	e59dc04c 	ldr	r12, [sp, #76]	; 0x4c
    24d8:	e2473001 	sub	r3, r7, #1
    24dc:	e2844001 	add	r4, r4, #1
    24e0:	e28c2001 	add	r2, r12, #1
    24e4:	e0866003 	add	r6, r6, r3
    24e8:	e3540007 	cmp	r4, #7
    24ec:	e885000c 	stm	r5, {r2, r3}
    24f0:	e58d60ac 	str	r6, [sp, #172]	; 0xac
    24f4:	e58d40a8 	str	r4, [sp, #168]	; 0xa8
    24f8:	ca00015f 	bgt	2a7c <_vfprintf_r+0x175c>
    24fc:	e2855008 	add	r5, r5, #8
    2500:	e59dc070 	ldr	r12, [sp, #112]	; 0x70
    2504:	e2844001 	add	r4, r4, #1
    2508:	e086600c 	add	r6, r6, r12
    250c:	e28d3094 	add	r3, sp, #148	; 0x94
    2510:	e3540007 	cmp	r4, #7
    2514:	e8851008 	stm	r5, {r3, r12}
    2518:	e58d60ac 	str	r6, [sp, #172]	; 0xac
    251c:	e58d40a8 	str	r4, [sp, #168]	; 0xa8
    2520:	dafffef2 	ble	20f0 <_vfprintf_r+0xdd0>
    2524:	e59d002c 	ldr	r0, [sp, #44]	; 0x2c
    2528:	e59d101c 	ldr	r1, [sp, #28]
    252c:	e28d20a4 	add	r2, sp, #164	; 0xa4
    2530:	eb002ff5 	bl	e50c <__sprint_r>
    2534:	e3500000 	cmp	r0, #0
    2538:	1afffc5d 	bne	16b4 <_vfprintf_r+0x394>
    253c:	e28d5d05 	add	r5, sp, #320	; 0x140
    2540:	e59d60ac 	ldr	r6, [sp, #172]	; 0xac
    2544:	eafffeea 	b	20f4 <_vfprintf_r+0xdd4>
    2548:	e59dc054 	ldr	r12, [sp, #84]	; 0x54
    254c:	e58d2038 	str	r2, [sp, #56]	; 0x38
    2550:	e58dc04c 	str	r12, [sp, #76]	; 0x4c
    2554:	eafffced 	b	1910 <_vfprintf_r+0x5f0>
    2558:	e59d002c 	ldr	r0, [sp, #44]	; 0x2c
    255c:	e59d101c 	ldr	r1, [sp, #28]
    2560:	e28d20a4 	add	r2, sp, #164	; 0xa4
    2564:	eb002fe8 	bl	e50c <__sprint_r>
    2568:	e3500000 	cmp	r0, #0
    256c:	1afffc50 	bne	16b4 <_vfprintf_r+0x394>
    2570:	e59d60ac 	ldr	r6, [sp, #172]	; 0xac
    2574:	e28d5d05 	add	r5, sp, #320	; 0x140
    2578:	eafffe94 	b	1fd0 <_vfprintf_r+0xcb0>
    257c:	e59d002c 	ldr	r0, [sp, #44]	; 0x2c
    2580:	e59d101c 	ldr	r1, [sp, #28]
    2584:	e28d20a4 	add	r2, sp, #164	; 0xa4
    2588:	eb002fdf 	bl	e50c <__sprint_r>
    258c:	e3500000 	cmp	r0, #0
    2590:	e28db0b0 	add	r11, sp, #176	; 0xb0
    2594:	1afffc46 	bne	16b4 <_vfprintf_r+0x394>
    2598:	e59d60ac 	ldr	r6, [sp, #172]	; 0xac
    259c:	e28d5d05 	add	r5, sp, #320	; 0x140
    25a0:	eafffe7b 	b	1f94 <_vfprintf_r+0xc74>
    25a4:	e59d8088 	ldr	r8, [sp, #136]	; 0x88
    25a8:	e3580000 	cmp	r8, #0
    25ac:	da000215 	ble	2e08 <_vfprintf_r+0x1ae8>
    25b0:	e59d4060 	ldr	r4, [sp, #96]	; 0x60
    25b4:	e59d7044 	ldr	r7, [sp, #68]	; 0x44
    25b8:	e59dc04c 	ldr	r12, [sp, #76]	; 0x4c
    25bc:	e1570004 	cmp	r7, r4
    25c0:	a1a07004 	movge	r7, r4
    25c4:	e59d4044 	ldr	r4, [sp, #68]	; 0x44
    25c8:	e3570000 	cmp	r7, #0
    25cc:	e08cb004 	add	r11, r12, r4
    25d0:	da000009 	ble	25fc <_vfprintf_r+0x12dc>
    25d4:	e59d40a8 	ldr	r4, [sp, #168]	; 0xa8
    25d8:	e2844001 	add	r4, r4, #1
    25dc:	e0866007 	add	r6, r6, r7
    25e0:	e3540007 	cmp	r4, #7
    25e4:	e585c000 	str	r12, [r5]
    25e8:	e5857004 	str	r7, [r5, #4]
    25ec:	e58d60ac 	str	r6, [sp, #172]	; 0xac
    25f0:	e58d40a8 	str	r4, [sp, #168]	; 0xa8
    25f4:	d2855008 	addle	r5, r5, #8
    25f8:	ca0002b5 	bgt	30d4 <_vfprintf_r+0x1db4>
    25fc:	e59dc060 	ldr	r12, [sp, #96]	; 0x60
    2600:	e1c77fc7 	bic	r7, r7, r7, asr #31
    2604:	e067a00c 	rsb	r10, r7, r12
    2608:	e35a0000 	cmp	r10, #0
    260c:	da000095 	ble	2868 <_vfprintf_r+0x1548>
    2610:	e35a0010 	cmp	r10, #16
    2614:	e59d40a8 	ldr	r4, [sp, #168]	; 0xa8
    2618:	e59f708c 	ldr	r7, [pc, #140]	; 26ac <_vfprintf_r+0x138c>
    261c:	da000081 	ble	2828 <_vfprintf_r+0x1508>
    2620:	e28d80a4 	add	r8, sp, #164	; 0xa4
    2624:	e58db038 	str	r11, [sp, #56]	; 0x38
    2628:	e3a09010 	mov	r9, #16
    262c:	e1a0b00a 	mov	r11, r10
    2630:	e1a0a008 	mov	r10, r8
    2634:	e59d802c 	ldr	r8, [sp, #44]	; 0x2c
    2638:	ea000002 	b	2648 <_vfprintf_r+0x1328>
    263c:	e24bb010 	sub	r11, r11, #16
    2640:	e35b0010 	cmp	r11, #16
    2644:	da000075 	ble	2820 <_vfprintf_r+0x1500>
    2648:	e2844001 	add	r4, r4, #1
    264c:	e3540007 	cmp	r4, #7
    2650:	e2866010 	add	r6, r6, #16
    2654:	e8850280 	stm	r5, {r7, r9}
    2658:	e58d60ac 	str	r6, [sp, #172]	; 0xac
    265c:	e58d40a8 	str	r4, [sp, #168]	; 0xa8
    2660:	d2855008 	addle	r5, r5, #8
    2664:	dafffff4 	ble	263c <_vfprintf_r+0x131c>
    2668:	e1a00008 	mov	r0, r8
    266c:	e59d101c 	ldr	r1, [sp, #28]
    2670:	e1a0200a 	mov	r2, r10
    2674:	eb002fa4 	bl	e50c <__sprint_r>
    2678:	e3500000 	cmp	r0, #0
    267c:	1afffc0c 	bne	16b4 <_vfprintf_r+0x394>
    2680:	e28d40a8 	add	r4, sp, #168	; 0xa8
    2684:	e8940050 	ldm	r4, {r4, r6}
    2688:	e28d5d05 	add	r5, sp, #320	; 0x140
    268c:	eaffffea 	b	263c <_vfprintf_r+0x131c>
    2690:	fffffba4 	.word	0xfffffba4
    2694:	00013884 	.word	0x00013884
    2698:	000138a4 	.word	0x000138a4
    269c:	000138a8 	.word	0x000138a8
    26a0:	000138b4 	.word	0x000138b4
    26a4:	000138c8 	.word	0x000138c8
    26a8:	000138e4 	.word	0x000138e4
    26ac:	00013894 	.word	0x00013894
    26b0:	000138ac 	.word	0x000138ac
    26b4:	000138b0 	.word	0x000138b0
    26b8:	000138dc 	.word	0x000138dc
    26bc:	66666667 	.word	0x66666667
    26c0:	e59d9074 	ldr	r9, [sp, #116]	; 0x74
    26c4:	e3a0000f 	mov	r0, #15
    26c8:	e1a0a226 	lsr	r10, r6, #4
    26cc:	e0062000 	and	r2, r6, r0
    26d0:	e18aae07 	orr	r10, r10, r7, lsl #28
    26d4:	e1a03227 	lsr	r3, r7, #4
    26d8:	e0892002 	add	r2, r9, r2
    26dc:	e1a07003 	mov	r7, r3
    26e0:	e1a0600a 	mov	r6, r10
    26e4:	e5d22000 	ldrb	r2, [r2]
    26e8:	e196b007 	orrs	r11, r6, r7
    26ec:	e1a0300c 	mov	r3, r12
    26f0:	e5cc2000 	strb	r2, [r12]
    26f4:	e24cc001 	sub	r12, r12, #1
    26f8:	1afffff2 	bne	26c8 <_vfprintf_r+0x13a8>
    26fc:	e59dc054 	ldr	r12, [sp, #84]	; 0x54
    2700:	e063c00c 	rsb	r12, r3, r12
    2704:	e58d304c 	str	r3, [sp, #76]	; 0x4c
    2708:	e58dc038 	str	r12, [sp, #56]	; 0x38
    270c:	eafffc7f 	b	1910 <_vfprintf_r+0x5f0>
    2710:	e3570000 	cmp	r7, #0
    2714:	03560009 	cmpeq	r6, #9
    2718:	8a0000e1 	bhi	2aa4 <_vfprintf_r+0x1784>
    271c:	e2866030 	add	r6, r6, #48	; 0x30
    2720:	e5cd60d7 	strb	r6, [sp, #215]	; 0xd7
    2724:	e59d705c 	ldr	r7, [sp, #92]	; 0x5c
    2728:	e59d607c 	ldr	r6, [sp, #124]	; 0x7c
    272c:	e58d704c 	str	r7, [sp, #76]	; 0x4c
    2730:	e58d6038 	str	r6, [sp, #56]	; 0x38
    2734:	eafffc75 	b	1910 <_vfprintf_r+0x5f0>
    2738:	e59d6054 	ldr	r6, [sp, #84]	; 0x54
    273c:	e58d3038 	str	r3, [sp, #56]	; 0x38
    2740:	e58d604c 	str	r6, [sp, #76]	; 0x4c
    2744:	eafffc71 	b	1910 <_vfprintf_r+0x5f0>
    2748:	e247a001 	sub	r10, r7, #1
    274c:	e35a0000 	cmp	r10, #0
    2750:	daffff6a 	ble	2500 <_vfprintf_r+0x11e0>
    2754:	e35a0010 	cmp	r10, #16
    2758:	e51f70b4 	ldr	r7, [pc, #-180]	; 26ac <_vfprintf_r+0x138c>
    275c:	da0000bf 	ble	2a60 <_vfprintf_r+0x1740>
    2760:	e28d80a4 	add	r8, sp, #164	; 0xa4
    2764:	e1a03008 	mov	r3, r8
    2768:	e3a09010 	mov	r9, #16
    276c:	e1a08007 	mov	r8, r7
    2770:	e59db02c 	ldr	r11, [sp, #44]	; 0x2c
    2774:	e1a07003 	mov	r7, r3
    2778:	ea000002 	b	2788 <_vfprintf_r+0x1468>
    277c:	e24aa010 	sub	r10, r10, #16
    2780:	e35a0010 	cmp	r10, #16
    2784:	da0000b4 	ble	2a5c <_vfprintf_r+0x173c>
    2788:	e2844001 	add	r4, r4, #1
    278c:	e3540007 	cmp	r4, #7
    2790:	e2866010 	add	r6, r6, #16
    2794:	e8850300 	stm	r5, {r8, r9}
    2798:	e58d60ac 	str	r6, [sp, #172]	; 0xac
    279c:	e58d40a8 	str	r4, [sp, #168]	; 0xa8
    27a0:	d2855008 	addle	r5, r5, #8
    27a4:	dafffff4 	ble	277c <_vfprintf_r+0x145c>
    27a8:	e1a0000b 	mov	r0, r11
    27ac:	e59d101c 	ldr	r1, [sp, #28]
    27b0:	e1a02007 	mov	r2, r7
    27b4:	eb002f54 	bl	e50c <__sprint_r>
    27b8:	e3500000 	cmp	r0, #0
    27bc:	1afffbbc 	bne	16b4 <_vfprintf_r+0x394>
    27c0:	e28d40a8 	add	r4, sp, #168	; 0xa8
    27c4:	e8940050 	ldm	r4, {r4, r6}
    27c8:	e28d5d05 	add	r5, sp, #320	; 0x140
    27cc:	eaffffea 	b	277c <_vfprintf_r+0x145c>
    27d0:	e1960007 	orrs	r0, r6, r7
    27d4:	159db018 	ldrne	r11, [sp, #24]
    27d8:	13a03030 	movne	r3, #48	; 0x30
    27dc:	138bb002 	orrne	r11, r11, #2
    27e0:	15cd3084 	strbne	r3, [sp, #132]	; 0x84
    27e4:	15cd8085 	strbne	r8, [sp, #133]	; 0x85
    27e8:	158db018 	strne	r11, [sp, #24]
    27ec:	13a02001 	movne	r2, #1
    27f0:	03a02000 	moveq	r2, #0
    27f4:	e3a03002 	mov	r3, #2
    27f8:	eafffcdd 	b	1b74 <_vfprintf_r+0x854>
    27fc:	e1a07008 	mov	r7, r8
    2800:	e2844001 	add	r4, r4, #1
    2804:	e086600a 	add	r6, r6, r10
    2808:	e3540007 	cmp	r4, #7
    280c:	e8850480 	stm	r5, {r7, r10}
    2810:	e58d60ac 	str	r6, [sp, #172]	; 0xac
    2814:	e58d40a8 	str	r4, [sp, #168]	; 0xa8
    2818:	dafffe34 	ble	20f0 <_vfprintf_r+0xdd0>
    281c:	eaffff40 	b	2524 <_vfprintf_r+0x1204>
    2820:	e1a0a00b 	mov	r10, r11
    2824:	e59db038 	ldr	r11, [sp, #56]	; 0x38
    2828:	e2844001 	add	r4, r4, #1
    282c:	e086600a 	add	r6, r6, r10
    2830:	e3540007 	cmp	r4, #7
    2834:	e8850480 	stm	r5, {r7, r10}
    2838:	e58d60ac 	str	r6, [sp, #172]	; 0xac
    283c:	e58d40a8 	str	r4, [sp, #168]	; 0xa8
    2840:	d2855008 	addle	r5, r5, #8
    2844:	da000007 	ble	2868 <_vfprintf_r+0x1548>
    2848:	e59d002c 	ldr	r0, [sp, #44]	; 0x2c
    284c:	e59d101c 	ldr	r1, [sp, #28]
    2850:	e28d20a4 	add	r2, sp, #164	; 0xa4
    2854:	eb002f2c 	bl	e50c <__sprint_r>
    2858:	e3500000 	cmp	r0, #0
    285c:	1afffb94 	bne	16b4 <_vfprintf_r+0x394>
    2860:	e59d60ac 	ldr	r6, [sp, #172]	; 0xac
    2864:	e28d5d05 	add	r5, sp, #320	; 0x140
    2868:	e59d3088 	ldr	r3, [sp, #136]	; 0x88
    286c:	e59d4044 	ldr	r4, [sp, #68]	; 0x44
    2870:	e59d704c 	ldr	r7, [sp, #76]	; 0x4c
    2874:	e59dc060 	ldr	r12, [sp, #96]	; 0x60
    2878:	e1530004 	cmp	r3, r4
    287c:	e087800c 	add	r8, r7, r12
    2880:	ba000038 	blt	2968 <_vfprintf_r+0x1648>
    2884:	e59d4018 	ldr	r4, [sp, #24]
    2888:	e3140001 	tst	r4, #1
    288c:	1a000035 	bne	2968 <_vfprintf_r+0x1648>
    2890:	e59d4044 	ldr	r4, [sp, #68]	; 0x44
    2894:	e068700b 	rsb	r7, r8, r11
    2898:	e0633004 	rsb	r3, r3, r4
    289c:	e1530007 	cmp	r3, r7
    28a0:	b1a07003 	movlt	r7, r3
    28a4:	a1a07007 	movge	r7, r7
    28a8:	e3570000 	cmp	r7, #0
    28ac:	da000009 	ble	28d8 <_vfprintf_r+0x15b8>
    28b0:	e59d40a8 	ldr	r4, [sp, #168]	; 0xa8
    28b4:	e2844001 	add	r4, r4, #1
    28b8:	e0866007 	add	r6, r6, r7
    28bc:	e3540007 	cmp	r4, #7
    28c0:	e5858000 	str	r8, [r5]
    28c4:	e5857004 	str	r7, [r5, #4]
    28c8:	e58d60ac 	str	r6, [sp, #172]	; 0xac
    28cc:	e58d40a8 	str	r4, [sp, #168]	; 0xa8
    28d0:	d2855008 	addle	r5, r5, #8
    28d4:	ca000208 	bgt	30fc <_vfprintf_r+0x1ddc>
    28d8:	e1c77fc7 	bic	r7, r7, r7, asr #31
    28dc:	e067a003 	rsb	r10, r7, r3
    28e0:	e35a0000 	cmp	r10, #0
    28e4:	dafffe02 	ble	20f4 <_vfprintf_r+0xdd4>
    28e8:	e35a0010 	cmp	r10, #16
    28ec:	e59d40a8 	ldr	r4, [sp, #168]	; 0xa8
    28f0:	e51f724c 	ldr	r7, [pc, #-588]	; 26ac <_vfprintf_r+0x138c>
    28f4:	daffffc1 	ble	2800 <_vfprintf_r+0x14e0>
    28f8:	e28d80a4 	add	r8, sp, #164	; 0xa4
    28fc:	e1a03008 	mov	r3, r8
    2900:	e3a09010 	mov	r9, #16
    2904:	e1a08007 	mov	r8, r7
    2908:	e59db02c 	ldr	r11, [sp, #44]	; 0x2c
    290c:	e1a07003 	mov	r7, r3
    2910:	ea000002 	b	2920 <_vfprintf_r+0x1600>
    2914:	e24aa010 	sub	r10, r10, #16
    2918:	e35a0010 	cmp	r10, #16
    291c:	daffffb6 	ble	27fc <_vfprintf_r+0x14dc>
    2920:	e2844001 	add	r4, r4, #1
    2924:	e3540007 	cmp	r4, #7
    2928:	e2866010 	add	r6, r6, #16
    292c:	e8850300 	stm	r5, {r8, r9}
    2930:	e58d60ac 	str	r6, [sp, #172]	; 0xac
    2934:	e58d40a8 	str	r4, [sp, #168]	; 0xa8
    2938:	d2855008 	addle	r5, r5, #8
    293c:	dafffff4 	ble	2914 <_vfprintf_r+0x15f4>
    2940:	e1a0000b 	mov	r0, r11
    2944:	e59d101c 	ldr	r1, [sp, #28]
    2948:	e1a02007 	mov	r2, r7
    294c:	eb002eee 	bl	e50c <__sprint_r>
    2950:	e3500000 	cmp	r0, #0
    2954:	1afffb56 	bne	16b4 <_vfprintf_r+0x394>
    2958:	e28d40a8 	add	r4, sp, #168	; 0xa8
    295c:	e8940050 	ldm	r4, {r4, r6}
    2960:	e28d5d05 	add	r5, sp, #320	; 0x140
    2964:	eaffffea 	b	2914 <_vfprintf_r+0x15f4>
    2968:	e59d40a8 	ldr	r4, [sp, #168]	; 0xa8
    296c:	e59d7064 	ldr	r7, [sp, #100]	; 0x64
    2970:	e2844001 	add	r4, r4, #1
    2974:	e59dc058 	ldr	r12, [sp, #88]	; 0x58
    2978:	e0866007 	add	r6, r6, r7
    297c:	e3540007 	cmp	r4, #7
    2980:	e585c000 	str	r12, [r5]
    2984:	e5857004 	str	r7, [r5, #4]
    2988:	e58d60ac 	str	r6, [sp, #172]	; 0xac
    298c:	e58d40a8 	str	r4, [sp, #168]	; 0xa8
    2990:	d2855008 	addle	r5, r5, #8
    2994:	daffffbd 	ble	2890 <_vfprintf_r+0x1570>
    2998:	e59d002c 	ldr	r0, [sp, #44]	; 0x2c
    299c:	e59d101c 	ldr	r1, [sp, #28]
    29a0:	e28d20a4 	add	r2, sp, #164	; 0xa4
    29a4:	eb002ed8 	bl	e50c <__sprint_r>
    29a8:	e3500000 	cmp	r0, #0
    29ac:	1afffb40 	bne	16b4 <_vfprintf_r+0x394>
    29b0:	e59d3088 	ldr	r3, [sp, #136]	; 0x88
    29b4:	e59d60ac 	ldr	r6, [sp, #172]	; 0xac
    29b8:	e28d5d05 	add	r5, sp, #320	; 0x140
    29bc:	eaffffb3 	b	2890 <_vfprintf_r+0x1570>
    29c0:	e59d7018 	ldr	r7, [sp, #24]
    29c4:	e3170001 	tst	r7, #1
    29c8:	1afffea5 	bne	2464 <_vfprintf_r+0x1144>
    29cc:	e59d704c 	ldr	r7, [sp, #76]	; 0x4c
    29d0:	e3a03001 	mov	r3, #1
    29d4:	e3540007 	cmp	r4, #7
    29d8:	e5857000 	str	r7, [r5]
    29dc:	e5853004 	str	r3, [r5, #4]
    29e0:	e58d60ac 	str	r6, [sp, #172]	; 0xac
    29e4:	e58d40a8 	str	r4, [sp, #168]	; 0xa8
    29e8:	dafffec3 	ble	24fc <_vfprintf_r+0x11dc>
    29ec:	e59d002c 	ldr	r0, [sp, #44]	; 0x2c
    29f0:	e59d101c 	ldr	r1, [sp, #28]
    29f4:	e28d20a4 	add	r2, sp, #164	; 0xa4
    29f8:	eb002ec3 	bl	e50c <__sprint_r>
    29fc:	e3500000 	cmp	r0, #0
    2a00:	e28db0b0 	add	r11, sp, #176	; 0xb0
    2a04:	0a000022 	beq	2a94 <_vfprintf_r+0x1774>
    2a08:	eafffb29 	b	16b4 <_vfprintf_r+0x394>
    2a0c:	e59d002c 	ldr	r0, [sp, #44]	; 0x2c
    2a10:	e59d101c 	ldr	r1, [sp, #28]
    2a14:	e28d20a4 	add	r2, sp, #164	; 0xa4
    2a18:	eb002ebb 	bl	e50c <__sprint_r>
    2a1c:	e3500000 	cmp	r0, #0
    2a20:	1afffb23 	bne	16b4 <_vfprintf_r+0x394>
    2a24:	e28d40a8 	add	r4, sp, #168	; 0xa8
    2a28:	e8940050 	ldm	r4, {r4, r6}
    2a2c:	e28d5d05 	add	r5, sp, #320	; 0x140
    2a30:	eafffe94 	b	2488 <_vfprintf_r+0x1168>
    2a34:	e59d002c 	ldr	r0, [sp, #44]	; 0x2c
    2a38:	e59d101c 	ldr	r1, [sp, #28]
    2a3c:	e28d20a4 	add	r2, sp, #164	; 0xa4
    2a40:	eb002eb1 	bl	e50c <__sprint_r>
    2a44:	e3500000 	cmp	r0, #0
    2a48:	1afffb19 	bne	16b4 <_vfprintf_r+0x394>
    2a4c:	e28d40a8 	add	r4, sp, #168	; 0xa8
    2a50:	e8940050 	ldm	r4, {r4, r6}
    2a54:	e28d5d05 	add	r5, sp, #320	; 0x140
    2a58:	eafffe95 	b	24b4 <_vfprintf_r+0x1194>
    2a5c:	e1a07008 	mov	r7, r8
    2a60:	e2844001 	add	r4, r4, #1
    2a64:	e086600a 	add	r6, r6, r10
    2a68:	e3540007 	cmp	r4, #7
    2a6c:	e8850480 	stm	r5, {r7, r10}
    2a70:	e58d60ac 	str	r6, [sp, #172]	; 0xac
    2a74:	e58d40a8 	str	r4, [sp, #168]	; 0xa8
    2a78:	dafffe9f 	ble	24fc <_vfprintf_r+0x11dc>
    2a7c:	e59d002c 	ldr	r0, [sp, #44]	; 0x2c
    2a80:	e59d101c 	ldr	r1, [sp, #28]
    2a84:	e28d20a4 	add	r2, sp, #164	; 0xa4
    2a88:	eb002e9f 	bl	e50c <__sprint_r>
    2a8c:	e3500000 	cmp	r0, #0
    2a90:	1afffb07 	bne	16b4 <_vfprintf_r+0x394>
    2a94:	e28d40a8 	add	r4, sp, #168	; 0xa8
    2a98:	e28d5d05 	add	r5, sp, #320	; 0x140
    2a9c:	e8940050 	ldm	r4, {r4, r6}
    2aa0:	eafffe96 	b	2500 <_vfprintf_r+0x11e0>
    2aa4:	e59da05c 	ldr	r10, [sp, #92]	; 0x5c
    2aa8:	e1a00006 	mov	r0, r6
    2aac:	e1a01007 	mov	r1, r7
    2ab0:	e3a0200a 	mov	r2, #10
    2ab4:	e3a03000 	mov	r3, #0
    2ab8:	eb003ec1 	bl	125c4 <__aeabi_uldivmod>
    2abc:	e2822030 	add	r2, r2, #48	; 0x30
    2ac0:	e5ca2000 	strb	r2, [r10]
    2ac4:	e1a00006 	mov	r0, r6
    2ac8:	e1a01007 	mov	r1, r7
    2acc:	e3a0200a 	mov	r2, #10
    2ad0:	e3a03000 	mov	r3, #0
    2ad4:	eb003eba 	bl	125c4 <__aeabi_uldivmod>
    2ad8:	e1a06000 	mov	r6, r0
    2adc:	e1a07001 	mov	r7, r1
    2ae0:	e196b007 	orrs	r11, r6, r7
    2ae4:	e1a0900a 	mov	r9, r10
    2ae8:	e24aa001 	sub	r10, r10, #1
    2aec:	1affffed 	bne	2aa8 <_vfprintf_r+0x1788>
    2af0:	e59dc054 	ldr	r12, [sp, #84]	; 0x54
    2af4:	e069c00c 	rsb	r12, r9, r12
    2af8:	e58d904c 	str	r9, [sp, #76]	; 0x4c
    2afc:	e58dc038 	str	r12, [sp, #56]	; 0x38
    2b00:	eafffb82 	b	1910 <_vfprintf_r+0x5f0>
    2b04:	e3520030 	cmp	r2, #48	; 0x30
    2b08:	13a02030 	movne	r2, #48	; 0x30
    2b0c:	059db054 	ldreq	r11, [sp, #84]	; 0x54
    2b10:	15432001 	strbne	r2, [r3, #-1]
    2b14:	059dc04c 	ldreq	r12, [sp, #76]	; 0x4c
    2b18:	159d3054 	ldrne	r3, [sp, #84]	; 0x54
    2b1c:	006cb00b 	rsbeq	r11, r12, r11
    2b20:	106c3003 	rsbne	r3, r12, r3
    2b24:	058db038 	streq	r11, [sp, #56]	; 0x38
    2b28:	158dc04c 	strne	r12, [sp, #76]	; 0x4c
    2b2c:	158d3038 	strne	r3, [sp, #56]	; 0x38
    2b30:	eafffb76 	b	1910 <_vfprintf_r+0x5f0>
    2b34:	e2766000 	rsbs	r6, r6, #0
    2b38:	e2e77000 	rsc	r7, r7, #0
    2b3c:	e3a0302d 	mov	r3, #45	; 0x2d
    2b40:	e1962007 	orrs	r2, r6, r7
    2b44:	e5cd3083 	strb	r3, [sp, #131]	; 0x83
    2b48:	03a02000 	moveq	r2, #0
    2b4c:	13a02001 	movne	r2, #1
    2b50:	e3a03001 	mov	r3, #1
    2b54:	eafffb4b 	b	1888 <_vfprintf_r+0x568>
    2b58:	e5d38000 	ldrb	r8, [r3]
    2b5c:	eafffa52 	b	14ac <_vfprintf_r+0x18c>
    2b60:	eb001c90 	bl	9da8 <__fpclassifyd>
    2b64:	e3500000 	cmp	r0, #0
    2b68:	0a000111 	beq	2fb4 <_vfprintf_r+0x1c94>
    2b6c:	e3740001 	cmn	r4, #1
    2b70:	e3c89020 	bic	r9, r8, #32
    2b74:	03a04006 	moveq	r4, #6
    2b78:	0a000003 	beq	2b8c <_vfprintf_r+0x186c>
    2b7c:	e3590047 	cmp	r9, #71	; 0x47
    2b80:	1a000001 	bne	2b8c <_vfprintf_r+0x186c>
    2b84:	e3540000 	cmp	r4, #0
    2b88:	03a04001 	moveq	r4, #1
    2b8c:	e59d6018 	ldr	r6, [sp, #24]
    2b90:	e3570000 	cmp	r7, #0
    2b94:	e3866c01 	orr	r6, r6, #256	; 0x100
    2b98:	b2877102 	addlt	r7, r7, #-2147483648	; 0x80000000
    2b9c:	b3a0b02d 	movlt	r11, #45	; 0x2d
    2ba0:	a3a0b000 	movge	r11, #0
    2ba4:	e2593046 	subs	r3, r9, #70	; 0x46
    2ba8:	e58d6040 	str	r6, [sp, #64]	; 0x40
    2bac:	e2736000 	rsbs	r6, r3, #0
    2bb0:	e0b66003 	adcs	r6, r6, r3
    2bb4:	e3560000 	cmp	r6, #0
    2bb8:	1a00016a 	bne	3168 <_vfprintf_r+0x1e48>
    2bbc:	e3590045 	cmp	r9, #69	; 0x45
    2bc0:	1a0001c4 	bne	32d8 <_vfprintf_r+0x1fb8>
    2bc4:	e28d3090 	add	r3, sp, #144	; 0x90
    2bc8:	e58da020 	str	r10, [sp, #32]
    2bcc:	e2846001 	add	r6, r4, #1
    2bd0:	e28d1088 	add	r1, sp, #136	; 0x88
    2bd4:	e28d208c 	add	r2, sp, #140	; 0x8c
    2bd8:	e58d7024 	str	r7, [sp, #36]	; 0x24
    2bdc:	e3a00002 	mov	r0, #2
    2be0:	e88d0041 	stm	sp, {r0, r6}
    2be4:	e58d200c 	str	r2, [sp, #12]
    2be8:	e58d3010 	str	r3, [sp, #16]
    2bec:	e58d1008 	str	r1, [sp, #8]
    2bf0:	e59d002c 	ldr	r0, [sp, #44]	; 0x2c
    2bf4:	e28d3020 	add	r3, sp, #32
    2bf8:	e893000c 	ldm	r3, {r2, r3}
    2bfc:	eb00092b 	bl	50b0 <_dtoa_r>
    2c00:	e58d004c 	str	r0, [sp, #76]	; 0x4c
    2c04:	e0806006 	add	r6, r0, r6
    2c08:	e1a0000a 	mov	r0, r10
    2c0c:	e1a01007 	mov	r1, r7
    2c10:	e3a02000 	mov	r2, #0
    2c14:	e3a03000 	mov	r3, #0
    2c18:	eb003db2 	bl	122e8 <__aeabi_dcmpeq>
    2c1c:	e3500000 	cmp	r0, #0
    2c20:	1a000008 	bne	2c48 <_vfprintf_r+0x1928>
    2c24:	e59d3090 	ldr	r3, [sp, #144]	; 0x90
    2c28:	e1560003 	cmp	r6, r3
    2c2c:	91a06003 	movls	r6, r3
    2c30:	9a000004 	bls	2c48 <_vfprintf_r+0x1928>
    2c34:	e3a02030 	mov	r2, #48	; 0x30
    2c38:	e4c32001 	strb	r2, [r3], #1
    2c3c:	e1530006 	cmp	r3, r6
    2c40:	e58d3090 	str	r3, [sp, #144]	; 0x90
    2c44:	1afffffb 	bne	2c38 <_vfprintf_r+0x1918>
    2c48:	e59d704c 	ldr	r7, [sp, #76]	; 0x4c
    2c4c:	e3590047 	cmp	r9, #71	; 0x47
    2c50:	e0676006 	rsb	r6, r7, r6
    2c54:	e58d6044 	str	r6, [sp, #68]	; 0x44
    2c58:	0a000163 	beq	31ec <_vfprintf_r+0x1ecc>
    2c5c:	e3580065 	cmp	r8, #101	; 0x65
    2c60:	da000201 	ble	346c <_vfprintf_r+0x214c>
    2c64:	e3580066 	cmp	r8, #102	; 0x66
    2c68:	e59d3088 	ldr	r3, [sp, #136]	; 0x88
    2c6c:	0a0001a5 	beq	3308 <_vfprintf_r+0x1fe8>
    2c70:	e59dc044 	ldr	r12, [sp, #68]	; 0x44
    2c74:	e153000c 	cmp	r3, r12
    2c78:	ba000198 	blt	32e0 <_vfprintf_r+0x1fc0>
    2c7c:	e59d4018 	ldr	r4, [sp, #24]
    2c80:	e3140001 	tst	r4, #1
    2c84:	12837001 	addne	r7, r3, #1
    2c88:	01c36fc3 	biceq	r6, r3, r3, asr #31
    2c8c:	11c7cfc7 	bicne	r12, r7, r7, asr #31
    2c90:	058d6020 	streq	r6, [sp, #32]
    2c94:	058d3038 	streq	r3, [sp, #56]	; 0x38
    2c98:	158d7038 	strne	r7, [sp, #56]	; 0x38
    2c9c:	158dc020 	strne	r12, [sp, #32]
    2ca0:	e3a08067 	mov	r8, #103	; 0x67
    2ca4:	e58d3060 	str	r3, [sp, #96]	; 0x60
    2ca8:	e35b0000 	cmp	r11, #0
    2cac:	0a000128 	beq	3154 <_vfprintf_r+0x1e34>
    2cb0:	e59db040 	ldr	r11, [sp, #64]	; 0x40
    2cb4:	e3a0302d 	mov	r3, #45	; 0x2d
    2cb8:	e3a0c000 	mov	r12, #0
    2cbc:	e5cd3083 	strb	r3, [sp, #131]	; 0x83
    2cc0:	e58db018 	str	r11, [sp, #24]
    2cc4:	e58dc040 	str	r12, [sp, #64]	; 0x40
    2cc8:	eafffb1a 	b	1938 <_vfprintf_r+0x618>
    2ccc:	e59dc03c 	ldr	r12, [sp, #60]	; 0x3c
    2cd0:	e28c1007 	add	r1, r12, #7
    2cd4:	e3c11007 	bic	r1, r1, #7
    2cd8:	e591a000 	ldr	r10, [r1]
    2cdc:	e5917004 	ldr	r7, [r1, #4]
    2ce0:	e2811008 	add	r1, r1, #8
    2ce4:	e58d103c 	str	r1, [sp, #60]	; 0x3c
    2ce8:	e1a0000a 	mov	r0, r10
    2cec:	e1a01007 	mov	r1, r7
    2cf0:	e58d0068 	str	r0, [sp, #104]	; 0x68
    2cf4:	e58d106c 	str	r1, [sp, #108]	; 0x6c
    2cf8:	eafffb6a 	b	1aa8 <_vfprintf_r+0x788>
    2cfc:	e59d7018 	ldr	r7, [sp, #24]
    2d00:	e3170010 	tst	r7, #16
    2d04:	1a000009 	bne	2d30 <_vfprintf_r+0x1a10>
    2d08:	e59d4018 	ldr	r4, [sp, #24]
    2d0c:	e3140040 	tst	r4, #64	; 0x40
    2d10:	0a000006 	beq	2d30 <_vfprintf_r+0x1a10>
    2d14:	e59d603c 	ldr	r6, [sp, #60]	; 0x3c
    2d18:	e59d7034 	ldr	r7, [sp, #52]	; 0x34
    2d1c:	e5963000 	ldr	r3, [r6]
    2d20:	e2866004 	add	r6, r6, #4
    2d24:	e58d603c 	str	r6, [sp, #60]	; 0x3c
    2d28:	e1c370b0 	strh	r7, [r3]
    2d2c:	eafff9b3 	b	1400 <_vfprintf_r+0xe0>
    2d30:	e59db03c 	ldr	r11, [sp, #60]	; 0x3c
    2d34:	e59dc034 	ldr	r12, [sp, #52]	; 0x34
    2d38:	e59b3000 	ldr	r3, [r11]
    2d3c:	e28bb004 	add	r11, r11, #4
    2d40:	e58db03c 	str	r11, [sp, #60]	; 0x3c
    2d44:	e583c000 	str	r12, [r3]
    2d48:	eafff9ac 	b	1400 <_vfprintf_r+0xe0>
    2d4c:	e59dc018 	ldr	r12, [sp, #24]
    2d50:	e31c0040 	tst	r12, #64	; 0x40
    2d54:	0a00008d 	beq	2f90 <_vfprintf_r+0x1c70>
    2d58:	e59d603c 	ldr	r6, [sp, #60]	; 0x3c
    2d5c:	e1d630f0 	ldrsh	r3, [r6]
    2d60:	eafffc4a 	b	1e90 <_vfprintf_r+0xb70>
    2d64:	e59dc018 	ldr	r12, [sp, #24]
    2d68:	e31c0040 	tst	r12, #64	; 0x40
    2d6c:	0a000080 	beq	2f74 <_vfprintf_r+0x1c54>
    2d70:	e59d603c 	ldr	r6, [sp, #60]	; 0x3c
    2d74:	e59db03c 	ldr	r11, [sp, #60]	; 0x3c
    2d78:	e1d630b0 	ldrh	r3, [r6]
    2d7c:	e28bb004 	add	r11, r11, #4
    2d80:	e1a06003 	mov	r6, r3
    2d84:	e3a07000 	mov	r7, #0
    2d88:	e58db03c 	str	r11, [sp, #60]	; 0x3c
    2d8c:	eafffb99 	b	1bf8 <_vfprintf_r+0x8d8>
    2d90:	e59dc018 	ldr	r12, [sp, #24]
    2d94:	e31c0040 	tst	r12, #64	; 0x40
    2d98:	0a00006b 	beq	2f4c <_vfprintf_r+0x1c2c>
    2d9c:	e59d603c 	ldr	r6, [sp, #60]	; 0x3c
    2da0:	e1d620b0 	ldrh	r2, [r6]
    2da4:	eafffc17 	b	1e08 <_vfprintf_r+0xae8>
    2da8:	e59dc018 	ldr	r12, [sp, #24]
    2dac:	e21c3040 	ands	r3, r12, #64	; 0x40
    2db0:	0a00005c 	beq	2f28 <_vfprintf_r+0x1c08>
    2db4:	e59d603c 	ldr	r6, [sp, #60]	; 0x3c
    2db8:	e59db03c 	ldr	r11, [sp, #60]	; 0x3c
    2dbc:	e1d620b0 	ldrh	r2, [r6]
    2dc0:	e3a07000 	mov	r7, #0
    2dc4:	e1a06002 	mov	r6, r2
    2dc8:	e28bb004 	add	r11, r11, #4
    2dcc:	e0522007 	subs	r2, r2, r7
    2dd0:	13a02001 	movne	r2, #1
    2dd4:	e58db03c 	str	r11, [sp, #60]	; 0x3c
    2dd8:	e1a03001 	mov	r3, r1
    2ddc:	eafffb64 	b	1b74 <_vfprintf_r+0x854>
    2de0:	e59d002c 	ldr	r0, [sp, #44]	; 0x2c
    2de4:	e59d101c 	ldr	r1, [sp, #28]
    2de8:	e28d20a4 	add	r2, sp, #164	; 0xa4
    2dec:	eb002dc6 	bl	e50c <__sprint_r>
    2df0:	e3500000 	cmp	r0, #0
    2df4:	e28d40b0 	add	r4, sp, #176	; 0xb0
    2df8:	1afffa2d 	bne	16b4 <_vfprintf_r+0x394>
    2dfc:	e59d60ac 	ldr	r6, [sp, #172]	; 0xac
    2e00:	e28d5d05 	add	r5, sp, #320	; 0x140
    2e04:	eafffd16 	b	2264 <_vfprintf_r+0xf44>
    2e08:	e59d40a8 	ldr	r4, [sp, #168]	; 0xa8
    2e0c:	e51f376c 	ldr	r3, [pc, #-1900]	; 26a8 <_vfprintf_r+0x1388>
    2e10:	e2844001 	add	r4, r4, #1
    2e14:	e5853000 	str	r3, [r5]
    2e18:	e2866001 	add	r6, r6, #1
    2e1c:	e3540007 	cmp	r4, #7
    2e20:	e3a03001 	mov	r3, #1
    2e24:	e5853004 	str	r3, [r5, #4]
    2e28:	e58d60ac 	str	r6, [sp, #172]	; 0xac
    2e2c:	e58d40a8 	str	r4, [sp, #168]	; 0xa8
    2e30:	d2855008 	addle	r5, r5, #8
    2e34:	ca000074 	bgt	300c <_vfprintf_r+0x1cec>
    2e38:	e3580000 	cmp	r8, #0
    2e3c:	0a00006b 	beq	2ff0 <_vfprintf_r+0x1cd0>
    2e40:	e59d40a8 	ldr	r4, [sp, #168]	; 0xa8
    2e44:	e59dc064 	ldr	r12, [sp, #100]	; 0x64
    2e48:	e2844001 	add	r4, r4, #1
    2e4c:	e59d7058 	ldr	r7, [sp, #88]	; 0x58
    2e50:	e086600c 	add	r6, r6, r12
    2e54:	e3540007 	cmp	r4, #7
    2e58:	e8851080 	stm	r5, {r7, r12}
    2e5c:	e58d60ac 	str	r6, [sp, #172]	; 0xac
    2e60:	e58d40a8 	str	r4, [sp, #168]	; 0xa8
    2e64:	d2855008 	addle	r5, r5, #8
    2e68:	ca00010e 	bgt	32a8 <_vfprintf_r+0x1f88>
    2e6c:	e2688000 	rsb	r8, r8, #0
    2e70:	e3580000 	cmp	r8, #0
    2e74:	da00008a 	ble	30a4 <_vfprintf_r+0x1d84>
    2e78:	e3580010 	cmp	r8, #16
    2e7c:	e51f77d8 	ldr	r7, [pc, #-2008]	; 26ac <_vfprintf_r+0x138c>
    2e80:	da000076 	ble	3060 <_vfprintf_r+0x1d40>
    2e84:	e3a0a010 	mov	r10, #16
    2e88:	e28d90a4 	add	r9, sp, #164	; 0xa4
    2e8c:	e59db02c 	ldr	r11, [sp, #44]	; 0x2c
    2e90:	ea000002 	b	2ea0 <_vfprintf_r+0x1b80>
    2e94:	e2488010 	sub	r8, r8, #16
    2e98:	e3580010 	cmp	r8, #16
    2e9c:	da00006f 	ble	3060 <_vfprintf_r+0x1d40>
    2ea0:	e2844001 	add	r4, r4, #1
    2ea4:	e3540007 	cmp	r4, #7
    2ea8:	e2866010 	add	r6, r6, #16
    2eac:	e8850480 	stm	r5, {r7, r10}
    2eb0:	e58d60ac 	str	r6, [sp, #172]	; 0xac
    2eb4:	e58d40a8 	str	r4, [sp, #168]	; 0xa8
    2eb8:	d2855008 	addle	r5, r5, #8
    2ebc:	dafffff4 	ble	2e94 <_vfprintf_r+0x1b74>
    2ec0:	e1a0000b 	mov	r0, r11
    2ec4:	e59d101c 	ldr	r1, [sp, #28]
    2ec8:	e1a02009 	mov	r2, r9
    2ecc:	eb002d8e 	bl	e50c <__sprint_r>
    2ed0:	e3500000 	cmp	r0, #0
    2ed4:	1afff9f6 	bne	16b4 <_vfprintf_r+0x394>
    2ed8:	e28d40a8 	add	r4, sp, #168	; 0xa8
    2edc:	e8940050 	ldm	r4, {r4, r6}
    2ee0:	e28d5d05 	add	r5, sp, #320	; 0x140
    2ee4:	eaffffea 	b	2e94 <_vfprintf_r+0x1b74>
    2ee8:	e59d30ac 	ldr	r3, [sp, #172]	; 0xac
    2eec:	e3530000 	cmp	r3, #0
    2ef0:	e59d901c 	ldr	r9, [sp, #28]
    2ef4:	0afff9ef 	beq	16b8 <_vfprintf_r+0x398>
    2ef8:	e59d002c 	ldr	r0, [sp, #44]	; 0x2c
    2efc:	e1a01009 	mov	r1, r9
    2f00:	e28d20a4 	add	r2, sp, #164	; 0xa4
    2f04:	eb002d80 	bl	e50c <__sprint_r>
    2f08:	eafff9ea 	b	16b8 <_vfprintf_r+0x398>
    2f0c:	e59db038 	ldr	r11, [sp, #56]	; 0x38
    2f10:	e1cbbfcb 	bic	r11, r11, r11, asr #31
    2f14:	e58db020 	str	r11, [sp, #32]
    2f18:	e5dd3083 	ldrb	r3, [sp, #131]	; 0x83
    2f1c:	e58d703c 	str	r7, [sp, #60]	; 0x3c
    2f20:	e58d6060 	str	r6, [sp, #96]	; 0x60
    2f24:	eafffa81 	b	1930 <_vfprintf_r+0x610>
    2f28:	e59dc03c 	ldr	r12, [sp, #60]	; 0x3c
    2f2c:	e59c2000 	ldr	r2, [r12]
    2f30:	e3a07000 	mov	r7, #0
    2f34:	e1a06002 	mov	r6, r2
    2f38:	e28cc004 	add	r12, r12, #4
    2f3c:	e0522007 	subs	r2, r2, r7
    2f40:	13a02001 	movne	r2, #1
    2f44:	e58dc03c 	str	r12, [sp, #60]	; 0x3c
    2f48:	eafffb09 	b	1b74 <_vfprintf_r+0x854>
    2f4c:	e59dc03c 	ldr	r12, [sp, #60]	; 0x3c
    2f50:	e59c2000 	ldr	r2, [r12]
    2f54:	e3a07000 	mov	r7, #0
    2f58:	e1a06002 	mov	r6, r2
    2f5c:	e28cc004 	add	r12, r12, #4
    2f60:	e0522007 	subs	r2, r2, r7
    2f64:	13a02001 	movne	r2, #1
    2f68:	e58dc03c 	str	r12, [sp, #60]	; 0x3c
    2f6c:	e3a03001 	mov	r3, #1
    2f70:	eafffaff 	b	1b74 <_vfprintf_r+0x854>
    2f74:	e59dc03c 	ldr	r12, [sp, #60]	; 0x3c
    2f78:	e59c3000 	ldr	r3, [r12]
    2f7c:	e28cc004 	add	r12, r12, #4
    2f80:	e1a06003 	mov	r6, r3
    2f84:	e3a07000 	mov	r7, #0
    2f88:	e58dc03c 	str	r12, [sp, #60]	; 0x3c
    2f8c:	eafffb19 	b	1bf8 <_vfprintf_r+0x8d8>
    2f90:	e59dc03c 	ldr	r12, [sp, #60]	; 0x3c
    2f94:	e59c3000 	ldr	r3, [r12]
    2f98:	e28cc004 	add	r12, r12, #4
    2f9c:	e1a07fc3 	asr	r7, r3, #31
    2fa0:	e1a06003 	mov	r6, r3
    2fa4:	e1a02003 	mov	r2, r3
    2fa8:	e58dc03c 	str	r12, [sp, #60]	; 0x3c
    2fac:	e1a03007 	mov	r3, r7
    2fb0:	eafffa2d 	b	186c <_vfprintf_r+0x54c>
    2fb4:	e51f390c 	ldr	r3, [pc, #-2316]	; 26b0 <_vfprintf_r+0x1390>
    2fb8:	e59dc018 	ldr	r12, [sp, #24]
    2fbc:	e51f2910 	ldr	r2, [pc, #-2320]	; 26b4 <_vfprintf_r+0x1394>
    2fc0:	e3580047 	cmp	r8, #71	; 0x47
    2fc4:	e3a0b003 	mov	r11, #3
    2fc8:	d1a02003 	movle	r2, r3
    2fcc:	e3ccc080 	bic	r12, r12, #128	; 0x80
    2fd0:	e58db020 	str	r11, [sp, #32]
    2fd4:	e58d0040 	str	r0, [sp, #64]	; 0x40
    2fd8:	e58d204c 	str	r2, [sp, #76]	; 0x4c
    2fdc:	e58dc018 	str	r12, [sp, #24]
    2fe0:	e5dd3083 	ldrb	r3, [sp, #131]	; 0x83
    2fe4:	e58db038 	str	r11, [sp, #56]	; 0x38
    2fe8:	e58d0060 	str	r0, [sp, #96]	; 0x60
    2fec:	eafffa4f 	b	1930 <_vfprintf_r+0x610>
    2ff0:	e59d7044 	ldr	r7, [sp, #68]	; 0x44
    2ff4:	e3570000 	cmp	r7, #0
    2ff8:	1affff90 	bne	2e40 <_vfprintf_r+0x1b20>
    2ffc:	e59db018 	ldr	r11, [sp, #24]
    3000:	e31b0001 	tst	r11, #1
    3004:	0afffc3a 	beq	20f4 <_vfprintf_r+0xdd4>
    3008:	eaffff8c 	b	2e40 <_vfprintf_r+0x1b20>
    300c:	e59d002c 	ldr	r0, [sp, #44]	; 0x2c
    3010:	e59d101c 	ldr	r1, [sp, #28]
    3014:	e28d20a4 	add	r2, sp, #164	; 0xa4
    3018:	eb002d3b 	bl	e50c <__sprint_r>
    301c:	e3500000 	cmp	r0, #0
    3020:	e28d40b0 	add	r4, sp, #176	; 0xb0
    3024:	1afff9a2 	bne	16b4 <_vfprintf_r+0x394>
    3028:	e59d8088 	ldr	r8, [sp, #136]	; 0x88
    302c:	e59d60ac 	ldr	r6, [sp, #172]	; 0xac
    3030:	e28d5d05 	add	r5, sp, #320	; 0x140
    3034:	eaffff7f 	b	2e38 <_vfprintf_r+0x1b18>
    3038:	e59d002c 	ldr	r0, [sp, #44]	; 0x2c
    303c:	e59d101c 	ldr	r1, [sp, #28]
    3040:	e28d20a4 	add	r2, sp, #164	; 0xa4
    3044:	eb002d30 	bl	e50c <__sprint_r>
    3048:	e3500000 	cmp	r0, #0
    304c:	e28db0b0 	add	r11, sp, #176	; 0xb0
    3050:	1afff997 	bne	16b4 <_vfprintf_r+0x394>
    3054:	e59d60ac 	ldr	r6, [sp, #172]	; 0xac
    3058:	e28d5d05 	add	r5, sp, #320	; 0x140
    305c:	eafffc92 	b	22ac <_vfprintf_r+0xf8c>
    3060:	e2844001 	add	r4, r4, #1
    3064:	e0866008 	add	r6, r6, r8
    3068:	e3540007 	cmp	r4, #7
    306c:	e8850180 	stm	r5, {r7, r8}
    3070:	e58d60ac 	str	r6, [sp, #172]	; 0xac
    3074:	e58d40a8 	str	r4, [sp, #168]	; 0xa8
    3078:	d2855008 	addle	r5, r5, #8
    307c:	da000008 	ble	30a4 <_vfprintf_r+0x1d84>
    3080:	e59d002c 	ldr	r0, [sp, #44]	; 0x2c
    3084:	e59d101c 	ldr	r1, [sp, #28]
    3088:	e28d20a4 	add	r2, sp, #164	; 0xa4
    308c:	eb002d1e 	bl	e50c <__sprint_r>
    3090:	e3500000 	cmp	r0, #0
    3094:	1afff986 	bne	16b4 <_vfprintf_r+0x394>
    3098:	e28d40a8 	add	r4, sp, #168	; 0xa8
    309c:	e8940050 	ldm	r4, {r4, r6}
    30a0:	e28d5d05 	add	r5, sp, #320	; 0x140
    30a4:	e2844001 	add	r4, r4, #1
    30a8:	e59d7044 	ldr	r7, [sp, #68]	; 0x44
    30ac:	eafffc07 	b	20d0 <_vfprintf_r+0xdb0>
    30b0:	ebfff882 	bl	12c0 <strlen>
    30b4:	e1c0cfc0 	bic	r12, r0, r0, asr #31
    30b8:	e58d0038 	str	r0, [sp, #56]	; 0x38
    30bc:	e58d6040 	str	r6, [sp, #64]	; 0x40
    30c0:	e58dc020 	str	r12, [sp, #32]
    30c4:	e5dd3083 	ldrb	r3, [sp, #131]	; 0x83
    30c8:	e58d703c 	str	r7, [sp, #60]	; 0x3c
    30cc:	e58d6060 	str	r6, [sp, #96]	; 0x60
    30d0:	eafffa16 	b	1930 <_vfprintf_r+0x610>
    30d4:	e59d002c 	ldr	r0, [sp, #44]	; 0x2c
    30d8:	e59d101c 	ldr	r1, [sp, #28]
    30dc:	e28d20a4 	add	r2, sp, #164	; 0xa4
    30e0:	eb002d09 	bl	e50c <__sprint_r>
    30e4:	e3500000 	cmp	r0, #0
    30e8:	e28d60b0 	add	r6, sp, #176	; 0xb0
    30ec:	1afff970 	bne	16b4 <_vfprintf_r+0x394>
    30f0:	e59d60ac 	ldr	r6, [sp, #172]	; 0xac
    30f4:	e28d5d05 	add	r5, sp, #320	; 0x140
    30f8:	eafffd3f 	b	25fc <_vfprintf_r+0x12dc>
    30fc:	e59d002c 	ldr	r0, [sp, #44]	; 0x2c
    3100:	e59d101c 	ldr	r1, [sp, #28]
    3104:	e28d20a4 	add	r2, sp, #164	; 0xa4
    3108:	eb002cff 	bl	e50c <__sprint_r>
    310c:	e3500000 	cmp	r0, #0
    3110:	e28d60b0 	add	r6, sp, #176	; 0xb0
    3114:	1afff966 	bne	16b4 <_vfprintf_r+0x394>
    3118:	e59d3088 	ldr	r3, [sp, #136]	; 0x88
    311c:	e59db044 	ldr	r11, [sp, #68]	; 0x44
    3120:	e59d60ac 	ldr	r6, [sp, #172]	; 0xac
    3124:	e063300b 	rsb	r3, r3, r11
    3128:	e28d5d05 	add	r5, sp, #320	; 0x140
    312c:	eafffde9 	b	28d8 <_vfprintf_r+0x15b8>
    3130:	e3540006 	cmp	r4, #6
    3134:	23a04006 	movcs	r4, #6
    3138:	e1c4cfc4 	bic	r12, r4, r4, asr #31
    313c:	e58d4038 	str	r4, [sp, #56]	; 0x38
    3140:	e51f4a90 	ldr	r4, [pc, #-2704]	; 26b8 <_vfprintf_r+0x1398>
    3144:	e58dc020 	str	r12, [sp, #32]
    3148:	e58d703c 	str	r7, [sp, #60]	; 0x3c
    314c:	e58d404c 	str	r4, [sp, #76]	; 0x4c
    3150:	eafffb0a 	b	1d80 <_vfprintf_r+0xa60>
    3154:	e59d6040 	ldr	r6, [sp, #64]	; 0x40
    3158:	e5dd3083 	ldrb	r3, [sp, #131]	; 0x83
    315c:	e58d6018 	str	r6, [sp, #24]
    3160:	e58db040 	str	r11, [sp, #64]	; 0x40
    3164:	eafff9f1 	b	1930 <_vfprintf_r+0x610>
    3168:	e3a02003 	mov	r2, #3
    316c:	e28d3090 	add	r3, sp, #144	; 0x90
    3170:	e58da020 	str	r10, [sp, #32]
    3174:	e28d0088 	add	r0, sp, #136	; 0x88
    3178:	e28d108c 	add	r1, sp, #140	; 0x8c
    317c:	e58d7024 	str	r7, [sp, #36]	; 0x24
    3180:	e88d0014 	stm	sp, {r2, r4}
    3184:	e58d0008 	str	r0, [sp, #8]
    3188:	e58d3010 	str	r3, [sp, #16]
    318c:	e58d100c 	str	r1, [sp, #12]
    3190:	e59d002c 	ldr	r0, [sp, #44]	; 0x2c
    3194:	e28d3020 	add	r3, sp, #32
    3198:	e893000c 	ldm	r3, {r2, r3}
    319c:	eb0007c3 	bl	50b0 <_dtoa_r>
    31a0:	e3590047 	cmp	r9, #71	; 0x47
    31a4:	e58d004c 	str	r0, [sp, #76]	; 0x4c
    31a8:	1a000002 	bne	31b8 <_vfprintf_r+0x1e98>
    31ac:	e59dc018 	ldr	r12, [sp, #24]
    31b0:	e31c0001 	tst	r12, #1
    31b4:	0a000009 	beq	31e0 <_vfprintf_r+0x1ec0>
    31b8:	e59dc04c 	ldr	r12, [sp, #76]	; 0x4c
    31bc:	e3560000 	cmp	r6, #0
    31c0:	e08c6004 	add	r6, r12, r4
    31c4:	0afffe8f 	beq	2c08 <_vfprintf_r+0x18e8>
    31c8:	e5dc3000 	ldrb	r3, [r12]
    31cc:	e3530030 	cmp	r3, #48	; 0x30
    31d0:	0a000075 	beq	33ac <_vfprintf_r+0x208c>
    31d4:	e59d3088 	ldr	r3, [sp, #136]	; 0x88
    31d8:	e0866003 	add	r6, r6, r3
    31dc:	eafffe89 	b	2c08 <_vfprintf_r+0x18e8>
    31e0:	e59d3090 	ldr	r3, [sp, #144]	; 0x90
    31e4:	e0603003 	rsb	r3, r0, r3
    31e8:	e58d3044 	str	r3, [sp, #68]	; 0x44
    31ec:	e59d0088 	ldr	r0, [sp, #136]	; 0x88
    31f0:	e3700003 	cmn	r0, #3
    31f4:	e1a03000 	mov	r3, r0
    31f8:	ba000001 	blt	3204 <_vfprintf_r+0x1ee4>
    31fc:	e1540000 	cmp	r4, r0
    3200:	aafffe9a 	bge	2c70 <_vfprintf_r+0x1950>
    3204:	e2488002 	sub	r8, r8, #2
    3208:	e2400001 	sub	r0, r0, #1
    320c:	e3500000 	cmp	r0, #0
    3210:	e58d0088 	str	r0, [sp, #136]	; 0x88
    3214:	b2600000 	rsblt	r0, r0, #0
    3218:	b3a0302d 	movlt	r3, #45	; 0x2d
    321c:	a3a0302b 	movge	r3, #43	; 0x2b
    3220:	e3500009 	cmp	r0, #9
    3224:	e5cd8094 	strb	r8, [sp, #148]	; 0x94
    3228:	e5cd3095 	strb	r3, [sp, #149]	; 0x95
    322c:	ca000040 	bgt	3334 <_vfprintf_r+0x2014>
    3230:	e2800030 	add	r0, r0, #48	; 0x30
    3234:	e3a02030 	mov	r2, #48	; 0x30
    3238:	e28d30a0 	add	r3, sp, #160	; 0xa0
    323c:	e5cd0097 	strb	r0, [sp, #151]	; 0x97
    3240:	e5cd2096 	strb	r2, [sp, #150]	; 0x96
    3244:	e2432008 	sub	r2, r3, #8
    3248:	e59d6044 	ldr	r6, [sp, #68]	; 0x44
    324c:	e243300c 	sub	r3, r3, #12
    3250:	e0633002 	rsb	r3, r3, r2
    3254:	e0867003 	add	r7, r6, r3
    3258:	e3560001 	cmp	r6, #1
    325c:	e58d3070 	str	r3, [sp, #112]	; 0x70
    3260:	e58d7038 	str	r7, [sp, #56]	; 0x38
    3264:	da000072 	ble	3434 <_vfprintf_r+0x2114>
    3268:	e59d6038 	ldr	r6, [sp, #56]	; 0x38
    326c:	e2866001 	add	r6, r6, #1
    3270:	e1c67fc6 	bic	r7, r6, r6, asr #31
    3274:	e3a0c000 	mov	r12, #0
    3278:	e58d6038 	str	r6, [sp, #56]	; 0x38
    327c:	e58d7020 	str	r7, [sp, #32]
    3280:	e58dc060 	str	r12, [sp, #96]	; 0x60
    3284:	eafffe87 	b	2ca8 <_vfprintf_r+0x1988>
    3288:	e1c46fc4 	bic	r6, r4, r4, asr #31
    328c:	e58d0040 	str	r0, [sp, #64]	; 0x40
    3290:	e58d6020 	str	r6, [sp, #32]
    3294:	e5dd3083 	ldrb	r3, [sp, #131]	; 0x83
    3298:	e58d703c 	str	r7, [sp, #60]	; 0x3c
    329c:	e58d4038 	str	r4, [sp, #56]	; 0x38
    32a0:	e58d0060 	str	r0, [sp, #96]	; 0x60
    32a4:	eafff9a1 	b	1930 <_vfprintf_r+0x610>
    32a8:	e59d002c 	ldr	r0, [sp, #44]	; 0x2c
    32ac:	e59d101c 	ldr	r1, [sp, #28]
    32b0:	e28d20a4 	add	r2, sp, #164	; 0xa4
    32b4:	eb002c94 	bl	e50c <__sprint_r>
    32b8:	e3500000 	cmp	r0, #0
    32bc:	e28db0b0 	add	r11, sp, #176	; 0xb0
    32c0:	1afff8fb 	bne	16b4 <_vfprintf_r+0x394>
    32c4:	e28d40a8 	add	r4, sp, #168	; 0xa8
    32c8:	e59d8088 	ldr	r8, [sp, #136]	; 0x88
    32cc:	e8940050 	ldm	r4, {r4, r6}
    32d0:	e28d5d05 	add	r5, sp, #320	; 0x140
    32d4:	eafffee4 	b	2e6c <_vfprintf_r+0x1b4c>
    32d8:	e3a02002 	mov	r2, #2
    32dc:	eaffffa2 	b	316c <_vfprintf_r+0x1e4c>
    32e0:	e3530000 	cmp	r3, #0
    32e4:	e59d4044 	ldr	r4, [sp, #68]	; 0x44
    32e8:	d2632002 	rsble	r2, r3, #2
    32ec:	c3a02001 	movgt	r2, #1
    32f0:	e0822004 	add	r2, r2, r4
    32f4:	e1c26fc2 	bic	r6, r2, r2, asr #31
    32f8:	e58d2038 	str	r2, [sp, #56]	; 0x38
    32fc:	e58d6020 	str	r6, [sp, #32]
    3300:	e3a08067 	mov	r8, #103	; 0x67
    3304:	eafffe66 	b	2ca4 <_vfprintf_r+0x1984>
    3308:	e3530000 	cmp	r3, #0
    330c:	da000036 	ble	33ec <_vfprintf_r+0x20cc>
    3310:	e3540000 	cmp	r4, #0
    3314:	1a00002e 	bne	33d4 <_vfprintf_r+0x20b4>
    3318:	e59d6018 	ldr	r6, [sp, #24]
    331c:	e3160001 	tst	r6, #1
    3320:	1a00002b 	bne	33d4 <_vfprintf_r+0x20b4>
    3324:	e1c37fc3 	bic	r7, r3, r3, asr #31
    3328:	e58d7020 	str	r7, [sp, #32]
    332c:	e58d3038 	str	r3, [sp, #56]	; 0x38
    3330:	eafffe5b 	b	2ca4 <_vfprintf_r+0x1984>
    3334:	e28d30a0 	add	r3, sp, #160	; 0xa0
    3338:	e2832002 	add	r2, r3, #2
    333c:	e51f1c88 	ldr	r1, [pc, #-3208]	; 26bc <_vfprintf_r+0x139c>
    3340:	e0cc4091 	smull	r4, r12, r1, r0
    3344:	e1a01fc0 	asr	r1, r0, #31
    3348:	e061114c 	rsb	r1, r1, r12, asr #2
    334c:	e081c101 	add	r12, r1, r1, lsl #2
    3350:	e040c08c 	sub	r12, r0, r12, lsl #1
    3354:	e1a00001 	mov	r0, r1
    3358:	e3500009 	cmp	r0, #9
    335c:	e1a01002 	mov	r1, r2
    3360:	e28c2030 	add	r2, r12, #48	; 0x30
    3364:	e5c12000 	strb	r2, [r1]
    3368:	e2412001 	sub	r2, r1, #1
    336c:	cafffff2 	bgt	333c <_vfprintf_r+0x201c>
    3370:	e2834003 	add	r4, r3, #3
    3374:	e2800030 	add	r0, r0, #48	; 0x30
    3378:	e1540002 	cmp	r4, r2
    337c:	e5410001 	strb	r0, [r1, #-1]
    3380:	9a000037 	bls	3464 <_vfprintf_r+0x2144>
    3384:	e243c00b 	sub	r12, r3, #11
    3388:	e1a02001 	mov	r2, r1
    338c:	ea000000 	b	3394 <_vfprintf_r+0x2074>
    3390:	e4d20001 	ldrb	r0, [r2], #1
    3394:	e1520004 	cmp	r2, r4
    3398:	e5ec0001 	strb	r0, [r12, #1]!
    339c:	1afffffb 	bne	3390 <_vfprintf_r+0x2070>
    33a0:	e0612083 	rsb	r2, r1, r3, lsl #1
    33a4:	e2422006 	sub	r2, r2, #6
    33a8:	eaffffa6 	b	3248 <_vfprintf_r+0x1f28>
    33ac:	e3a03000 	mov	r3, #0
    33b0:	e1a0000a 	mov	r0, r10
    33b4:	e1a01007 	mov	r1, r7
    33b8:	e3a02000 	mov	r2, #0
    33bc:	eb003bc9 	bl	122e8 <__aeabi_dcmpeq>
    33c0:	e3500000 	cmp	r0, #0
    33c4:	02643001 	rsbeq	r3, r4, #1
    33c8:	058d3088 	streq	r3, [sp, #136]	; 0x88
    33cc:	0affff81 	beq	31d8 <_vfprintf_r+0x1eb8>
    33d0:	eaffff7f 	b	31d4 <_vfprintf_r+0x1eb4>
    33d4:	e2844001 	add	r4, r4, #1
    33d8:	e0834004 	add	r4, r3, r4
    33dc:	e1c4cfc4 	bic	r12, r4, r4, asr #31
    33e0:	e58d4038 	str	r4, [sp, #56]	; 0x38
    33e4:	e58dc020 	str	r12, [sp, #32]
    33e8:	eafffe2d 	b	2ca4 <_vfprintf_r+0x1984>
    33ec:	e3540000 	cmp	r4, #0
    33f0:	1a000016 	bne	3450 <_vfprintf_r+0x2130>
    33f4:	e59d6018 	ldr	r6, [sp, #24]
    33f8:	e3160001 	tst	r6, #1
    33fc:	1a000013 	bne	3450 <_vfprintf_r+0x2130>
    3400:	e3a07001 	mov	r7, #1
    3404:	e58d7020 	str	r7, [sp, #32]
    3408:	e58d7038 	str	r7, [sp, #56]	; 0x38
    340c:	eafffe24 	b	2ca4 <_vfprintf_r+0x1984>
    3410:	e59db03c 	ldr	r11, [sp, #60]	; 0x3c
    3414:	e59b4000 	ldr	r4, [r11]
    3418:	e28b0004 	add	r0, r11, #4
    341c:	e3540000 	cmp	r4, #0
    3420:	e5d38001 	ldrb	r8, [r3, #1]
    3424:	e58d003c 	str	r0, [sp, #60]	; 0x3c
    3428:	e1a0300c 	mov	r3, r12
    342c:	b3e04000 	mvnlt	r4, #0
    3430:	eafff81d 	b	14ac <_vfprintf_r+0x18c>
    3434:	e59dc018 	ldr	r12, [sp, #24]
    3438:	e21c3001 	ands	r3, r12, #1
    343c:	1affff89 	bne	3268 <_vfprintf_r+0x1f48>
    3440:	e1c74fc7 	bic	r4, r7, r7, asr #31
    3444:	e58d4020 	str	r4, [sp, #32]
    3448:	e58d3060 	str	r3, [sp, #96]	; 0x60
    344c:	eafffe15 	b	2ca8 <_vfprintf_r+0x1988>
    3450:	e2844002 	add	r4, r4, #2
    3454:	e1c47fc4 	bic	r7, r4, r4, asr #31
    3458:	e58d4038 	str	r4, [sp, #56]	; 0x38
    345c:	e58d7020 	str	r7, [sp, #32]
    3460:	eafffe0f 	b	2ca4 <_vfprintf_r+0x1984>
    3464:	e243200a 	sub	r2, r3, #10
    3468:	eaffff76 	b	3248 <_vfprintf_r+0x1f28>
    346c:	e59d0088 	ldr	r0, [sp, #136]	; 0x88
    3470:	eaffff64 	b	3208 <_vfprintf_r+0x1ee8>

00003474 <vfprintf>:
    3474:	e52d4004 	push	{r4}		; (str r4, [sp, #-4]!)
    3478:	e1a03002 	mov	r3, r2
    347c:	e59f2018 	ldr	r2, [pc, #24]	; 349c <vfprintf+0x28>
    3480:	e1a04000 	mov	r4, r0
    3484:	e1a0c001 	mov	r12, r1
    3488:	e5920000 	ldr	r0, [r2]
    348c:	e1a01004 	mov	r1, r4
    3490:	e1a0200c 	mov	r2, r12
    3494:	e8bd0010 	ldmfd	sp!, {r4}
    3498:	eafff7a0 	b	1320 <_vfprintf_r>
    349c:	00013c78 	.word	0x00013c78

000034a0 <__svfscanf_r>:
    34a0:	e92d4ff0 	push	{r4, r5, r6, r7, r8, r9, r10, r11, lr}
    34a4:	e24ddfaf 	sub	sp, sp, #700	; 0x2bc
    34a8:	e1a04001 	mov	r4, r1
    34ac:	e1a05002 	mov	r5, r2
    34b0:	e58d3014 	str	r3, [sp, #20]
    34b4:	e1a0b000 	mov	r11, r0
    34b8:	eb000de4 	bl	6c50 <__sfp_lock_acquire>
    34bc:	e1d430bc 	ldrh	r3, [r4, #12]
    34c0:	e3130a02 	tst	r3, #8192	; 0x2000
    34c4:	05942064 	ldreq	r2, [r4, #100]	; 0x64
    34c8:	e3a0c000 	mov	r12, #0
    34cc:	03c22a02 	biceq	r2, r2, #8192	; 0x2000
    34d0:	03833a02 	orreq	r3, r3, #8192	; 0x2000
    34d4:	05842064 	streq	r2, [r4, #100]	; 0x64
    34d8:	01c430bc 	strheq	r3, [r4, #12]
    34dc:	e1a02005 	mov	r2, r5
    34e0:	e58dc01c 	str	r12, [sp, #28]
    34e4:	e58dc024 	str	r12, [sp, #36]	; 0x24
    34e8:	e58dc020 	str	r12, [sp, #32]
    34ec:	e59f5fc0 	ldr	r5, [pc, #4032]	; 44b4 <__svfscanf_r+0x1014>
    34f0:	e1a0900c 	mov	r9, r12
    34f4:	e1a08002 	mov	r8, r2
    34f8:	e4d83001 	ldrb	r3, [r8], #1
    34fc:	e3530000 	cmp	r3, #0
    3500:	e58d3044 	str	r3, [sp, #68]	; 0x44
    3504:	0a0000c6 	beq	3824 <__svfscanf_r+0x384>
    3508:	e5951000 	ldr	r1, [r5]
    350c:	e0810003 	add	r0, r1, r3
    3510:	e5d07001 	ldrb	r7, [r0, #1]
    3514:	e2177008 	ands	r7, r7, #8
    3518:	0a000016 	beq	3578 <__svfscanf_r+0xd8>
    351c:	e5943004 	ldr	r3, [r4, #4]
    3520:	ea00000b 	b	3554 <__svfscanf_r+0xb4>
    3524:	e5942000 	ldr	r2, [r4]
    3528:	e5951000 	ldr	r1, [r5]
    352c:	e5d23000 	ldrb	r3, [r2]
    3530:	e0813003 	add	r3, r1, r3
    3534:	e5d33001 	ldrb	r3, [r3, #1]
    3538:	e3130008 	tst	r3, #8
    353c:	0a00000b 	beq	3570 <__svfscanf_r+0xd0>
    3540:	e5943004 	ldr	r3, [r4, #4]
    3544:	e2822001 	add	r2, r2, #1
    3548:	e2433001 	sub	r3, r3, #1
    354c:	e884000c 	stm	r4, {r2, r3}
    3550:	e2899001 	add	r9, r9, #1
    3554:	e3530000 	cmp	r3, #0
    3558:	cafffff1 	bgt	3524 <__svfscanf_r+0x84>
    355c:	e1a0000b 	mov	r0, r11
    3560:	e1a01004 	mov	r1, r4
    3564:	eb0019a6 	bl	9c04 <__srefill_r>
    3568:	e3500000 	cmp	r0, #0
    356c:	0affffec 	beq	3524 <__svfscanf_r+0x84>
    3570:	e1a02008 	mov	r2, r8
    3574:	eaffffde 	b	34f4 <__svfscanf_r+0x54>
    3578:	e3530025 	cmp	r3, #37	; 0x25
    357c:	0a00000f 	beq	35c0 <__svfscanf_r+0x120>
    3580:	e5943004 	ldr	r3, [r4, #4]
    3584:	e3530000 	cmp	r3, #0
    3588:	da00008b 	ble	37bc <__svfscanf_r+0x31c>
    358c:	e5943000 	ldr	r3, [r4]
    3590:	e5582001 	ldrb	r2, [r8, #-1]
    3594:	e5d31000 	ldrb	r1, [r3]
    3598:	e1510002 	cmp	r1, r2
    359c:	1a0000a0 	bne	3824 <__svfscanf_r+0x384>
    35a0:	e5942004 	ldr	r2, [r4, #4]
    35a4:	e2833001 	add	r3, r3, #1
    35a8:	e2422001 	sub	r2, r2, #1
    35ac:	e5842004 	str	r2, [r4, #4]
    35b0:	e5843000 	str	r3, [r4]
    35b4:	e2899001 	add	r9, r9, #1
    35b8:	e1a02008 	mov	r2, r8
    35bc:	eaffffcc 	b	34f4 <__svfscanf_r+0x54>
    35c0:	e5d23001 	ldrb	r3, [r2, #1]
    35c4:	e1a06007 	mov	r6, r7
    35c8:	e2882001 	add	r2, r8, #1
    35cc:	e3530078 	cmp	r3, #120	; 0x78
    35d0:	979ff103 	ldrls	pc, [pc, r3, lsl #2]
    35d4:	ea0002df 	b	4158 <__svfscanf_r+0xcb8>
    35d8:	000041a8 	.word	0x000041a8
    35dc:	00004158 	.word	0x00004158
    35e0:	00004158 	.word	0x00004158
    35e4:	00004158 	.word	0x00004158
    35e8:	00004158 	.word	0x00004158
    35ec:	00004158 	.word	0x00004158
    35f0:	00004158 	.word	0x00004158
    35f4:	00004158 	.word	0x00004158
    35f8:	00004158 	.word	0x00004158
    35fc:	00004158 	.word	0x00004158
    3600:	00004158 	.word	0x00004158
    3604:	00004158 	.word	0x00004158
    3608:	00004158 	.word	0x00004158
    360c:	00004158 	.word	0x00004158
    3610:	00004158 	.word	0x00004158
    3614:	00004158 	.word	0x00004158
    3618:	00004158 	.word	0x00004158
    361c:	00004158 	.word	0x00004158
    3620:	00004158 	.word	0x00004158
    3624:	00004158 	.word	0x00004158
    3628:	00004158 	.word	0x00004158
    362c:	00004158 	.word	0x00004158
    3630:	00004158 	.word	0x00004158
    3634:	00004158 	.word	0x00004158
    3638:	00004158 	.word	0x00004158
    363c:	00004158 	.word	0x00004158
    3640:	00004158 	.word	0x00004158
    3644:	00004158 	.word	0x00004158
    3648:	00004158 	.word	0x00004158
    364c:	00004158 	.word	0x00004158
    3650:	00004158 	.word	0x00004158
    3654:	00004158 	.word	0x00004158
    3658:	00004158 	.word	0x00004158
    365c:	00004158 	.word	0x00004158
    3660:	00004158 	.word	0x00004158
    3664:	00004158 	.word	0x00004158
    3668:	00004158 	.word	0x00004158
    366c:	000041b8 	.word	0x000041b8
    3670:	00004158 	.word	0x00004158
    3674:	00004158 	.word	0x00004158
    3678:	00004158 	.word	0x00004158
    367c:	00004158 	.word	0x00004158
    3680:	000041c4 	.word	0x000041c4
    3684:	00004158 	.word	0x00004158
    3688:	00004158 	.word	0x00004158
    368c:	00004158 	.word	0x00004158
    3690:	00004158 	.word	0x00004158
    3694:	00004158 	.word	0x00004158
    3698:	000041d4 	.word	0x000041d4
    369c:	000041d4 	.word	0x000041d4
    36a0:	000041d4 	.word	0x000041d4
    36a4:	000041d4 	.word	0x000041d4
    36a8:	000041d4 	.word	0x000041d4
    36ac:	000041d4 	.word	0x000041d4
    36b0:	000041d4 	.word	0x000041d4
    36b4:	000041d4 	.word	0x000041d4
    36b8:	000041d4 	.word	0x000041d4
    36bc:	000041d4 	.word	0x000041d4
    36c0:	00004158 	.word	0x00004158
    36c4:	00004158 	.word	0x00004158
    36c8:	00004158 	.word	0x00004158
    36cc:	00004158 	.word	0x00004158
    36d0:	00004158 	.word	0x00004158
    36d4:	00004158 	.word	0x00004158
    36d8:	00004158 	.word	0x00004158
    36dc:	00004158 	.word	0x00004158
    36e0:	00004158 	.word	0x00004158
    36e4:	00004158 	.word	0x00004158
    36e8:	000041ec 	.word	0x000041ec
    36ec:	000041f8 	.word	0x000041f8
    36f0:	00004158 	.word	0x00004158
    36f4:	000041f8 	.word	0x000041f8
    36f8:	00004158 	.word	0x00004158
    36fc:	00004158 	.word	0x00004158
    3700:	00004158 	.word	0x00004158
    3704:	00004158 	.word	0x00004158
    3708:	00004204 	.word	0x00004204
    370c:	00004158 	.word	0x00004158
    3710:	00004158 	.word	0x00004158
    3714:	00004214 	.word	0x00004214
    3718:	00004158 	.word	0x00004158
    371c:	00004158 	.word	0x00004158
    3720:	00004158 	.word	0x00004158
    3724:	00004158 	.word	0x00004158
    3728:	00004158 	.word	0x00004158
    372c:	00004158 	.word	0x00004158
    3730:	00004158 	.word	0x00004158
    3734:	00004158 	.word	0x00004158
    3738:	00004234 	.word	0x00004234
    373c:	00004158 	.word	0x00004158
    3740:	00004158 	.word	0x00004158
    3744:	00004254 	.word	0x00004254
    3748:	00004158 	.word	0x00004158
    374c:	00004158 	.word	0x00004158
    3750:	00004158 	.word	0x00004158
    3754:	00004158 	.word	0x00004158
    3758:	00004158 	.word	0x00004158
    375c:	00004158 	.word	0x00004158
    3760:	00004158 	.word	0x00004158
    3764:	00004274 	.word	0x00004274
    3768:	00004284 	.word	0x00004284
    376c:	000041f8 	.word	0x000041f8
    3770:	000041f8 	.word	0x000041f8
    3774:	000041f8 	.word	0x000041f8
    3778:	0000428c 	.word	0x0000428c
    377c:	0000429c 	.word	0x0000429c
    3780:	00004158 	.word	0x00004158
    3784:	00004158 	.word	0x00004158
    3788:	000042b8 	.word	0x000042b8
    378c:	00004158 	.word	0x00004158
    3790:	000042d8 	.word	0x000042d8
    3794:	00004308 	.word	0x00004308
    3798:	00004310 	.word	0x00004310
    379c:	00004158 	.word	0x00004158
    37a0:	00004158 	.word	0x00004158
    37a4:	0000431c 	.word	0x0000431c
    37a8:	00004158 	.word	0x00004158
    37ac:	00003838 	.word	0x00003838
    37b0:	00004158 	.word	0x00004158
    37b4:	00004158 	.word	0x00004158
    37b8:	00004234 	.word	0x00004234
    37bc:	e1a0000b 	mov	r0, r11
    37c0:	e1a01004 	mov	r1, r4
    37c4:	eb00190e 	bl	9c04 <__srefill_r>
    37c8:	e3500000 	cmp	r0, #0
    37cc:	0affff6e 	beq	358c <__svfscanf_r+0xec>
    37d0:	eb000d1f 	bl	6c54 <__sfp_lock_release>
    37d4:	e59dc020 	ldr	r12, [sp, #32]
    37d8:	e35c0000 	cmp	r12, #0
    37dc:	0a000002 	beq	37ec <__svfscanf_r+0x34c>
    37e0:	e1d430bc 	ldrh	r3, [r4, #12]
    37e4:	e3130040 	tst	r3, #64	; 0x40
    37e8:	0a00000e 	beq	3828 <__svfscanf_r+0x388>
    37ec:	e3e0c000 	mvn	r12, #0
    37f0:	e58dc020 	str	r12, [sp, #32]
    37f4:	ea00000b 	b	3828 <__svfscanf_r+0x388>
    37f8:	e59dc02c 	ldr	r12, [sp, #44]	; 0x2c
    37fc:	e15a000c 	cmp	r10, r12
    3800:	9a000007 	bls	3824 <__svfscanf_r+0x384>
    3804:	e1a0500a 	mov	r5, r10
    3808:	e5751001 	ldrb	r1, [r5, #-1]!
    380c:	e1a0000b 	mov	r0, r11
    3810:	e1a02004 	mov	r2, r4
    3814:	eb002ad7 	bl	e378 <_ungetc_r>
    3818:	e59dc02c 	ldr	r12, [sp, #44]	; 0x2c
    381c:	e155000c 	cmp	r5, r12
    3820:	1afffff8 	bne	3808 <__svfscanf_r+0x368>
    3824:	eb000d0a 	bl	6c54 <__sfp_lock_release>
    3828:	e59d0020 	ldr	r0, [sp, #32]
    382c:	e28ddfaf 	add	sp, sp, #700	; 0x2bc
    3830:	e8bd4ff0 	pop	{r4, r5, r6, r7, r8, r9, r10, r11, lr}
    3834:	e12fff1e 	bx	lr
    3838:	e59fcc88 	ldr	r12, [pc, #3208]	; 44c8 <__svfscanf_r+0x1028>
    383c:	e58dc01c 	str	r12, [sp, #28]
    3840:	e3a0c00a 	mov	r12, #10
    3844:	e58d2018 	str	r2, [sp, #24]
    3848:	e58dc024 	str	r12, [sp, #36]	; 0x24
    384c:	e3a08003 	mov	r8, #3
    3850:	e5943004 	ldr	r3, [r4, #4]
    3854:	e3530000 	cmp	r3, #0
    3858:	da00024c 	ble	4190 <__svfscanf_r+0xcf0>
    385c:	e3170040 	tst	r7, #64	; 0x40
    3860:	0a00000c 	beq	3898 <__svfscanf_r+0x3f8>
    3864:	e2488001 	sub	r8, r8, #1
    3868:	e3580003 	cmp	r8, #3
    386c:	979ff108 	ldrls	pc, [pc, r8, lsl #2]
    3870:	ea0000a8 	b	3b18 <__svfscanf_r+0x678>
    3874:	00003d18 	.word	0x00003d18
    3878:	00003a6c 	.word	0x00003a6c
    387c:	000038dc 	.word	0x000038dc
    3880:	00003b7c 	.word	0x00003b7c
    3884:	e1a0000b 	mov	r0, r11
    3888:	e1a01004 	mov	r1, r4
    388c:	eb0018dc 	bl	9c04 <__srefill_r>
    3890:	e3500000 	cmp	r0, #0
    3894:	1affffcd 	bne	37d0 <__svfscanf_r+0x330>
    3898:	e5951000 	ldr	r1, [r5]
    389c:	e5943000 	ldr	r3, [r4]
    38a0:	ea000001 	b	38ac <__svfscanf_r+0x40c>
    38a4:	e2833001 	add	r3, r3, #1
    38a8:	e5843000 	str	r3, [r4]
    38ac:	e5d32000 	ldrb	r2, [r3]
    38b0:	e0812002 	add	r2, r1, r2
    38b4:	e5d22001 	ldrb	r2, [r2, #1]
    38b8:	e3120008 	tst	r2, #8
    38bc:	0affffe8 	beq	3864 <__svfscanf_r+0x3c4>
    38c0:	e5942004 	ldr	r2, [r4, #4]
    38c4:	e2422001 	sub	r2, r2, #1
    38c8:	e3520000 	cmp	r2, #0
    38cc:	e5842004 	str	r2, [r4, #4]
    38d0:	e2899001 	add	r9, r9, #1
    38d4:	cafffff2 	bgt	38a4 <__svfscanf_r+0x404>
    38d8:	eaffffe9 	b	3884 <__svfscanf_r+0x3e4>
    38dc:	e2463001 	sub	r3, r6, #1
    38e0:	e3530f57 	cmp	r3, #348	; 0x15c
    38e4:	82463f57 	subhi	r3, r6, #348	; 0x15c
    38e8:	e28dcf56 	add	r12, sp, #344	; 0x158
    38ec:	82433001 	subhi	r3, r3, #1
    38f0:	93a03000 	movls	r3, #0
    38f4:	e3a0a000 	mov	r10, #0
    38f8:	e58dc02c 	str	r12, [sp, #44]	; 0x2c
    38fc:	e1a0800c 	mov	r8, r12
    3900:	859f6bb0 	ldrhi	r6, [pc, #2992]	; 44b8 <__svfscanf_r+0x1018>
    3904:	e1a0c009 	mov	r12, r9
    3908:	e1a09003 	mov	r9, r3
    390c:	e1a0300b 	mov	r3, r11
    3910:	e1a0b00a 	mov	r11, r10
    3914:	e59da024 	ldr	r10, [sp, #36]	; 0x24
    3918:	e3877d36 	orr	r7, r7, #3456	; 0xd80
    391c:	e5940000 	ldr	r0, [r4]
    3920:	e5d01000 	ldrb	r1, [r0]
    3924:	e241202b 	sub	r2, r1, #43	; 0x2b
    3928:	e352004d 	cmp	r2, #77	; 0x4d
    392c:	979ff102 	ldrls	pc, [pc, r2, lsl #2]
    3930:	ea000125 	b	3dcc <__svfscanf_r+0x92c>
    3934:	00003e5c 	.word	0x00003e5c
    3938:	00003dcc 	.word	0x00003dcc
    393c:	00003e5c 	.word	0x00003e5c
    3940:	00003dcc 	.word	0x00003dcc
    3944:	00003dcc 	.word	0x00003dcc
    3948:	00003e80 	.word	0x00003e80
    394c:	00003e6c 	.word	0x00003e6c
    3950:	00003e6c 	.word	0x00003e6c
    3954:	00003e6c 	.word	0x00003e6c
    3958:	00003e6c 	.word	0x00003e6c
    395c:	00003e6c 	.word	0x00003e6c
    3960:	00003e6c 	.word	0x00003e6c
    3964:	00003e6c 	.word	0x00003e6c
    3968:	00003e44 	.word	0x00003e44
    396c:	00003e44 	.word	0x00003e44
    3970:	00003dcc 	.word	0x00003dcc
    3974:	00003dcc 	.word	0x00003dcc
    3978:	00003dcc 	.word	0x00003dcc
    397c:	00003dcc 	.word	0x00003dcc
    3980:	00003dcc 	.word	0x00003dcc
    3984:	00003dcc 	.word	0x00003dcc
    3988:	00003dcc 	.word	0x00003dcc
    398c:	00003e34 	.word	0x00003e34
    3990:	00003e34 	.word	0x00003e34
    3994:	00003e34 	.word	0x00003e34
    3998:	00003e34 	.word	0x00003e34
    399c:	00003e34 	.word	0x00003e34
    39a0:	00003e34 	.word	0x00003e34
    39a4:	00003dcc 	.word	0x00003dcc
    39a8:	00003dcc 	.word	0x00003dcc
    39ac:	00003dcc 	.word	0x00003dcc
    39b0:	00003dcc 	.word	0x00003dcc
    39b4:	00003dcc 	.word	0x00003dcc
    39b8:	00003dcc 	.word	0x00003dcc
    39bc:	00003dcc 	.word	0x00003dcc
    39c0:	00003dcc 	.word	0x00003dcc
    39c4:	00003dcc 	.word	0x00003dcc
    39c8:	00003dcc 	.word	0x00003dcc
    39cc:	00003dcc 	.word	0x00003dcc
    39d0:	00003dcc 	.word	0x00003dcc
    39d4:	00003dcc 	.word	0x00003dcc
    39d8:	00003dcc 	.word	0x00003dcc
    39dc:	00003dcc 	.word	0x00003dcc
    39e0:	00003dcc 	.word	0x00003dcc
    39e4:	00003dcc 	.word	0x00003dcc
    39e8:	00003d8c 	.word	0x00003d8c
    39ec:	00003dcc 	.word	0x00003dcc
    39f0:	00003dcc 	.word	0x00003dcc
    39f4:	00003dcc 	.word	0x00003dcc
    39f8:	00003dcc 	.word	0x00003dcc
    39fc:	00003dcc 	.word	0x00003dcc
    3a00:	00003dcc 	.word	0x00003dcc
    3a04:	00003dcc 	.word	0x00003dcc
    3a08:	00003dcc 	.word	0x00003dcc
    3a0c:	00003e34 	.word	0x00003e34
    3a10:	00003e34 	.word	0x00003e34
    3a14:	00003e34 	.word	0x00003e34
    3a18:	00003e34 	.word	0x00003e34
    3a1c:	00003e34 	.word	0x00003e34
    3a20:	00003e34 	.word	0x00003e34
    3a24:	00003dcc 	.word	0x00003dcc
    3a28:	00003dcc 	.word	0x00003dcc
    3a2c:	00003dcc 	.word	0x00003dcc
    3a30:	00003dcc 	.word	0x00003dcc
    3a34:	00003dcc 	.word	0x00003dcc
    3a38:	00003dcc 	.word	0x00003dcc
    3a3c:	00003dcc 	.word	0x00003dcc
    3a40:	00003dcc 	.word	0x00003dcc
    3a44:	00003dcc 	.word	0x00003dcc
    3a48:	00003dcc 	.word	0x00003dcc
    3a4c:	00003dcc 	.word	0x00003dcc
    3a50:	00003dcc 	.word	0x00003dcc
    3a54:	00003dcc 	.word	0x00003dcc
    3a58:	00003dcc 	.word	0x00003dcc
    3a5c:	00003dcc 	.word	0x00003dcc
    3a60:	00003dcc 	.word	0x00003dcc
    3a64:	00003dcc 	.word	0x00003dcc
    3a68:	00003d8c 	.word	0x00003d8c
    3a6c:	e3560000 	cmp	r6, #0
    3a70:	03e06000 	mvneq	r6, #0
    3a74:	e2172001 	ands	r2, r7, #1
    3a78:	1a00022a 	bne	4328 <__svfscanf_r+0xe88>
    3a7c:	e3170010 	tst	r7, #16
    3a80:	1a000291 	bne	44cc <__svfscanf_r+0x102c>
    3a84:	e59dc014 	ldr	r12, [sp, #20]
    3a88:	e59ca000 	ldr	r10, [r12]
    3a8c:	e28c3004 	add	r3, r12, #4
    3a90:	e5942000 	ldr	r2, [r4]
    3a94:	e28a7001 	add	r7, r10, #1
    3a98:	e08a6006 	add	r6, r10, r6
    3a9c:	e1a08003 	mov	r8, r3
    3aa0:	ea000000 	b	3aa8 <__svfscanf_r+0x608>
    3aa4:	e2877001 	add	r7, r7, #1
    3aa8:	e5d23000 	ldrb	r3, [r2]
    3aac:	e5951000 	ldr	r1, [r5]
    3ab0:	e0811003 	add	r1, r1, r3
    3ab4:	e5d11001 	ldrb	r1, [r1, #1]
    3ab8:	e3110008 	tst	r1, #8
    3abc:	e2473001 	sub	r3, r7, #1
    3ac0:	1a00029b 	bne	4534 <__svfscanf_r+0x1094>
    3ac4:	e5943004 	ldr	r3, [r4, #4]
    3ac8:	e2433001 	sub	r3, r3, #1
    3acc:	e5843004 	str	r3, [r4, #4]
    3ad0:	e4d23001 	ldrb	r3, [r2], #1
    3ad4:	e1570006 	cmp	r7, r6
    3ad8:	e5473001 	strb	r3, [r7, #-1]
    3adc:	e1a03007 	mov	r3, r7
    3ae0:	e5842000 	str	r2, [r4]
    3ae4:	0a000292 	beq	4534 <__svfscanf_r+0x1094>
    3ae8:	e5941004 	ldr	r1, [r4, #4]
    3aec:	e3510000 	cmp	r1, #0
    3af0:	caffffeb 	bgt	3aa4 <__svfscanf_r+0x604>
    3af4:	e1a0000b 	mov	r0, r11
    3af8:	e1a01004 	mov	r1, r4
    3afc:	e58d7008 	str	r7, [sp, #8]
    3b00:	eb00183f 	bl	9c04 <__srefill_r>
    3b04:	e3500000 	cmp	r0, #0
    3b08:	e59d3008 	ldr	r3, [sp, #8]
    3b0c:	1a000288 	bne	4534 <__svfscanf_r+0x1094>
    3b10:	e5942000 	ldr	r2, [r4]
    3b14:	eaffffe2 	b	3aa4 <__svfscanf_r+0x604>
    3b18:	e3560000 	cmp	r6, #0
    3b1c:	03a06001 	moveq	r6, #1
    3b20:	e2173001 	ands	r3, r7, #1
    3b24:	1a000294 	bne	457c <__svfscanf_r+0x10dc>
    3b28:	e3170010 	tst	r7, #16
    3b2c:	0a0002f0 	beq	46f4 <__svfscanf_r+0x1254>
    3b30:	e1a07003 	mov	r7, r3
    3b34:	e894000c 	ldm	r4, {r2, r3}
    3b38:	e1530006 	cmp	r3, r6
    3b3c:	e1a0000b 	mov	r0, r11
    3b40:	e1a01004 	mov	r1, r4
    3b44:	aa000312 	bge	4794 <__svfscanf_r+0x12f4>
    3b48:	e0822003 	add	r2, r2, r3
    3b4c:	e5842000 	str	r2, [r4]
    3b50:	e0877003 	add	r7, r7, r3
    3b54:	e0636006 	rsb	r6, r3, r6
    3b58:	eb001829 	bl	9c04 <__srefill_r>
    3b5c:	e3500000 	cmp	r0, #0
    3b60:	0afffff3 	beq	3b34 <__svfscanf_r+0x694>
    3b64:	e3570000 	cmp	r7, #0
    3b68:	0affff18 	beq	37d0 <__svfscanf_r+0x330>
    3b6c:	e59d8018 	ldr	r8, [sp, #24]
    3b70:	e0899007 	add	r9, r9, r7
    3b74:	e1a02008 	mov	r2, r8
    3b78:	eafffe5d 	b	34f4 <__svfscanf_r+0x54>
    3b7c:	e2463001 	sub	r3, r6, #1
    3b80:	e28dcf56 	add	r12, sp, #344	; 0x158
    3b84:	e3a08000 	mov	r8, #0
    3b88:	e3530f57 	cmp	r3, #348	; 0x15c
    3b8c:	e58dc02c 	str	r12, [sp, #44]	; 0x2c
    3b90:	82463f57 	subhi	r3, r6, #348	; 0x15c
    3b94:	e58d8030 	str	r8, [sp, #48]	; 0x30
    3b98:	859f6918 	ldrhi	r6, [pc, #2328]	; 44b8 <__svfscanf_r+0x1018>
    3b9c:	e58d8038 	str	r8, [sp, #56]	; 0x38
    3ba0:	e58d8028 	str	r8, [sp, #40]	; 0x28
    3ba4:	e58d8034 	str	r8, [sp, #52]	; 0x34
    3ba8:	e59da02c 	ldr	r10, [sp, #44]	; 0x2c
    3bac:	e1a0200b 	mov	r2, r11
    3bb0:	82433001 	subhi	r3, r3, #1
    3bb4:	93a03000 	movls	r3, #0
    3bb8:	e3877d1e 	orr	r7, r7, #1920	; 0x780
    3bbc:	e1a0c008 	mov	r12, r8
    3bc0:	e1a0b008 	mov	r11, r8
    3bc4:	e594e000 	ldr	lr, [r4]
    3bc8:	e5de0000 	ldrb	r0, [lr]
    3bcc:	e240102b 	sub	r1, r0, #43	; 0x2b
    3bd0:	e351004e 	cmp	r1, #78	; 0x4e
    3bd4:	979ff101 	ldrls	pc, [pc, r1, lsl #2]
    3bd8:	ea0000c6 	b	3ef8 <__svfscanf_r+0xa58>
    3bdc:	000040d8 	.word	0x000040d8
    3be0:	00003ef8 	.word	0x00003ef8
    3be4:	000040d8 	.word	0x000040d8
    3be8:	000040c4 	.word	0x000040c4
    3bec:	00003ef8 	.word	0x00003ef8
    3bf0:	000040a4 	.word	0x000040a4
    3bf4:	00003eb8 	.word	0x00003eb8
    3bf8:	00003eb8 	.word	0x00003eb8
    3bfc:	00003eb8 	.word	0x00003eb8
    3c00:	00003eb8 	.word	0x00003eb8
    3c04:	00003eb8 	.word	0x00003eb8
    3c08:	00003eb8 	.word	0x00003eb8
    3c0c:	00003eb8 	.word	0x00003eb8
    3c10:	00003eb8 	.word	0x00003eb8
    3c14:	00003eb8 	.word	0x00003eb8
    3c18:	00003ef8 	.word	0x00003ef8
    3c1c:	00003ef8 	.word	0x00003ef8
    3c20:	00003ef8 	.word	0x00003ef8
    3c24:	00003ef8 	.word	0x00003ef8
    3c28:	00003ef8 	.word	0x00003ef8
    3c2c:	00003ef8 	.word	0x00003ef8
    3c30:	00003ef8 	.word	0x00003ef8
    3c34:	00004044 	.word	0x00004044
    3c38:	00003ef8 	.word	0x00003ef8
    3c3c:	00003ef8 	.word	0x00003ef8
    3c40:	00003ef8 	.word	0x00003ef8
    3c44:	00004064 	.word	0x00004064
    3c48:	00004054 	.word	0x00004054
    3c4c:	00003ef8 	.word	0x00003ef8
    3c50:	00003ef8 	.word	0x00003ef8
    3c54:	00004124 	.word	0x00004124
    3c58:	00003ef8 	.word	0x00003ef8
    3c5c:	00003ef8 	.word	0x00003ef8
    3c60:	00003ef8 	.word	0x00003ef8
    3c64:	00003ef8 	.word	0x00003ef8
    3c68:	000040e8 	.word	0x000040e8
    3c6c:	00003ef8 	.word	0x00003ef8
    3c70:	00003ef8 	.word	0x00003ef8
    3c74:	00003ef8 	.word	0x00003ef8
    3c78:	00003ef8 	.word	0x00003ef8
    3c7c:	00003ef8 	.word	0x00003ef8
    3c80:	00004034 	.word	0x00004034
    3c84:	00003ef8 	.word	0x00003ef8
    3c88:	00003ef8 	.word	0x00003ef8
    3c8c:	00003ef8 	.word	0x00003ef8
    3c90:	00003ef8 	.word	0x00003ef8
    3c94:	00004024 	.word	0x00004024
    3c98:	00003ef8 	.word	0x00003ef8
    3c9c:	00003ef8 	.word	0x00003ef8
    3ca0:	00003ef8 	.word	0x00003ef8
    3ca4:	00003ef8 	.word	0x00003ef8
    3ca8:	00003ef8 	.word	0x00003ef8
    3cac:	00003ef8 	.word	0x00003ef8
    3cb0:	00003ef8 	.word	0x00003ef8
    3cb4:	00004044 	.word	0x00004044
    3cb8:	00003ef8 	.word	0x00003ef8
    3cbc:	00003ef8 	.word	0x00003ef8
    3cc0:	00003ef8 	.word	0x00003ef8
    3cc4:	00004064 	.word	0x00004064
    3cc8:	00004054 	.word	0x00004054
    3ccc:	00003ef8 	.word	0x00003ef8
    3cd0:	00003ef8 	.word	0x00003ef8
    3cd4:	00004124 	.word	0x00004124
    3cd8:	00003ef8 	.word	0x00003ef8
    3cdc:	00003ef8 	.word	0x00003ef8
    3ce0:	00003ef8 	.word	0x00003ef8
    3ce4:	00003ef8 	.word	0x00003ef8
    3ce8:	000040e8 	.word	0x000040e8
    3cec:	00003ef8 	.word	0x00003ef8
    3cf0:	00003ef8 	.word	0x00003ef8
    3cf4:	00003ef8 	.word	0x00003ef8
    3cf8:	00003ef8 	.word	0x00003ef8
    3cfc:	00003ef8 	.word	0x00003ef8
    3d00:	00004034 	.word	0x00004034
    3d04:	00003ef8 	.word	0x00003ef8
    3d08:	00003ef8 	.word	0x00003ef8
    3d0c:	00003ef8 	.word	0x00003ef8
    3d10:	00003ef8 	.word	0x00003ef8
    3d14:	00004024 	.word	0x00004024
    3d18:	e3560000 	cmp	r6, #0
    3d1c:	03e06000 	mvneq	r6, #0
    3d20:	e3170010 	tst	r7, #16
    3d24:	0a0001b2 	beq	43f4 <__svfscanf_r+0xf54>
    3d28:	e5943000 	ldr	r3, [r4]
    3d2c:	e3a07000 	mov	r7, #0
    3d30:	e5d32000 	ldrb	r2, [r3]
    3d34:	e28d0fae 	add	r0, sp, #696	; 0x2b8
    3d38:	e0802002 	add	r2, r0, r2
    3d3c:	e5522260 	ldrb	r2, [r2, #-608]	; 0xfffffda0
    3d40:	e3520000 	cmp	r2, #0
    3d44:	e2833001 	add	r3, r3, #1
    3d48:	0a000266 	beq	46e8 <__svfscanf_r+0x1248>
    3d4c:	e5942004 	ldr	r2, [r4, #4]
    3d50:	e2877001 	add	r7, r7, #1
    3d54:	e2422001 	sub	r2, r2, #1
    3d58:	e1560007 	cmp	r6, r7
    3d5c:	e5843000 	str	r3, [r4]
    3d60:	e5842004 	str	r2, [r4, #4]
    3d64:	0affff80 	beq	3b6c <__svfscanf_r+0x6cc>
    3d68:	e3520000 	cmp	r2, #0
    3d6c:	caffffef 	bgt	3d30 <__svfscanf_r+0x890>
    3d70:	e1a0000b 	mov	r0, r11
    3d74:	e1a01004 	mov	r1, r4
    3d78:	eb0017a1 	bl	9c04 <__srefill_r>
    3d7c:	e3500000 	cmp	r0, #0
    3d80:	1affff79 	bne	3b6c <__svfscanf_r+0x6cc>
    3d84:	e5943000 	ldr	r3, [r4]
    3d88:	eaffffe8 	b	3d30 <__svfscanf_r+0x890>
    3d8c:	e2072c06 	and	r2, r7, #1536	; 0x600
    3d90:	e3520c02 	cmp	r2, #512	; 0x200
    3d94:	1a00000c 	bne	3dcc <__svfscanf_r+0x92c>
    3d98:	e3c77c02 	bic	r7, r7, #512	; 0x200
    3d9c:	e3877c05 	orr	r7, r7, #1280	; 0x500
    3da0:	e3a0a010 	mov	r10, #16
    3da4:	e4c81001 	strb	r1, [r8], #1
    3da8:	e5942004 	ldr	r2, [r4, #4]
    3dac:	e2422001 	sub	r2, r2, #1
    3db0:	e3520000 	cmp	r2, #0
    3db4:	e5842004 	str	r2, [r4, #4]
    3db8:	da000183 	ble	43cc <__svfscanf_r+0xf2c>
    3dbc:	e2800001 	add	r0, r0, #1
    3dc0:	e5840000 	str	r0, [r4]
    3dc4:	e2566001 	subs	r6, r6, #1
    3dc8:	1afffed3 	bne	391c <__svfscanf_r+0x47c>
    3dcc:	e3170c01 	tst	r7, #256	; 0x100
    3dd0:	e58da024 	str	r10, [sp, #36]	; 0x24
    3dd4:	e1a0900c 	mov	r9, r12
    3dd8:	e1a0a00b 	mov	r10, r11
    3ddc:	e1a0b003 	mov	r11, r3
    3de0:	0a00000a 	beq	3e10 <__svfscanf_r+0x970>
    3de4:	e59dc02c 	ldr	r12, [sp, #44]	; 0x2c
    3de8:	e158000c 	cmp	r8, r12
    3dec:	9a000004 	bls	3e04 <__svfscanf_r+0x964>
    3df0:	e5581001 	ldrb	r1, [r8, #-1]
    3df4:	e1a00003 	mov	r0, r3
    3df8:	e1a02004 	mov	r2, r4
    3dfc:	eb00295d 	bl	e378 <_ungetc_r>
    3e00:	e2488001 	sub	r8, r8, #1
    3e04:	e59dc02c 	ldr	r12, [sp, #44]	; 0x2c
    3e08:	e158000c 	cmp	r8, r12
    3e0c:	0afffe84 	beq	3824 <__svfscanf_r+0x384>
    3e10:	e217c010 	ands	r12, r7, #16
    3e14:	0a000218 	beq	467c <__svfscanf_r+0x11dc>
    3e18:	e59dc02c 	ldr	r12, [sp, #44]	; 0x2c
    3e1c:	e06c8008 	rsb	r8, r12, r8
    3e20:	e088a00a 	add	r10, r8, r10
    3e24:	e59d8018 	ldr	r8, [sp, #24]
    3e28:	e089900a 	add	r9, r9, r10
    3e2c:	e1a02008 	mov	r2, r8
    3e30:	eafffdaf 	b	34f4 <__svfscanf_r+0x54>
    3e34:	e35a000a 	cmp	r10, #10
    3e38:	daffffe3 	ble	3dcc <__svfscanf_r+0x92c>
    3e3c:	e3c77d2e 	bic	r7, r7, #2944	; 0xb80
    3e40:	eaffffd7 	b	3da4 <__svfscanf_r+0x904>
    3e44:	e59f2670 	ldr	r2, [pc, #1648]	; 44bc <__svfscanf_r+0x101c>
    3e48:	e1a0a08a 	lsl	r10, r10, #1
    3e4c:	e192a0fa 	ldrsh	r10, [r2, r10]
    3e50:	e35a0008 	cmp	r10, #8
    3e54:	cafffff8 	bgt	3e3c <__svfscanf_r+0x99c>
    3e58:	eaffffdb 	b	3dcc <__svfscanf_r+0x92c>
    3e5c:	e3170080 	tst	r7, #128	; 0x80
    3e60:	0affffd9 	beq	3dcc <__svfscanf_r+0x92c>
    3e64:	e3c77080 	bic	r7, r7, #128	; 0x80
    3e68:	eaffffcd 	b	3da4 <__svfscanf_r+0x904>
    3e6c:	e59f2648 	ldr	r2, [pc, #1608]	; 44bc <__svfscanf_r+0x101c>
    3e70:	e1a0a08a 	lsl	r10, r10, #1
    3e74:	e192a0fa 	ldrsh	r10, [r2, r10]
    3e78:	e3c77d2e 	bic	r7, r7, #2944	; 0xb80
    3e7c:	eaffffc8 	b	3da4 <__svfscanf_r+0x904>
    3e80:	e3170b02 	tst	r7, #2048	; 0x800
    3e84:	0affffc6 	beq	3da4 <__svfscanf_r+0x904>
    3e88:	e35a0000 	cmp	r10, #0
    3e8c:	03877c02 	orreq	r7, r7, #512	; 0x200
    3e90:	03a0a008 	moveq	r10, #8
    3e94:	e3170b01 	tst	r7, #1024	; 0x400
    3e98:	13c77d16 	bicne	r7, r7, #1408	; 0x580
    3e9c:	1affffc0 	bne	3da4 <__svfscanf_r+0x904>
    3ea0:	e3590000 	cmp	r9, #0
    3ea4:	e3c77d0e 	bic	r7, r7, #896	; 0x380
    3ea8:	12499001 	subne	r9, r9, #1
    3eac:	12866001 	addne	r6, r6, #1
    3eb0:	e28bb001 	add	r11, r11, #1
    3eb4:	eaffffbb 	b	3da8 <__svfscanf_r+0x908>
    3eb8:	e08c1008 	add	r1, r12, r8
    3ebc:	e3510000 	cmp	r1, #0
    3ec0:	1a00000c 	bne	3ef8 <__svfscanf_r+0xa58>
    3ec4:	e3c77d06 	bic	r7, r7, #384	; 0x180
    3ec8:	e4ca0001 	strb	r0, [r10], #1
    3ecc:	e5941004 	ldr	r1, [r4, #4]
    3ed0:	e2411001 	sub	r1, r1, #1
    3ed4:	e3510000 	cmp	r1, #0
    3ed8:	e2466001 	sub	r6, r6, #1
    3edc:	e2899001 	add	r9, r9, #1
    3ee0:	e5841004 	str	r1, [r4, #4]
    3ee4:	da00012c 	ble	439c <__svfscanf_r+0xefc>
    3ee8:	e28ee001 	add	lr, lr, #1
    3eec:	e584e000 	str	lr, [r4]
    3ef0:	e3560000 	cmp	r6, #0
    3ef4:	1affff32 	bne	3bc4 <__svfscanf_r+0x724>
    3ef8:	e58db028 	str	r11, [sp, #40]	; 0x28
    3efc:	e59d3028 	ldr	r3, [sp, #40]	; 0x28
    3f00:	e3530000 	cmp	r3, #0
    3f04:	e1a0b002 	mov	r11, r2
    3f08:	13c77c01 	bicne	r7, r7, #256	; 0x100
    3f0c:	e24c3001 	sub	r3, r12, #1
    3f10:	e3530001 	cmp	r3, #1
    3f14:	9afffe37 	bls	37f8 <__svfscanf_r+0x358>
    3f18:	e2483001 	sub	r3, r8, #1
    3f1c:	e3530006 	cmp	r3, #6
    3f20:	8a000014 	bhi	3f78 <__svfscanf_r+0xad8>
    3f24:	e3580002 	cmp	r8, #2
    3f28:	9a0002aa 	bls	49d8 <__svfscanf_r+0x1538>
    3f2c:	e3580003 	cmp	r8, #3
    3f30:	0a000010 	beq	3f78 <__svfscanf_r+0xad8>
    3f34:	e2483004 	sub	r3, r8, #4
    3f38:	e20330ff 	and	r3, r3, #255	; 0xff
    3f3c:	e24a6001 	sub	r6, r10, #1
    3f40:	e58d303c 	str	r3, [sp, #60]	; 0x3c
    3f44:	e1a0800a 	mov	r8, r10
    3f48:	e0636006 	rsb	r6, r3, r6
    3f4c:	e5781001 	ldrb	r1, [r8, #-1]!
    3f50:	e1a0000b 	mov	r0, r11
    3f54:	e1a02004 	mov	r2, r4
    3f58:	eb002906 	bl	e378 <_ungetc_r>
    3f5c:	e1580006 	cmp	r8, r6
    3f60:	1afffff9 	bne	3f4c <__svfscanf_r+0xaac>
    3f64:	e59dc03c 	ldr	r12, [sp, #60]	; 0x3c
    3f68:	e2499001 	sub	r9, r9, #1
    3f6c:	e1e0300c 	mvn	r3, r12
    3f70:	e08aa003 	add	r10, r10, r3
    3f74:	e06c9009 	rsb	r9, r12, r9
    3f78:	e3170c01 	tst	r7, #256	; 0x100
    3f7c:	0a00000a 	beq	3fac <__svfscanf_r+0xb0c>
    3f80:	e3170b01 	tst	r7, #1024	; 0x400
    3f84:	1a000284 	bne	499c <__svfscanf_r+0x14fc>
    3f88:	e55a1001 	ldrb	r1, [r10, #-1]
    3f8c:	e20130df 	and	r3, r1, #223	; 0xdf
    3f90:	e3530045 	cmp	r3, #69	; 0x45
    3f94:	e2499001 	sub	r9, r9, #1
    3f98:	024aa001 	subeq	r10, r10, #1
    3f9c:	1a0001f5 	bne	4778 <__svfscanf_r+0x12d8>
    3fa0:	e1a0000b 	mov	r0, r11
    3fa4:	e1a02004 	mov	r2, r4
    3fa8:	eb0028f2 	bl	e378 <_ungetc_r>
    3fac:	e2172010 	ands	r2, r7, #16
    3fb0:	1a0000f6 	bne	4390 <__svfscanf_r+0xef0>
    3fb4:	e2073c06 	and	r3, r7, #1536	; 0x600
    3fb8:	e3530b01 	cmp	r3, #1024	; 0x400
    3fbc:	e5ca2000 	strb	r2, [r10]
    3fc0:	0a00020a 	beq	47f0 <__svfscanf_r+0x1350>
    3fc4:	e59dc038 	ldr	r12, [sp, #56]	; 0x38
    3fc8:	e35c0000 	cmp	r12, #0
    3fcc:	1a0001f5 	bne	47a8 <__svfscanf_r+0x1308>
    3fd0:	e3a02000 	mov	r2, #0
    3fd4:	e1a0000b 	mov	r0, r11
    3fd8:	e59d102c 	ldr	r1, [sp, #44]	; 0x2c
    3fdc:	eb0018cd 	bl	a318 <_strtod_r>
    3fe0:	e3170001 	tst	r7, #1
    3fe4:	e1a02000 	mov	r2, r0
    3fe8:	e1a03001 	mov	r3, r1
    3fec:	e59dc014 	ldr	r12, [sp, #20]
    3ff0:	1a000001 	bne	3ffc <__svfscanf_r+0xb5c>
    3ff4:	e3170002 	tst	r7, #2
    3ff8:	0a000242 	beq	4908 <__svfscanf_r+0x1468>
    3ffc:	e59c1000 	ldr	r1, [r12]
    4000:	e28cc004 	add	r12, r12, #4
    4004:	e58dc014 	str	r12, [sp, #20]
    4008:	e881000c 	stm	r1, {r2, r3}
    400c:	e59dc020 	ldr	r12, [sp, #32]
    4010:	e59d8018 	ldr	r8, [sp, #24]
    4014:	e28cc001 	add	r12, r12, #1
    4018:	e58dc020 	str	r12, [sp, #32]
    401c:	e1a02008 	mov	r2, r8
    4020:	eafffd33 	b	34f4 <__svfscanf_r+0x54>
    4024:	e3580007 	cmp	r8, #7
    4028:	1affffb2 	bne	3ef8 <__svfscanf_r+0xa58>
    402c:	e3a08008 	mov	r8, #8
    4030:	eaffffa4 	b	3ec8 <__svfscanf_r+0xa28>
    4034:	e3580006 	cmp	r8, #6
    4038:	1affffae 	bne	3ef8 <__svfscanf_r+0xa58>
    403c:	e3a08007 	mov	r8, #7
    4040:	eaffffa0 	b	3ec8 <__svfscanf_r+0xa28>
    4044:	e35c0001 	cmp	r12, #1
    4048:	1affffaa 	bne	3ef8 <__svfscanf_r+0xa58>
    404c:	e3a0c002 	mov	r12, #2
    4050:	eaffff9c 	b	3ec8 <__svfscanf_r+0xa28>
    4054:	e3580002 	cmp	r8, #2
    4058:	1affffa6 	bne	3ef8 <__svfscanf_r+0xa58>
    405c:	e3a08003 	mov	r8, #3
    4060:	eaffff98 	b	3ec8 <__svfscanf_r+0xa28>
    4064:	e2071c05 	and	r1, r7, #1280	; 0x500
    4068:	e3510b01 	cmp	r1, #1024	; 0x400
    406c:	0a000003 	beq	4080 <__svfscanf_r+0xbe0>
    4070:	e3170b01 	tst	r7, #1024	; 0x400
    4074:	0affff9f 	beq	3ef8 <__svfscanf_r+0xa58>
    4078:	e35b0000 	cmp	r11, #0
    407c:	0a000252 	beq	49cc <__svfscanf_r+0x152c>
    4080:	e3170c02 	tst	r7, #512	; 0x200
    4084:	059d1034 	ldreq	r1, [sp, #52]	; 0x34
    4088:	e3c77d1e 	bic	r7, r7, #1920	; 0x780
    408c:	0061b00b 	rsbeq	r11, r1, r11
    4090:	058db038 	streq	r11, [sp, #56]	; 0x38
    4094:	058da030 	streq	r10, [sp, #48]	; 0x30
    4098:	e3877d06 	orr	r7, r7, #384	; 0x180
    409c:	e3a0b000 	mov	r11, #0
    40a0:	eaffff88 	b	3ec8 <__svfscanf_r+0xa28>
    40a4:	e3170c01 	tst	r7, #256	; 0x100
    40a8:	0affff82 	beq	3eb8 <__svfscanf_r+0xa18>
    40ac:	e3530000 	cmp	r3, #0
    40b0:	e3c77080 	bic	r7, r7, #128	; 0x80
    40b4:	e28bb001 	add	r11, r11, #1
    40b8:	12433001 	subne	r3, r3, #1
    40bc:	12866001 	addne	r6, r6, #1
    40c0:	eaffff81 	b	3ecc <__svfscanf_r+0xa2c>
    40c4:	e3170c02 	tst	r7, #512	; 0x200
    40c8:	0affff8a 	beq	3ef8 <__svfscanf_r+0xa58>
    40cc:	e3c77d0a 	bic	r7, r7, #640	; 0x280
    40d0:	e58db034 	str	r11, [sp, #52]	; 0x34
    40d4:	eaffff7b 	b	3ec8 <__svfscanf_r+0xa28>
    40d8:	e3170080 	tst	r7, #128	; 0x80
    40dc:	0affff85 	beq	3ef8 <__svfscanf_r+0xa58>
    40e0:	e3c77080 	bic	r7, r7, #128	; 0x80
    40e4:	eaffff77 	b	3ec8 <__svfscanf_r+0xa28>
    40e8:	e35b0000 	cmp	r11, #0
    40ec:	035c0000 	cmpeq	r12, #0
    40f0:	1a00011d 	bne	456c <__svfscanf_r+0x10cc>
    40f4:	e2071c07 	and	r1, r7, #1792	; 0x700
    40f8:	e3510c07 	cmp	r1, #1792	; 0x700
    40fc:	03c77d1e 	biceq	r7, r7, #1920	; 0x780
    4100:	03a0c001 	moveq	r12, #1
    4104:	03a0b000 	moveq	r11, #0
    4108:	0affff6e 	beq	3ec8 <__svfscanf_r+0xa28>
    410c:	e3580001 	cmp	r8, #1
    4110:	13580004 	cmpne	r8, #4
    4114:	1affff77 	bne	3ef8 <__svfscanf_r+0xa58>
    4118:	e2888001 	add	r8, r8, #1
    411c:	e20880ff 	and	r8, r8, #255	; 0xff
    4120:	eaffff68 	b	3ec8 <__svfscanf_r+0xa28>
    4124:	e35b0000 	cmp	r11, #0
    4128:	03580000 	cmpeq	r8, #0
    412c:	1a000005 	bne	4148 <__svfscanf_r+0xca8>
    4130:	e2071c07 	and	r1, r7, #1792	; 0x700
    4134:	e3510c07 	cmp	r1, #1792	; 0x700
    4138:	03c77d1e 	biceq	r7, r7, #1920	; 0x780
    413c:	03a08001 	moveq	r8, #1
    4140:	03a0b000 	moveq	r11, #0
    4144:	0affff5f 	beq	3ec8 <__svfscanf_r+0xa28>
    4148:	e3580003 	cmp	r8, #3
    414c:	13580005 	cmpne	r8, #5
    4150:	0afffff0 	beq	4118 <__svfscanf_r+0xc78>
    4154:	eaffff67 	b	3ef8 <__svfscanf_r+0xa58>
    4158:	e0813003 	add	r3, r1, r3
    415c:	e5d33001 	ldrb	r3, [r3, #1]
    4160:	e2033003 	and	r3, r3, #3
    4164:	e3530001 	cmp	r3, #1
    4168:	e58d2018 	str	r2, [sp, #24]
    416c:	03877001 	orreq	r7, r7, #1
    4170:	e59fc348 	ldr	r12, [pc, #840]	; 44c0 <__svfscanf_r+0x1020>
    4174:	e5943004 	ldr	r3, [r4, #4]
    4178:	e58dc01c 	str	r12, [sp, #28]
    417c:	e3530000 	cmp	r3, #0
    4180:	e3a0c00a 	mov	r12, #10
    4184:	e58dc024 	str	r12, [sp, #36]	; 0x24
    4188:	e3a08003 	mov	r8, #3
    418c:	cafffdb2 	bgt	385c <__svfscanf_r+0x3bc>
    4190:	e1a0000b 	mov	r0, r11
    4194:	e1a01004 	mov	r1, r4
    4198:	eb001699 	bl	9c04 <__srefill_r>
    419c:	e3500000 	cmp	r0, #0
    41a0:	0afffdad 	beq	385c <__svfscanf_r+0x3bc>
    41a4:	eafffd89 	b	37d0 <__svfscanf_r+0x330>
    41a8:	eb000aa9 	bl	6c54 <__sfp_lock_release>
    41ac:	e3e0c000 	mvn	r12, #0
    41b0:	e58dc020 	str	r12, [sp, #32]
    41b4:	eafffd9b 	b	3828 <__svfscanf_r+0x388>
    41b8:	e58d2018 	str	r2, [sp, #24]
    41bc:	e1a08002 	mov	r8, r2
    41c0:	eafffcee 	b	3580 <__svfscanf_r+0xe0>
    41c4:	e5d83001 	ldrb	r3, [r8, #1]
    41c8:	e3877010 	orr	r7, r7, #16
    41cc:	e1a08002 	mov	r8, r2
    41d0:	eafffcfc 	b	35c8 <__svfscanf_r+0x128>
    41d4:	e0866106 	add	r6, r6, r6, lsl #2
    41d8:	e0833086 	add	r3, r3, r6, lsl #1
    41dc:	e2436030 	sub	r6, r3, #48	; 0x30
    41e0:	e5d83001 	ldrb	r3, [r8, #1]
    41e4:	e1a08002 	mov	r8, r2
    41e8:	eafffcf6 	b	35c8 <__svfscanf_r+0x128>
    41ec:	e58d2018 	str	r2, [sp, #24]
    41f0:	e3877001 	orr	r7, r7, #1
    41f4:	eaffffdd 	b	4170 <__svfscanf_r+0xcd0>
    41f8:	e58d2018 	str	r2, [sp, #24]
    41fc:	e3a08004 	mov	r8, #4
    4200:	eafffd92 	b	3850 <__svfscanf_r+0x3b0>
    4204:	e5d83001 	ldrb	r3, [r8, #1]
    4208:	e3877002 	orr	r7, r7, #2
    420c:	e1a08002 	mov	r8, r2
    4210:	eafffcec 	b	35c8 <__svfscanf_r+0x128>
    4214:	e58d2018 	str	r2, [sp, #24]
    4218:	e3877001 	orr	r7, r7, #1
    421c:	e59fc2a4 	ldr	r12, [pc, #676]	; 44c8 <__svfscanf_r+0x1028>
    4220:	e58dc01c 	str	r12, [sp, #28]
    4224:	e3a0c008 	mov	r12, #8
    4228:	e58dc024 	str	r12, [sp, #36]	; 0x24
    422c:	e3a08003 	mov	r8, #3
    4230:	eafffd86 	b	3850 <__svfscanf_r+0x3b0>
    4234:	e58d2018 	str	r2, [sp, #24]
    4238:	e3877c02 	orr	r7, r7, #512	; 0x200
    423c:	e59fc284 	ldr	r12, [pc, #644]	; 44c8 <__svfscanf_r+0x1028>
    4240:	e58dc01c 	str	r12, [sp, #28]
    4244:	e3a0c010 	mov	r12, #16
    4248:	e58dc024 	str	r12, [sp, #36]	; 0x24
    424c:	e3a08003 	mov	r8, #3
    4250:	eafffd7e 	b	3850 <__svfscanf_r+0x3b0>
    4254:	e28d0058 	add	r0, sp, #88	; 0x58
    4258:	e1a01002 	mov	r1, r2
    425c:	e58d2018 	str	r2, [sp, #24]
    4260:	eb0016fb 	bl	9e54 <__sccl>
    4264:	e3877040 	orr	r7, r7, #64	; 0x40
    4268:	e58d0018 	str	r0, [sp, #24]
    426c:	e3a08001 	mov	r8, #1
    4270:	eafffd76 	b	3850 <__svfscanf_r+0x3b0>
    4274:	e58d2018 	str	r2, [sp, #24]
    4278:	e3877040 	orr	r7, r7, #64	; 0x40
    427c:	e3a08000 	mov	r8, #0
    4280:	eafffd72 	b	3850 <__svfscanf_r+0x3b0>
    4284:	e58d2018 	str	r2, [sp, #24]
    4288:	eaffffb8 	b	4170 <__svfscanf_r+0xcd0>
    428c:	e5d83001 	ldrb	r3, [r8, #1]
    4290:	e3877004 	orr	r7, r7, #4
    4294:	e1a08002 	mov	r8, r2
    4298:	eafffcca 	b	35c8 <__svfscanf_r+0x128>
    429c:	e59fc21c 	ldr	r12, [pc, #540]	; 44c0 <__svfscanf_r+0x1020>
    42a0:	e58dc01c 	str	r12, [sp, #28]
    42a4:	e3a0c000 	mov	r12, #0
    42a8:	e58d2018 	str	r2, [sp, #24]
    42ac:	e58dc024 	str	r12, [sp, #36]	; 0x24
    42b0:	e3a08003 	mov	r8, #3
    42b4:	eafffd65 	b	3850 <__svfscanf_r+0x3b0>
    42b8:	e5d83001 	ldrb	r3, [r8, #1]
    42bc:	e353006c 	cmp	r3, #108	; 0x6c
    42c0:	05d83002 	ldrbeq	r3, [r8, #2]
    42c4:	03877002 	orreq	r7, r7, #2
    42c8:	02888002 	addeq	r8, r8, #2
    42cc:	13877001 	orrne	r7, r7, #1
    42d0:	11a08002 	movne	r8, r2
    42d4:	eafffcbb 	b	35c8 <__svfscanf_r+0x128>
    42d8:	e3170010 	tst	r7, #16
    42dc:	e58d2018 	str	r2, [sp, #24]
    42e0:	1a00002a 	bne	4390 <__svfscanf_r+0xef0>
    42e4:	e3170004 	tst	r7, #4
    42e8:	0a00010e 	beq	4728 <__svfscanf_r+0x1288>
    42ec:	e59dc014 	ldr	r12, [sp, #20]
    42f0:	e59c3000 	ldr	r3, [r12]
    42f4:	e28cc004 	add	r12, r12, #4
    42f8:	e1a08002 	mov	r8, r2
    42fc:	e1c390b0 	strh	r9, [r3]
    4300:	e58dc014 	str	r12, [sp, #20]
    4304:	eafffc99 	b	3570 <__svfscanf_r+0xd0>
    4308:	e58d2018 	str	r2, [sp, #24]
    430c:	eaffffc2 	b	421c <__svfscanf_r+0xd7c>
    4310:	e58d2018 	str	r2, [sp, #24]
    4314:	e3877e22 	orr	r7, r7, #544	; 0x220
    4318:	eaffffc7 	b	423c <__svfscanf_r+0xd9c>
    431c:	e58d2018 	str	r2, [sp, #24]
    4320:	e3a08002 	mov	r8, #2
    4324:	eafffd49 	b	3850 <__svfscanf_r+0x3b0>
    4328:	e28d0050 	add	r0, sp, #80	; 0x50
    432c:	e3a01000 	mov	r1, #0
    4330:	e3a02008 	mov	r2, #8
    4334:	eb001134 	bl	880c <memset>
    4338:	e217a010 	ands	r10, r7, #16
    433c:	059dc014 	ldreq	r12, [sp, #20]
    4340:	059c8000 	ldreq	r8, [r12]
    4344:	028cc004 	addeq	r12, r12, #4
    4348:	058dc014 	streq	r12, [sp, #20]
    434c:	128d8044 	addne	r8, sp, #68	; 0x44
    4350:	e3a07000 	mov	r7, #0
    4354:	e5943000 	ldr	r3, [r4]
    4358:	e5952000 	ldr	r2, [r5]
    435c:	e5d33000 	ldrb	r3, [r3]
    4360:	e0823003 	add	r3, r2, r3
    4364:	e5d33001 	ldrb	r3, [r3, #1]
    4368:	e3130008 	tst	r3, #8
    436c:	1a000001 	bne	4378 <__svfscanf_r+0xed8>
    4370:	e3560000 	cmp	r6, #0
    4374:	1a000125 	bne	4810 <__svfscanf_r+0x1370>
    4378:	e35a0000 	cmp	r10, #0
    437c:	1a000003 	bne	4390 <__svfscanf_r+0xef0>
    4380:	e588a000 	str	r10, [r8]
    4384:	e59dc020 	ldr	r12, [sp, #32]
    4388:	e28cc001 	add	r12, r12, #1
    438c:	e58dc020 	str	r12, [sp, #32]
    4390:	e59d8018 	ldr	r8, [sp, #24]
    4394:	e1a02008 	mov	r2, r8
    4398:	eafffc55 	b	34f4 <__svfscanf_r+0x54>
    439c:	e1a00002 	mov	r0, r2
    43a0:	e1a01004 	mov	r1, r4
    43a4:	e58d2010 	str	r2, [sp, #16]
    43a8:	e58d3008 	str	r3, [sp, #8]
    43ac:	e58dc00c 	str	r12, [sp, #12]
    43b0:	eb001613 	bl	9c04 <__srefill_r>
    43b4:	e28d3008 	add	r3, sp, #8
    43b8:	e3500000 	cmp	r0, #0
    43bc:	e59d2010 	ldr	r2, [sp, #16]
    43c0:	e8931008 	ldm	r3, {r3, r12}
    43c4:	0afffec9 	beq	3ef0 <__svfscanf_r+0xa50>
    43c8:	eafffeca 	b	3ef8 <__svfscanf_r+0xa58>
    43cc:	e1a00003 	mov	r0, r3
    43d0:	e1a01004 	mov	r1, r4
    43d4:	e58d3008 	str	r3, [sp, #8]
    43d8:	e58dc00c 	str	r12, [sp, #12]
    43dc:	eb001608 	bl	9c04 <__srefill_r>
    43e0:	e28d3008 	add	r3, sp, #8
    43e4:	e3500000 	cmp	r0, #0
    43e8:	e8931008 	ldm	r3, {r3, r12}
    43ec:	0afffe74 	beq	3dc4 <__svfscanf_r+0x924>
    43f0:	eafffe75 	b	3dcc <__svfscanf_r+0x92c>
    43f4:	e59dc014 	ldr	r12, [sp, #20]
    43f8:	e59c8000 	ldr	r8, [r12]
    43fc:	e0883006 	add	r3, r8, r6
    4400:	e28ca004 	add	r10, r12, #4
    4404:	e2887001 	add	r7, r8, #1
    4408:	e1a0c008 	mov	r12, r8
    440c:	e5942000 	ldr	r2, [r4]
    4410:	e1a08003 	mov	r8, r3
    4414:	ea000000 	b	441c <__svfscanf_r+0xf7c>
    4418:	e2877001 	add	r7, r7, #1
    441c:	e5d21000 	ldrb	r1, [r2]
    4420:	e28d0fae 	add	r0, sp, #696	; 0x2b8
    4424:	e0801001 	add	r1, r0, r1
    4428:	e5511260 	ldrb	r1, [r1, #-608]	; 0xfffffda0
    442c:	e3510000 	cmp	r1, #0
    4430:	e2476001 	sub	r6, r7, #1
    4434:	0a000014 	beq	448c <__svfscanf_r+0xfec>
    4438:	e5941004 	ldr	r1, [r4, #4]
    443c:	e2411001 	sub	r1, r1, #1
    4440:	e5841004 	str	r1, [r4, #4]
    4444:	e4d21001 	ldrb	r1, [r2], #1
    4448:	e1570008 	cmp	r7, r8
    444c:	e5471001 	strb	r1, [r7, #-1]
    4450:	e1a06007 	mov	r6, r7
    4454:	e5842000 	str	r2, [r4]
    4458:	0a00000b 	beq	448c <__svfscanf_r+0xfec>
    445c:	e5941004 	ldr	r1, [r4, #4]
    4460:	e3510000 	cmp	r1, #0
    4464:	caffffeb 	bgt	4418 <__svfscanf_r+0xf78>
    4468:	e1a0000b 	mov	r0, r11
    446c:	e1a01004 	mov	r1, r4
    4470:	e58dc00c 	str	r12, [sp, #12]
    4474:	eb0015e2 	bl	9c04 <__srefill_r>
    4478:	e3500000 	cmp	r0, #0
    447c:	e59dc00c 	ldr	r12, [sp, #12]
    4480:	1a00010a 	bne	48b0 <__svfscanf_r+0x1410>
    4484:	e5942000 	ldr	r2, [r4]
    4488:	eaffffe2 	b	4418 <__svfscanf_r+0xf78>
    448c:	e1a0800c 	mov	r8, r12
    4490:	e0567008 	subs	r7, r6, r8
    4494:	0afffce2 	beq	3824 <__svfscanf_r+0x384>
    4498:	e59dc020 	ldr	r12, [sp, #32]
    449c:	e3a03000 	mov	r3, #0
    44a0:	e28cc001 	add	r12, r12, #1
    44a4:	e5c63000 	strb	r3, [r6]
    44a8:	e58dc020 	str	r12, [sp, #32]
    44ac:	e58da014 	str	r10, [sp, #20]
    44b0:	eafffdad 	b	3b6c <__svfscanf_r+0x6cc>
    44b4:	000140a8 	.word	0x000140a8
    44b8:	0000015d 	.word	0x0000015d
    44bc:	000138e8 	.word	0x000138e8
    44c0:	0000ba28 	.word	0x0000ba28
    44c4:	0001390c 	.word	0x0001390c
    44c8:	0000be9c 	.word	0x0000be9c
    44cc:	e5951000 	ldr	r1, [r5]
    44d0:	e5943000 	ldr	r3, [r4]
    44d4:	e1a07002 	mov	r7, r2
    44d8:	e5d32000 	ldrb	r2, [r3]
    44dc:	e0812002 	add	r2, r1, r2
    44e0:	e5d22001 	ldrb	r2, [r2, #1]
    44e4:	e3120008 	tst	r2, #8
    44e8:	e2833001 	add	r3, r3, #1
    44ec:	1afffd9e 	bne	3b6c <__svfscanf_r+0x6cc>
    44f0:	e5942004 	ldr	r2, [r4, #4]
    44f4:	e2877001 	add	r7, r7, #1
    44f8:	e2422001 	sub	r2, r2, #1
    44fc:	e1560007 	cmp	r6, r7
    4500:	e5843000 	str	r3, [r4]
    4504:	e5842004 	str	r2, [r4, #4]
    4508:	0afffd97 	beq	3b6c <__svfscanf_r+0x6cc>
    450c:	e3520000 	cmp	r2, #0
    4510:	cafffff0 	bgt	44d8 <__svfscanf_r+0x1038>
    4514:	e1a0000b 	mov	r0, r11
    4518:	e1a01004 	mov	r1, r4
    451c:	eb0015b8 	bl	9c04 <__srefill_r>
    4520:	e3500000 	cmp	r0, #0
    4524:	1afffd90 	bne	3b6c <__svfscanf_r+0x6cc>
    4528:	e5951000 	ldr	r1, [r5]
    452c:	e5943000 	ldr	r3, [r4]
    4530:	eaffffe8 	b	44d8 <__svfscanf_r+0x1038>
    4534:	e1a02008 	mov	r2, r8
    4538:	e1a08003 	mov	r8, r3
    453c:	e1a03002 	mov	r3, r2
    4540:	e3a02000 	mov	r2, #0
    4544:	e06aa008 	rsb	r10, r10, r8
    4548:	e5c82000 	strb	r2, [r8]
    454c:	e089900a 	add	r9, r9, r10
    4550:	e59dc020 	ldr	r12, [sp, #32]
    4554:	e59d8018 	ldr	r8, [sp, #24]
    4558:	e28cc001 	add	r12, r12, #1
    455c:	e58dc020 	str	r12, [sp, #32]
    4560:	e58d3014 	str	r3, [sp, #20]
    4564:	e1a02008 	mov	r2, r8
    4568:	eafffbe1 	b	34f4 <__svfscanf_r+0x54>
    456c:	e35c0002 	cmp	r12, #2
    4570:	1afffee5 	bne	410c <__svfscanf_r+0xc6c>
    4574:	e3a0c003 	mov	r12, #3
    4578:	eafffe52 	b	3ec8 <__svfscanf_r+0xa28>
    457c:	e28d0048 	add	r0, sp, #72	; 0x48
    4580:	e3a01000 	mov	r1, #0
    4584:	e3a02008 	mov	r2, #8
    4588:	eb00109f 	bl	880c <memset>
    458c:	e217a010 	ands	r10, r7, #16
    4590:	059dc014 	ldreq	r12, [sp, #20]
    4594:	059c8000 	ldreq	r8, [r12]
    4598:	028cc004 	addeq	r12, r12, #4
    459c:	058dc014 	streq	r12, [sp, #20]
    45a0:	13a08000 	movne	r8, #0
    45a4:	e3a07000 	mov	r7, #0
    45a8:	ea00000c 	b	45e0 <__svfscanf_r+0x1140>
    45ac:	e35a0000 	cmp	r10, #0
    45b0:	0588a000 	streq	r10, [r8]
    45b4:	e5943004 	ldr	r3, [r4, #4]
    45b8:	e35a0000 	cmp	r10, #0
    45bc:	e0899007 	add	r9, r9, r7
    45c0:	02888004 	addeq	r8, r8, #4
    45c4:	01a0700a 	moveq	r7, r10
    45c8:	13a07000 	movne	r7, #0
    45cc:	e3530000 	cmp	r3, #0
    45d0:	e2466001 	sub	r6, r6, #1
    45d4:	da00001e 	ble	4654 <__svfscanf_r+0x11b4>
    45d8:	e3560000 	cmp	r6, #0
    45dc:	0a000023 	beq	4670 <__svfscanf_r+0x11d0>
    45e0:	eb000cc7 	bl	7904 <__locale_mb_cur_max>
    45e4:	e1500007 	cmp	r0, r7
    45e8:	0afffc78 	beq	37d0 <__svfscanf_r+0x330>
    45ec:	e5943000 	ldr	r3, [r4]
    45f0:	e5942004 	ldr	r2, [r4, #4]
    45f4:	e4d3e001 	ldrb	lr, [r3], #1
    45f8:	e28d0fae 	add	r0, sp, #696	; 0x2b8
    45fc:	e080c007 	add	r12, r0, r7
    4600:	e2422001 	sub	r2, r2, #1
    4604:	e28d1048 	add	r1, sp, #72	; 0x48
    4608:	e2877001 	add	r7, r7, #1
    460c:	e5842004 	str	r2, [r4, #4]
    4610:	e5843000 	str	r3, [r4]
    4614:	e1a0000b 	mov	r0, r11
    4618:	e58d1000 	str	r1, [sp]
    461c:	e28d2f56 	add	r2, sp, #344	; 0x158
    4620:	e1a01008 	mov	r1, r8
    4624:	e1a03007 	mov	r3, r7
    4628:	e54ce160 	strb	lr, [r12, #-352]	; 0xfffffea0
    462c:	eb000ee8 	bl	81d4 <_mbrtowc_r>
    4630:	e3700001 	cmn	r0, #1
    4634:	0afffc65 	beq	37d0 <__svfscanf_r+0x330>
    4638:	e3500000 	cmp	r0, #0
    463c:	0affffda 	beq	45ac <__svfscanf_r+0x110c>
    4640:	e3700002 	cmn	r0, #2
    4644:	1affffda 	bne	45b4 <__svfscanf_r+0x1114>
    4648:	e5943004 	ldr	r3, [r4, #4]
    464c:	e3530000 	cmp	r3, #0
    4650:	caffffe0 	bgt	45d8 <__svfscanf_r+0x1138>
    4654:	e1a0000b 	mov	r0, r11
    4658:	e1a01004 	mov	r1, r4
    465c:	eb001568 	bl	9c04 <__srefill_r>
    4660:	e3500000 	cmp	r0, #0
    4664:	0affffdb 	beq	45d8 <__svfscanf_r+0x1138>
    4668:	e3570000 	cmp	r7, #0
    466c:	1afffc57 	bne	37d0 <__svfscanf_r+0x330>
    4670:	e35a0000 	cmp	r10, #0
    4674:	0affff42 	beq	4384 <__svfscanf_r+0xee4>
    4678:	eaffff44 	b	4390 <__svfscanf_r+0xef0>
    467c:	e1a0200c 	mov	r2, r12
    4680:	e5c8c000 	strb	r12, [r8]
    4684:	e1a0000b 	mov	r0, r11
    4688:	e59d102c 	ldr	r1, [sp, #44]	; 0x2c
    468c:	e59d3024 	ldr	r3, [sp, #36]	; 0x24
    4690:	e59dc01c 	ldr	r12, [sp, #28]
    4694:	e1a0e00f 	mov	lr, pc
    4698:	e12fff1c 	bx	r12
    469c:	e3170020 	tst	r7, #32
    46a0:	1a00000a 	bne	46d0 <__svfscanf_r+0x1230>
    46a4:	e3170004 	tst	r7, #4
    46a8:	0a000084 	beq	48c0 <__svfscanf_r+0x1420>
    46ac:	e59dc014 	ldr	r12, [sp, #20]
    46b0:	e59c3000 	ldr	r3, [r12]
    46b4:	e28cc004 	add	r12, r12, #4
    46b8:	e58dc014 	str	r12, [sp, #20]
    46bc:	e1c300b0 	strh	r0, [r3]
    46c0:	e59dc020 	ldr	r12, [sp, #32]
    46c4:	e28cc001 	add	r12, r12, #1
    46c8:	e58dc020 	str	r12, [sp, #32]
    46cc:	eafffdd1 	b	3e18 <__svfscanf_r+0x978>
    46d0:	e59dc014 	ldr	r12, [sp, #20]
    46d4:	e59c3000 	ldr	r3, [r12]
    46d8:	e28cc004 	add	r12, r12, #4
    46dc:	e58dc014 	str	r12, [sp, #20]
    46e0:	e5830000 	str	r0, [r3]
    46e4:	eafffff5 	b	46c0 <__svfscanf_r+0x1220>
    46e8:	e3570000 	cmp	r7, #0
    46ec:	1afffd1e 	bne	3b6c <__svfscanf_r+0x6cc>
    46f0:	eafffc4b 	b	3824 <__svfscanf_r+0x384>
    46f4:	e59dc014 	ldr	r12, [sp, #20]
    46f8:	e1a03006 	mov	r3, r6
    46fc:	e59c1000 	ldr	r1, [r12]
    4700:	e1a0000b 	mov	r0, r11
    4704:	e58d4000 	str	r4, [sp]
    4708:	e3a02001 	mov	r2, #1
    470c:	eb000976 	bl	6cec <_fread_r>
    4710:	e59dc014 	ldr	r12, [sp, #20]
    4714:	e3500000 	cmp	r0, #0
    4718:	e28c3004 	add	r3, r12, #4
    471c:	0afffc2b 	beq	37d0 <__svfscanf_r+0x330>
    4720:	e0809009 	add	r9, r0, r9
    4724:	eaffff89 	b	4550 <__svfscanf_r+0x10b0>
    4728:	e3170001 	tst	r7, #1
    472c:	1a00000a 	bne	475c <__svfscanf_r+0x12bc>
    4730:	e3170002 	tst	r7, #2
    4734:	0a000008 	beq	475c <__svfscanf_r+0x12bc>
    4738:	e59dc014 	ldr	r12, [sp, #20]
    473c:	e59c3000 	ldr	r3, [r12]
    4740:	e1a01fc9 	asr	r1, r9, #31
    4744:	e28cc004 	add	r12, r12, #4
    4748:	e5839000 	str	r9, [r3]
    474c:	e5831004 	str	r1, [r3, #4]
    4750:	e58dc014 	str	r12, [sp, #20]
    4754:	e59d8018 	ldr	r8, [sp, #24]
    4758:	eafffb84 	b	3570 <__svfscanf_r+0xd0>
    475c:	e59dc014 	ldr	r12, [sp, #20]
    4760:	e59c3000 	ldr	r3, [r12]
    4764:	e28cc004 	add	r12, r12, #4
    4768:	e59d8018 	ldr	r8, [sp, #24]
    476c:	e5839000 	str	r9, [r3]
    4770:	e58dc014 	str	r12, [sp, #20]
    4774:	eafffb7d 	b	3570 <__svfscanf_r+0xd0>
    4778:	e1a0000b 	mov	r0, r11
    477c:	e1a02004 	mov	r2, r4
    4780:	eb0026fc 	bl	e378 <_ungetc_r>
    4784:	e2499001 	sub	r9, r9, #1
    4788:	e55a1002 	ldrb	r1, [r10, #-2]
    478c:	e24aa002 	sub	r10, r10, #2
    4790:	eafffe02 	b	3fa0 <__svfscanf_r+0xb00>
    4794:	e0663003 	rsb	r3, r6, r3
    4798:	e0822006 	add	r2, r2, r6
    479c:	e884000c 	stm	r4, {r2, r3}
    47a0:	e0877006 	add	r7, r7, r6
    47a4:	eafffcf0 	b	3b6c <__svfscanf_r+0x6cc>
    47a8:	e59dc030 	ldr	r12, [sp, #48]	; 0x30
    47ac:	e1a0000b 	mov	r0, r11
    47b0:	e28c1001 	add	r1, r12, #1
    47b4:	e3a0300a 	mov	r3, #10
    47b8:	eb001c9a 	bl	ba28 <_strtol_r>
    47bc:	e59dc038 	ldr	r12, [sp, #56]	; 0x38
    47c0:	e06c2000 	rsb	r2, r12, r0
    47c4:	e59dc030 	ldr	r12, [sp, #48]	; 0x30
    47c8:	e28d3faa 	add	r3, sp, #680	; 0x2a8
    47cc:	e2833003 	add	r3, r3, #3
    47d0:	e15c0003 	cmp	r12, r3
    47d4:	228dcfaa 	addcs	r12, sp, #680	; 0x2a8
    47d8:	228cc002 	addcs	r12, r12, #2
    47dc:	258dc030 	strcs	r12, [sp, #48]	; 0x30
    47e0:	e51f1324 	ldr	r1, [pc, #-804]	; 44c4 <__svfscanf_r+0x1024>
    47e4:	e59d0030 	ldr	r0, [sp, #48]	; 0x30
    47e8:	eb0015e9 	bl	9f94 <sprintf>
    47ec:	eafffdf7 	b	3fd0 <__svfscanf_r+0xb30>
    47f0:	e59d3028 	ldr	r3, [sp, #40]	; 0x28
    47f4:	e59dc034 	ldr	r12, [sp, #52]	; 0x34
    47f8:	e06c2003 	rsb	r2, r12, r3
    47fc:	e3520000 	cmp	r2, #0
    4800:	158da030 	strne	r10, [sp, #48]	; 0x30
    4804:	e2622000 	rsb	r2, r2, #0
    4808:	1affffed 	bne	47c4 <__svfscanf_r+0x1324>
    480c:	eafffdef 	b	3fd0 <__svfscanf_r+0xb30>
    4810:	eb000c3b 	bl	7904 <__locale_mb_cur_max>
    4814:	e1500007 	cmp	r0, r7
    4818:	0afffbec 	beq	37d0 <__svfscanf_r+0x330>
    481c:	e5943000 	ldr	r3, [r4]
    4820:	e5942004 	ldr	r2, [r4, #4]
    4824:	e4d3e001 	ldrb	lr, [r3], #1
    4828:	e28d0fae 	add	r0, sp, #696	; 0x2b8
    482c:	e080c007 	add	r12, r0, r7
    4830:	e2422001 	sub	r2, r2, #1
    4834:	e28d1050 	add	r1, sp, #80	; 0x50
    4838:	e2877001 	add	r7, r7, #1
    483c:	e5842004 	str	r2, [r4, #4]
    4840:	e5843000 	str	r3, [r4]
    4844:	e1a0000b 	mov	r0, r11
    4848:	e58d1000 	str	r1, [sp]
    484c:	e28d2f56 	add	r2, sp, #344	; 0x158
    4850:	e1a01008 	mov	r1, r8
    4854:	e1a03007 	mov	r3, r7
    4858:	e54ce160 	strb	lr, [r12, #-352]	; 0xfffffea0
    485c:	eb000e5c 	bl	81d4 <_mbrtowc_r>
    4860:	e3700001 	cmn	r0, #1
    4864:	0afffbd9 	beq	37d0 <__svfscanf_r+0x330>
    4868:	e3500000 	cmp	r0, #0
    486c:	05880000 	streq	r0, [r8]
    4870:	1a000034 	bne	4948 <__svfscanf_r+0x14a8>
    4874:	eb000bfb 	bl	7868 <iswspace>
    4878:	e3500000 	cmp	r0, #0
    487c:	0a000035 	beq	4958 <__svfscanf_r+0x14b8>
    4880:	e3570000 	cmp	r7, #0
    4884:	0afffebb 	beq	4378 <__svfscanf_r+0xed8>
    4888:	e28d2f56 	add	r2, sp, #344	; 0x158
    488c:	e0826007 	add	r6, r2, r7
    4890:	e2477001 	sub	r7, r7, #1
    4894:	e1a0000b 	mov	r0, r11
    4898:	e5761001 	ldrb	r1, [r6, #-1]!
    489c:	e1a02004 	mov	r2, r4
    48a0:	eb0026b4 	bl	e378 <_ungetc_r>
    48a4:	e3570000 	cmp	r7, #0
    48a8:	1afffff8 	bne	4890 <__svfscanf_r+0x13f0>
    48ac:	eafffeb1 	b	4378 <__svfscanf_r+0xed8>
    48b0:	e15c0007 	cmp	r12, r7
    48b4:	e1a0800c 	mov	r8, r12
    48b8:	1afffef4 	bne	4490 <__svfscanf_r+0xff0>
    48bc:	eafffbc3 	b	37d0 <__svfscanf_r+0x330>
    48c0:	e2172001 	ands	r2, r7, #1
    48c4:	1affff81 	bne	46d0 <__svfscanf_r+0x1230>
    48c8:	e3170002 	tst	r7, #2
    48cc:	0a00004f 	beq	4a10 <__svfscanf_r+0x1570>
    48d0:	e51f0410 	ldr	r0, [pc, #-1040]	; 44c8 <__svfscanf_r+0x1028>
    48d4:	e59dc01c 	ldr	r12, [sp, #28]
    48d8:	e15c0000 	cmp	r12, r0
    48dc:	e59d102c 	ldr	r1, [sp, #44]	; 0x2c
    48e0:	e1a0000b 	mov	r0, r11
    48e4:	e59d3024 	ldr	r3, [sp, #36]	; 0x24
    48e8:	0a000046 	beq	4a08 <__svfscanf_r+0x1568>
    48ec:	eb001ccb 	bl	bc20 <_strtoll_r>
    48f0:	e59dc014 	ldr	r12, [sp, #20]
    48f4:	e59c3000 	ldr	r3, [r12]
    48f8:	e28cc004 	add	r12, r12, #4
    48fc:	e58dc014 	str	r12, [sp, #20]
    4900:	e8830003 	stm	r3, {r0, r1}
    4904:	eaffff6d 	b	46c0 <__svfscanf_r+0x1220>
    4908:	e59c6000 	ldr	r6, [r12]
    490c:	e58d0010 	str	r0, [sp, #16]
    4910:	e58d1008 	str	r1, [sp, #8]
    4914:	eb001523 	bl	9da8 <__fpclassifyd>
    4918:	e59dc014 	ldr	r12, [sp, #20]
    491c:	e3500000 	cmp	r0, #0
    4920:	e28c7004 	add	r7, r12, #4
    4924:	e59d2010 	ldr	r2, [sp, #16]
    4928:	e59d3008 	ldr	r3, [sp, #8]
    492c:	0a00003d 	beq	4a28 <__svfscanf_r+0x1588>
    4930:	e1a00002 	mov	r0, r2
    4934:	e1a01003 	mov	r1, r3
    4938:	eb0036b4 	bl	12410 <__aeabi_d2f>
    493c:	e58d7014 	str	r7, [sp, #20]
    4940:	e5860000 	str	r0, [r6]
    4944:	eafffdb0 	b	400c <__svfscanf_r+0xb6c>
    4948:	e3700002 	cmn	r0, #2
    494c:	0a000007 	beq	4970 <__svfscanf_r+0x14d0>
    4950:	e5980000 	ldr	r0, [r8]
    4954:	eaffffc6 	b	4874 <__svfscanf_r+0x13d4>
    4958:	e35a0000 	cmp	r10, #0
    495c:	e0899007 	add	r9, r9, r7
    4960:	e2466001 	sub	r6, r6, #1
    4964:	02888004 	addeq	r8, r8, #4
    4968:	01a0700a 	moveq	r7, r10
    496c:	11a07000 	movne	r7, r0
    4970:	e5943004 	ldr	r3, [r4, #4]
    4974:	e3530000 	cmp	r3, #0
    4978:	cafffe75 	bgt	4354 <__svfscanf_r+0xeb4>
    497c:	e1a0000b 	mov	r0, r11
    4980:	e1a01004 	mov	r1, r4
    4984:	eb00149e 	bl	9c04 <__srefill_r>
    4988:	e3500000 	cmp	r0, #0
    498c:	0afffe70 	beq	4354 <__svfscanf_r+0xeb4>
    4990:	e3570000 	cmp	r7, #0
    4994:	1afffb8d 	bne	37d0 <__svfscanf_r+0x330>
    4998:	eafffe76 	b	4378 <__svfscanf_r+0xed8>
    499c:	e59dc02c 	ldr	r12, [sp, #44]	; 0x2c
    49a0:	e15a000c 	cmp	r10, r12
    49a4:	9afffb9e 	bls	3824 <__svfscanf_r+0x384>
    49a8:	e1a0500a 	mov	r5, r10
    49ac:	e5751001 	ldrb	r1, [r5, #-1]!
    49b0:	e1a0000b 	mov	r0, r11
    49b4:	e1a02004 	mov	r2, r4
    49b8:	eb00266e 	bl	e378 <_ungetc_r>
    49bc:	e59dc02c 	ldr	r12, [sp, #44]	; 0x2c
    49c0:	e155000c 	cmp	r5, r12
    49c4:	1afffff8 	bne	49ac <__svfscanf_r+0x150c>
    49c8:	eafffb95 	b	3824 <__svfscanf_r+0x384>
    49cc:	e58db028 	str	r11, [sp, #40]	; 0x28
    49d0:	e1a0b002 	mov	r11, r2
    49d4:	eafffd4c 	b	3f0c <__svfscanf_r+0xa6c>
    49d8:	e59dc02c 	ldr	r12, [sp, #44]	; 0x2c
    49dc:	e15a000c 	cmp	r10, r12
    49e0:	81a0500a 	movhi	r5, r10
    49e4:	9afffb8e 	bls	3824 <__svfscanf_r+0x384>
    49e8:	e5751001 	ldrb	r1, [r5, #-1]!
    49ec:	e1a0000b 	mov	r0, r11
    49f0:	e1a02004 	mov	r2, r4
    49f4:	eb00265f 	bl	e378 <_ungetc_r>
    49f8:	e59dc02c 	ldr	r12, [sp, #44]	; 0x2c
    49fc:	e155000c 	cmp	r5, r12
    4a00:	1afffff8 	bne	49e8 <__svfscanf_r+0x1548>
    4a04:	eafffb86 	b	3824 <__svfscanf_r+0x384>
    4a08:	eb001da6 	bl	c0a8 <_strtoull_r>
    4a0c:	eaffffb7 	b	48f0 <__svfscanf_r+0x1450>
    4a10:	e59dc014 	ldr	r12, [sp, #20]
    4a14:	e59c3000 	ldr	r3, [r12]
    4a18:	e28cc004 	add	r12, r12, #4
    4a1c:	e5830000 	str	r0, [r3]
    4a20:	e58dc014 	str	r12, [sp, #20]
    4a24:	eaffff25 	b	46c0 <__svfscanf_r+0x1220>
    4a28:	eb00153c 	bl	9f20 <nanf>
    4a2c:	e58d7014 	str	r7, [sp, #20]
    4a30:	e5860000 	str	r0, [r6]
    4a34:	eafffd74 	b	400c <__svfscanf_r+0xb6c>

00004a38 <_vfscanf_r>:
    4a38:	e92d4010 	push	{r4, lr}
    4a3c:	e2504000 	subs	r4, r0, #0
    4a40:	e24dd010 	sub	sp, sp, #16
    4a44:	0a000009 	beq	4a70 <_vfscanf_r+0x38>
    4a48:	e594c038 	ldr	r12, [r4, #56]	; 0x38
    4a4c:	e35c0000 	cmp	r12, #0
    4a50:	1a000006 	bne	4a70 <_vfscanf_r+0x38>
    4a54:	e58d100c 	str	r1, [sp, #12]
    4a58:	e58d2008 	str	r2, [sp, #8]
    4a5c:	e58d3004 	str	r3, [sp, #4]
    4a60:	eb00081e 	bl	6ae0 <__sinit>
    4a64:	e59d3004 	ldr	r3, [sp, #4]
    4a68:	e59d2008 	ldr	r2, [sp, #8]
    4a6c:	e59d100c 	ldr	r1, [sp, #12]
    4a70:	e1a00004 	mov	r0, r4
    4a74:	e28dd010 	add	sp, sp, #16
    4a78:	e8bd4010 	pop	{r4, lr}
    4a7c:	eafffa87 	b	34a0 <__svfscanf_r>

00004a80 <__svfscanf>:
    4a80:	e52d4004 	push	{r4}		; (str r4, [sp, #-4]!)
    4a84:	e1a03002 	mov	r3, r2
    4a88:	e59f2018 	ldr	r2, [pc, #24]	; 4aa8 <__svfscanf+0x28>
    4a8c:	e1a04000 	mov	r4, r0
    4a90:	e1a0c001 	mov	r12, r1
    4a94:	e5920000 	ldr	r0, [r2]
    4a98:	e1a01004 	mov	r1, r4
    4a9c:	e1a0200c 	mov	r2, r12
    4aa0:	e8bd0010 	ldmfd	sp!, {r4}
    4aa4:	eafffa7d 	b	34a0 <__svfscanf_r>
    4aa8:	00013c78 	.word	0x00013c78

00004aac <vfscanf>:
    4aac:	e92d41f0 	push	{r4, r5, r6, r7, r8, lr}
    4ab0:	e59f4044 	ldr	r4, [pc, #68]	; 4afc <vfscanf+0x50>
    4ab4:	e594c000 	ldr	r12, [r4]
    4ab8:	e35c0000 	cmp	r12, #0
    4abc:	e1a07000 	mov	r7, r0
    4ac0:	e1a06001 	mov	r6, r1
    4ac4:	e1a05002 	mov	r5, r2
    4ac8:	0a000005 	beq	4ae4 <vfscanf+0x38>
    4acc:	e59c3038 	ldr	r3, [r12, #56]	; 0x38
    4ad0:	e3530000 	cmp	r3, #0
    4ad4:	1a000002 	bne	4ae4 <vfscanf+0x38>
    4ad8:	e1a0000c 	mov	r0, r12
    4adc:	eb0007ff 	bl	6ae0 <__sinit>
    4ae0:	e594c000 	ldr	r12, [r4]
    4ae4:	e1a0000c 	mov	r0, r12
    4ae8:	e1a01007 	mov	r1, r7
    4aec:	e1a02006 	mov	r2, r6
    4af0:	e1a03005 	mov	r3, r5
    4af4:	e8bd41f0 	pop	{r4, r5, r6, r7, r8, lr}
    4af8:	eafffa68 	b	34a0 <__svfscanf_r>
    4afc:	00013c78 	.word	0x00013c78

00004b00 <__swsetup_r>:
    4b00:	e92d4038 	push	{r3, r4, r5, lr}
    4b04:	e59f3128 	ldr	r3, [pc, #296]	; 4c34 <__swsetup_r+0x134>
    4b08:	e5933000 	ldr	r3, [r3]
    4b0c:	e3530000 	cmp	r3, #0
    4b10:	e1a05000 	mov	r5, r0
    4b14:	e1a04001 	mov	r4, r1
    4b18:	0a000002 	beq	4b28 <__swsetup_r+0x28>
    4b1c:	e5932038 	ldr	r2, [r3, #56]	; 0x38
    4b20:	e3520000 	cmp	r2, #0
    4b24:	0a00002e 	beq	4be4 <__swsetup_r+0xe4>
    4b28:	e1d430bc 	ldrh	r3, [r4, #12]
    4b2c:	e3130008 	tst	r3, #8
    4b30:	e1a02003 	mov	r2, r3
    4b34:	0a00000c 	beq	4b6c <__swsetup_r+0x6c>
    4b38:	e5942010 	ldr	r2, [r4, #16]
    4b3c:	e3520000 	cmp	r2, #0
    4b40:	0a000012 	beq	4b90 <__swsetup_r+0x90>
    4b44:	e2131001 	ands	r1, r3, #1
    4b48:	1a000019 	bne	4bb4 <__swsetup_r+0xb4>
    4b4c:	e3130002 	tst	r3, #2
    4b50:	05941014 	ldreq	r1, [r4, #20]
    4b54:	e3520000 	cmp	r2, #0
    4b58:	e5841008 	str	r1, [r4, #8]
    4b5c:	0a00001b 	beq	4bd0 <__swsetup_r+0xd0>
    4b60:	e3a00000 	mov	r0, #0
    4b64:	e8bd4038 	pop	{r3, r4, r5, lr}
    4b68:	e12fff1e 	bx	lr
    4b6c:	e3130010 	tst	r3, #16
    4b70:	0a000019 	beq	4bdc <__swsetup_r+0xdc>
    4b74:	e3120004 	tst	r2, #4
    4b78:	1a00001c 	bne	4bf0 <__swsetup_r+0xf0>
    4b7c:	e5942010 	ldr	r2, [r4, #16]
    4b80:	e3833008 	orr	r3, r3, #8
    4b84:	e3520000 	cmp	r2, #0
    4b88:	e1c430bc 	strh	r3, [r4, #12]
    4b8c:	1affffec 	bne	4b44 <__swsetup_r+0x44>
    4b90:	e2031d0a 	and	r1, r3, #640	; 0x280
    4b94:	e3510c02 	cmp	r1, #512	; 0x200
    4b98:	0affffe9 	beq	4b44 <__swsetup_r+0x44>
    4b9c:	e1a00005 	mov	r0, r5
    4ba0:	e1a01004 	mov	r1, r4
    4ba4:	eb000b6c 	bl	795c <__smakebuf_r>
    4ba8:	e1d430bc 	ldrh	r3, [r4, #12]
    4bac:	e5942010 	ldr	r2, [r4, #16]
    4bb0:	eaffffe3 	b	4b44 <__swsetup_r+0x44>
    4bb4:	e5943014 	ldr	r3, [r4, #20]
    4bb8:	e3a01000 	mov	r1, #0
    4bbc:	e2633000 	rsb	r3, r3, #0
    4bc0:	e3520000 	cmp	r2, #0
    4bc4:	e5841008 	str	r1, [r4, #8]
    4bc8:	e5843018 	str	r3, [r4, #24]
    4bcc:	1affffe3 	bne	4b60 <__swsetup_r+0x60>
    4bd0:	e1d430bc 	ldrh	r3, [r4, #12]
    4bd4:	e3130080 	tst	r3, #128	; 0x80
    4bd8:	0affffe0 	beq	4b60 <__swsetup_r+0x60>
    4bdc:	e3e00000 	mvn	r0, #0
    4be0:	eaffffdf 	b	4b64 <__swsetup_r+0x64>
    4be4:	e1a00003 	mov	r0, r3
    4be8:	eb0007bc 	bl	6ae0 <__sinit>
    4bec:	eaffffcd 	b	4b28 <__swsetup_r+0x28>
    4bf0:	e5941030 	ldr	r1, [r4, #48]	; 0x30
    4bf4:	e3510000 	cmp	r1, #0
    4bf8:	0a000007 	beq	4c1c <__swsetup_r+0x11c>
    4bfc:	e2842040 	add	r2, r4, #64	; 0x40
    4c00:	e1510002 	cmp	r1, r2
    4c04:	0a000002 	beq	4c14 <__swsetup_r+0x114>
    4c08:	e1a00005 	mov	r0, r5
    4c0c:	eb000904 	bl	7024 <_free_r>
    4c10:	e1d430bc 	ldrh	r3, [r4, #12]
    4c14:	e3a02000 	mov	r2, #0
    4c18:	e5842030 	str	r2, [r4, #48]	; 0x30
    4c1c:	e5942010 	ldr	r2, [r4, #16]
    4c20:	e3a01000 	mov	r1, #0
    4c24:	e3c33024 	bic	r3, r3, #36	; 0x24
    4c28:	e5841004 	str	r1, [r4, #4]
    4c2c:	e5842000 	str	r2, [r4]
    4c30:	eaffffd2 	b	4b80 <__swsetup_r+0x80>
    4c34:	00013c78 	.word	0x00013c78

00004c38 <__register_exitproc>:
    4c38:	e59fc0e4 	ldr	r12, [pc, #228]	; 4d24 <__register_exitproc+0xec>
    4c3c:	e92d41f0 	push	{r4, r5, r6, r7, r8, lr}
    4c40:	e59c4000 	ldr	r4, [r12]
    4c44:	e594c148 	ldr	r12, [r4, #328]	; 0x148
    4c48:	e35c0000 	cmp	r12, #0
    4c4c:	0284cf53 	addeq	r12, r4, #332	; 0x14c
    4c50:	e59c5004 	ldr	r5, [r12, #4]
    4c54:	0584c148 	streq	r12, [r4, #328]	; 0x148
    4c58:	e355001f 	cmp	r5, #31
    4c5c:	e24dd010 	sub	sp, sp, #16
    4c60:	e1a06000 	mov	r6, r0
    4c64:	da000015 	ble	4cc0 <__register_exitproc+0x88>
    4c68:	e59f00b8 	ldr	r0, [pc, #184]	; 4d28 <__register_exitproc+0xf0>
    4c6c:	e3500000 	cmp	r0, #0
    4c70:	1a000001 	bne	4c7c <__register_exitproc+0x44>
    4c74:	e3e00000 	mvn	r0, #0
    4c78:	ea000018 	b	4ce0 <__register_exitproc+0xa8>
    4c7c:	e3a00e19 	mov	r0, #400	; 0x190
    4c80:	e58d100c 	str	r1, [sp, #12]
    4c84:	e58d2008 	str	r2, [sp, #8]
    4c88:	e58d3004 	str	r3, [sp, #4]
    4c8c:	e320f000 	nop	{0}
    4c90:	e250c000 	subs	r12, r0, #0
    4c94:	e59d100c 	ldr	r1, [sp, #12]
    4c98:	e59d2008 	ldr	r2, [sp, #8]
    4c9c:	e59d3004 	ldr	r3, [sp, #4]
    4ca0:	0afffff3 	beq	4c74 <__register_exitproc+0x3c>
    4ca4:	e5945148 	ldr	r5, [r4, #328]	; 0x148
    4ca8:	e3a00000 	mov	r0, #0
    4cac:	e58c0004 	str	r0, [r12, #4]
    4cb0:	e58c5000 	str	r5, [r12]
    4cb4:	e584c148 	str	r12, [r4, #328]	; 0x148
    4cb8:	e58c0188 	str	r0, [r12, #392]	; 0x188
    4cbc:	e58c018c 	str	r0, [r12, #396]	; 0x18c
    4cc0:	e3560000 	cmp	r6, #0
    4cc4:	e59c4004 	ldr	r4, [r12, #4]
    4cc8:	1a000007 	bne	4cec <__register_exitproc+0xb4>
    4ccc:	e2843002 	add	r3, r4, #2
    4cd0:	e2844001 	add	r4, r4, #1
    4cd4:	e78c1103 	str	r1, [r12, r3, lsl #2]
    4cd8:	e58c4004 	str	r4, [r12, #4]
    4cdc:	e3a00000 	mov	r0, #0
    4ce0:	e28dd010 	add	sp, sp, #16
    4ce4:	e8bd41f0 	pop	{r4, r5, r6, r7, r8, lr}
    4ce8:	e12fff1e 	bx	lr
    4cec:	e3a00001 	mov	r0, #1
    4cf0:	e1a00410 	lsl	r0, r0, r4
    4cf4:	e08c8104 	add	r8, r12, r4, lsl #2
    4cf8:	e3560002 	cmp	r6, #2
    4cfc:	e59c7188 	ldr	r7, [r12, #392]	; 0x188
    4d00:	e5883108 	str	r3, [r8, #264]	; 0x108
    4d04:	059c318c 	ldreq	r3, [r12, #396]	; 0x18c
    4d08:	e1877000 	orr	r7, r7, r0
    4d0c:	01830000 	orreq	r0, r3, r0
    4d10:	e1a05008 	mov	r5, r8
    4d14:	e5882088 	str	r2, [r8, #136]	; 0x88
    4d18:	e58c7188 	str	r7, [r12, #392]	; 0x188
    4d1c:	058c018c 	streq	r0, [r12, #396]	; 0x18c
    4d20:	eaffffe9 	b	4ccc <__register_exitproc+0x94>
    4d24:	0001387c 	.word	0x0001387c
    4d28:	00000000 	.word	0x00000000

00004d2c <__call_exitprocs>:
    4d2c:	e92d4ff0 	push	{r4, r5, r6, r7, r8, r9, r10, r11, lr}
    4d30:	e59f3168 	ldr	r3, [pc, #360]	; 4ea0 <__call_exitprocs+0x174>
    4d34:	e5933000 	ldr	r3, [r3]
    4d38:	e24dd014 	sub	sp, sp, #20
    4d3c:	e58d3004 	str	r3, [sp, #4]
    4d40:	e2833f52 	add	r3, r3, #328	; 0x148
    4d44:	e58d0008 	str	r0, [sp, #8]
    4d48:	e58d300c 	str	r3, [sp, #12]
    4d4c:	e1a07001 	mov	r7, r1
    4d50:	e3a08001 	mov	r8, #1
    4d54:	e59d3004 	ldr	r3, [sp, #4]
    4d58:	e5936148 	ldr	r6, [r3, #328]	; 0x148
    4d5c:	e3560000 	cmp	r6, #0
    4d60:	e59db00c 	ldr	r11, [sp, #12]
    4d64:	0a000033 	beq	4e38 <__call_exitprocs+0x10c>
    4d68:	e5965004 	ldr	r5, [r6, #4]
    4d6c:	e2554001 	subs	r4, r5, #1
    4d70:	5286a088 	addpl	r10, r6, #136	; 0x88
    4d74:	5285501f 	addpl	r5, r5, #31
    4d78:	508a5105 	addpl	r5, r10, r5, lsl #2
    4d7c:	5a000007 	bpl	4da0 <__call_exitprocs+0x74>
    4d80:	ea000029 	b	4e2c <__call_exitprocs+0x100>
    4d84:	e5953000 	ldr	r3, [r5]
    4d88:	e1530007 	cmp	r3, r7
    4d8c:	0a000005 	beq	4da8 <__call_exitprocs+0x7c>
    4d90:	e2444001 	sub	r4, r4, #1
    4d94:	e3740001 	cmn	r4, #1
    4d98:	e2455004 	sub	r5, r5, #4
    4d9c:	0a000022 	beq	4e2c <__call_exitprocs+0x100>
    4da0:	e3570000 	cmp	r7, #0
    4da4:	1afffff6 	bne	4d84 <__call_exitprocs+0x58>
    4da8:	e5963004 	ldr	r3, [r6, #4]
    4dac:	e06a2005 	rsb	r2, r10, r5
    4db0:	e2433001 	sub	r3, r3, #1
    4db4:	e0862002 	add	r2, r6, r2
    4db8:	e1530004 	cmp	r3, r4
    4dbc:	e5123078 	ldr	r3, [r2, #-120]	; 0xffffff88
    4dc0:	13a01000 	movne	r1, #0
    4dc4:	05864004 	streq	r4, [r6, #4]
    4dc8:	15021078 	strne	r1, [r2, #-120]	; 0xffffff88
    4dcc:	e3530000 	cmp	r3, #0
    4dd0:	0affffee 	beq	4d90 <__call_exitprocs+0x64>
    4dd4:	e1a02418 	lsl	r2, r8, r4
    4dd8:	e5961188 	ldr	r1, [r6, #392]	; 0x188
    4ddc:	e1120001 	tst	r2, r1
    4de0:	e5969004 	ldr	r9, [r6, #4]
    4de4:	0a000016 	beq	4e44 <__call_exitprocs+0x118>
    4de8:	e596118c 	ldr	r1, [r6, #396]	; 0x18c
    4dec:	e1120001 	tst	r2, r1
    4df0:	1a000016 	bne	4e50 <__call_exitprocs+0x124>
    4df4:	e59d0008 	ldr	r0, [sp, #8]
    4df8:	e5151080 	ldr	r1, [r5, #-128]	; 0xffffff80
    4dfc:	e1a0e00f 	mov	lr, pc
    4e00:	e12fff13 	bx	r3
    4e04:	e5963004 	ldr	r3, [r6, #4]
    4e08:	e1530009 	cmp	r3, r9
    4e0c:	1affffd0 	bne	4d54 <__call_exitprocs+0x28>
    4e10:	e59b3000 	ldr	r3, [r11]
    4e14:	e1530006 	cmp	r3, r6
    4e18:	1affffcd 	bne	4d54 <__call_exitprocs+0x28>
    4e1c:	e2444001 	sub	r4, r4, #1
    4e20:	e3740001 	cmn	r4, #1
    4e24:	e2455004 	sub	r5, r5, #4
    4e28:	1affffdc 	bne	4da0 <__call_exitprocs+0x74>
    4e2c:	e59f1070 	ldr	r1, [pc, #112]	; 4ea4 <__call_exitprocs+0x178>
    4e30:	e3510000 	cmp	r1, #0
    4e34:	1a000009 	bne	4e60 <__call_exitprocs+0x134>
    4e38:	e28dd014 	add	sp, sp, #20
    4e3c:	e8bd4ff0 	pop	{r4, r5, r6, r7, r8, r9, r10, r11, lr}
    4e40:	e12fff1e 	bx	lr
    4e44:	e1a0e00f 	mov	lr, pc
    4e48:	e12fff13 	bx	r3
    4e4c:	eaffffec 	b	4e04 <__call_exitprocs+0xd8>
    4e50:	e5150080 	ldr	r0, [r5, #-128]	; 0xffffff80
    4e54:	e1a0e00f 	mov	lr, pc
    4e58:	e12fff13 	bx	r3
    4e5c:	eaffffe8 	b	4e04 <__call_exitprocs+0xd8>
    4e60:	e5963004 	ldr	r3, [r6, #4]
    4e64:	e3530000 	cmp	r3, #0
    4e68:	e5963000 	ldr	r3, [r6]
    4e6c:	1a000008 	bne	4e94 <__call_exitprocs+0x168>
    4e70:	e3530000 	cmp	r3, #0
    4e74:	0a000006 	beq	4e94 <__call_exitprocs+0x168>
    4e78:	e1a00006 	mov	r0, r6
    4e7c:	e58b3000 	str	r3, [r11]
    4e80:	e320f000 	nop	{0}
    4e84:	e59b6000 	ldr	r6, [r11]
    4e88:	e3560000 	cmp	r6, #0
    4e8c:	1affffb5 	bne	4d68 <__call_exitprocs+0x3c>
    4e90:	eaffffe8 	b	4e38 <__call_exitprocs+0x10c>
    4e94:	e1a0b006 	mov	r11, r6
    4e98:	e1a06003 	mov	r6, r3
    4e9c:	eafffff9 	b	4e88 <__call_exitprocs+0x15c>
    4ea0:	0001387c 	.word	0x0001387c
    4ea4:	00000000 	.word	0x00000000

00004ea8 <register_fini>:
    4ea8:	e92d4008 	push	{r3, lr}
    4eac:	e59f3010 	ldr	r3, [pc, #16]	; 4ec4 <register_fini+0x1c>
    4eb0:	e3530000 	cmp	r3, #0
    4eb4:	159f000c 	ldrne	r0, [pc, #12]	; 4ec8 <register_fini+0x20>
    4eb8:	1bfff083 	blne	10cc <atexit>
    4ebc:	e8bd4008 	pop	{r3, lr}
    4ec0:	e12fff1e 	bx	lr
    4ec4:	00013c3c 	.word	0x00013c3c
    4ec8:	00006ca8 	.word	0x00006ca8
    4ecc:	00000000 	.word	0x00000000

00004ed0 <quorem>:
    4ed0:	e92d4ff8 	push	{r3, r4, r5, r6, r7, r8, r9, r10, r11, lr}
    4ed4:	e5903010 	ldr	r3, [r0, #16]
    4ed8:	e5916010 	ldr	r6, [r1, #16]
    4edc:	e1560003 	cmp	r6, r3
    4ee0:	e1a0a000 	mov	r10, r0
    4ee4:	e1a05001 	mov	r5, r1
    4ee8:	c3a00000 	movgt	r0, #0
    4eec:	ca00006d 	bgt	50a8 <quorem+0x1d8>
    4ef0:	e2863003 	add	r3, r6, #3
    4ef4:	e1a03103 	lsl	r3, r3, #2
    4ef8:	e0819003 	add	r9, r1, r3
    4efc:	e5991004 	ldr	r1, [r9, #4]
    4f00:	e08a3003 	add	r3, r10, r3
    4f04:	e5930004 	ldr	r0, [r3, #4]
    4f08:	e2811001 	add	r1, r1, #1
    4f0c:	eb00347c 	bl	12104 <__aeabi_uidiv>
    4f10:	e2507000 	subs	r7, r0, #0
    4f14:	e2466001 	sub	r6, r6, #1
    4f18:	e2899004 	add	r9, r9, #4
    4f1c:	e2854014 	add	r4, r5, #20
    4f20:	e28a8014 	add	r8, r10, #20
    4f24:	0a000030 	beq	4fec <quorem+0x11c>
    4f28:	e3a0c000 	mov	r12, #0
    4f2c:	e1a02008 	mov	r2, r8
    4f30:	e1a03004 	mov	r3, r4
    4f34:	e1a0000c 	mov	r0, r12
    4f38:	e493e004 	ldr	lr, [r3], #4
    4f3c:	e1a0b80e 	lsl	r11, lr, #16
    4f40:	e1a0b82b 	lsr	r11, r11, #16
    4f44:	e1a0e82e 	lsr	lr, lr, #16
    4f48:	e02bcb97 	mla	r11, r7, r11, r12
    4f4c:	e00c0e97 	mul	r12, r7, lr
    4f50:	e592e000 	ldr	lr, [r2]
    4f54:	e08cc82b 	add	r12, r12, r11, lsr #16
    4f58:	e1a0180e 	lsl	r1, lr, #16
    4f5c:	e0801821 	add	r1, r0, r1, lsr #16
    4f60:	e1a0b80b 	lsl	r11, r11, #16
    4f64:	e1a0080c 	lsl	r0, r12, #16
    4f68:	e041182b 	sub	r1, r1, r11, lsr #16
    4f6c:	e1a00820 	lsr	r0, r0, #16
    4f70:	e060082e 	rsb	r0, r0, lr, lsr #16
    4f74:	e1a0b801 	lsl	r11, r1, #16
    4f78:	e0800841 	add	r0, r0, r1, asr #16
    4f7c:	e1a0182b 	lsr	r1, r11, #16
    4f80:	e1811800 	orr	r1, r1, r0, lsl #16
    4f84:	e1590003 	cmp	r9, r3
    4f88:	e1a0c82c 	lsr	r12, r12, #16
    4f8c:	e1a00840 	asr	r0, r0, #16
    4f90:	e4821004 	str	r1, [r2], #4
    4f94:	2affffe7 	bcs	4f38 <quorem+0x68>
    4f98:	e2863004 	add	r3, r6, #4
    4f9c:	e08a3103 	add	r3, r10, r3, lsl #2
    4fa0:	e5932004 	ldr	r2, [r3, #4]
    4fa4:	e3520000 	cmp	r2, #0
    4fa8:	1a00000f 	bne	4fec <quorem+0x11c>
    4fac:	e1580003 	cmp	r8, r3
    4fb0:	e2832004 	add	r2, r3, #4
    4fb4:	2a00000b 	bcs	4fe8 <quorem+0x118>
    4fb8:	e5122004 	ldr	r2, [r2, #-4]
    4fbc:	e3520000 	cmp	r2, #0
    4fc0:	1a000008 	bne	4fe8 <quorem+0x118>
    4fc4:	e2433004 	sub	r3, r3, #4
    4fc8:	ea000003 	b	4fdc <quorem+0x10c>
    4fcc:	e5932000 	ldr	r2, [r3]
    4fd0:	e3520000 	cmp	r2, #0
    4fd4:	e2433004 	sub	r3, r3, #4
    4fd8:	1a000002 	bne	4fe8 <quorem+0x118>
    4fdc:	e1580003 	cmp	r8, r3
    4fe0:	e2466001 	sub	r6, r6, #1
    4fe4:	3afffff8 	bcc	4fcc <quorem+0xfc>
    4fe8:	e58a6010 	str	r6, [r10, #16]
    4fec:	e1a0000a 	mov	r0, r10
    4ff0:	e1a01005 	mov	r1, r5
    4ff4:	eb001029 	bl	90a0 <__mcmp>
    4ff8:	e3500000 	cmp	r0, #0
    4ffc:	ba000028 	blt	50a4 <quorem+0x1d4>
    5000:	e2877001 	add	r7, r7, #1
    5004:	e1a03008 	mov	r3, r8
    5008:	e3a02000 	mov	r2, #0
    500c:	e4945004 	ldr	r5, [r4], #4
    5010:	e593c000 	ldr	r12, [r3]
    5014:	e1a01805 	lsl	r1, r5, #16
    5018:	e1a0080c 	lsl	r0, r12, #16
    501c:	e1a01821 	lsr	r1, r1, #16
    5020:	e0611820 	rsb	r1, r1, r0, lsr #16
    5024:	e0811002 	add	r1, r1, r2
    5028:	e1a02825 	lsr	r2, r5, #16
    502c:	e062282c 	rsb	r2, r2, r12, lsr #16
    5030:	e1a00801 	lsl	r0, r1, #16
    5034:	e0822841 	add	r2, r2, r1, asr #16
    5038:	e1a01820 	lsr	r1, r0, #16
    503c:	e1811802 	orr	r1, r1, r2, lsl #16
    5040:	e1590004 	cmp	r9, r4
    5044:	e1a02842 	asr	r2, r2, #16
    5048:	e4831004 	str	r1, [r3], #4
    504c:	2affffee 	bcs	500c <quorem+0x13c>
    5050:	e2863004 	add	r3, r6, #4
    5054:	e08a3103 	add	r3, r10, r3, lsl #2
    5058:	e5932004 	ldr	r2, [r3, #4]
    505c:	e3520000 	cmp	r2, #0
    5060:	1a00000f 	bne	50a4 <quorem+0x1d4>
    5064:	e1580003 	cmp	r8, r3
    5068:	e2832004 	add	r2, r3, #4
    506c:	2a00000b 	bcs	50a0 <quorem+0x1d0>
    5070:	e5122004 	ldr	r2, [r2, #-4]
    5074:	e3520000 	cmp	r2, #0
    5078:	1a000008 	bne	50a0 <quorem+0x1d0>
    507c:	e2433004 	sub	r3, r3, #4
    5080:	ea000003 	b	5094 <quorem+0x1c4>
    5084:	e5932000 	ldr	r2, [r3]
    5088:	e3520000 	cmp	r2, #0
    508c:	e2433004 	sub	r3, r3, #4
    5090:	1a000002 	bne	50a0 <quorem+0x1d0>
    5094:	e1580003 	cmp	r8, r3
    5098:	e2466001 	sub	r6, r6, #1
    509c:	3afffff8 	bcc	5084 <quorem+0x1b4>
    50a0:	e58a6010 	str	r6, [r10, #16]
    50a4:	e1a00007 	mov	r0, r7
    50a8:	e8bd4ff8 	pop	{r3, r4, r5, r6, r7, r8, r9, r10, r11, lr}
    50ac:	e12fff1e 	bx	lr

000050b0 <_dtoa_r>:
    50b0:	e92d4ff0 	push	{r4, r5, r6, r7, r8, r9, r10, r11, lr}
    50b4:	e5901040 	ldr	r1, [r0, #64]	; 0x40
    50b8:	e24dd07c 	sub	sp, sp, #124	; 0x7c
    50bc:	e3510000 	cmp	r1, #0
    50c0:	e1a06000 	mov	r6, r0
    50c4:	e59d40ac 	ldr	r4, [sp, #172]	; 0xac
    50c8:	e58d2010 	str	r2, [sp, #16]
    50cc:	e58d3014 	str	r3, [sp, #20]
    50d0:	0a000007 	beq	50f4 <_dtoa_r+0x44>
    50d4:	e5903044 	ldr	r3, [r0, #68]	; 0x44
    50d8:	e3a02001 	mov	r2, #1
    50dc:	e1a02312 	lsl	r2, r2, r3
    50e0:	e5813004 	str	r3, [r1, #4]
    50e4:	e5812008 	str	r2, [r1, #8]
    50e8:	eb000e39 	bl	89d4 <_Bfree>
    50ec:	e3a03000 	mov	r3, #0
    50f0:	e5863040 	str	r3, [r6, #64]	; 0x40
    50f4:	e59da014 	ldr	r10, [sp, #20]
    50f8:	e35a0000 	cmp	r10, #0
    50fc:	b3a03001 	movlt	r3, #1
    5100:	a3a03000 	movge	r3, #0
    5104:	b5843000 	strlt	r3, [r4]
    5108:	a5843000 	strge	r3, [r4]
    510c:	e59f3570 	ldr	r3, [pc, #1392]	; 5684 <_dtoa_r+0x5d4>
    5110:	b3caa102 	biclt	r10, r10, #-2147483648	; 0x80000000
    5114:	e59f2568 	ldr	r2, [pc, #1384]	; 5684 <_dtoa_r+0x5d4>
    5118:	b1a0100a 	movlt	r1, r10
    511c:	e00a3003 	and	r3, r10, r3
    5120:	b58d1014 	strlt	r1, [sp, #20]
    5124:	e1530002 	cmp	r3, r2
    5128:	0a000016 	beq	5188 <_dtoa_r+0xd8>
    512c:	e28d5010 	add	r5, sp, #16
    5130:	e8950030 	ldm	r5, {r4, r5}
    5134:	e3a02000 	mov	r2, #0
    5138:	e1a00004 	mov	r0, r4
    513c:	e1a01005 	mov	r1, r5
    5140:	e3a03000 	mov	r3, #0
    5144:	eb003467 	bl	122e8 <__aeabi_dcmpeq>
    5148:	e3500000 	cmp	r0, #0
    514c:	0a00001e 	beq	51cc <_dtoa_r+0x11c>
    5150:	e59d40b0 	ldr	r4, [sp, #176]	; 0xb0
    5154:	e59dc0a8 	ldr	r12, [sp, #168]	; 0xa8
    5158:	e3a03001 	mov	r3, #1
    515c:	e3540000 	cmp	r4, #0
    5160:	e58c3000 	str	r3, [r12]
    5164:	0a00009a 	beq	53d4 <_dtoa_r+0x324>
    5168:	e59f44e8 	ldr	r4, [pc, #1256]	; 5658 <_dtoa_r+0x5a8>
    516c:	e59dc0b0 	ldr	r12, [sp, #176]	; 0xb0
    5170:	e58c4000 	str	r4, [r12]
    5174:	e2444001 	sub	r4, r4, #1
    5178:	e1a00004 	mov	r0, r4
    517c:	e28dd07c 	add	sp, sp, #124	; 0x7c
    5180:	e8bd4ff0 	pop	{r4, r5, r6, r7, r8, r9, r10, r11, lr}
    5184:	e12fff1e 	bx	lr
    5188:	e59d2010 	ldr	r2, [sp, #16]
    518c:	e59f34c8 	ldr	r3, [pc, #1224]	; 565c <_dtoa_r+0x5ac>
    5190:	e59d40a8 	ldr	r4, [sp, #168]	; 0xa8
    5194:	e3520000 	cmp	r2, #0
    5198:	e5843000 	str	r3, [r4]
    519c:	0a000079 	beq	5388 <_dtoa_r+0x2d8>
    51a0:	e59f44b8 	ldr	r4, [pc, #1208]	; 5660 <_dtoa_r+0x5b0>
    51a4:	e59dc0b0 	ldr	r12, [sp, #176]	; 0xb0
    51a8:	e35c0000 	cmp	r12, #0
    51ac:	0afffff1 	beq	5178 <_dtoa_r+0xc8>
    51b0:	e5d43003 	ldrb	r3, [r4, #3]
    51b4:	e59dc0b0 	ldr	r12, [sp, #176]	; 0xb0
    51b8:	e3530000 	cmp	r3, #0
    51bc:	12843008 	addne	r3, r4, #8
    51c0:	02843003 	addeq	r3, r4, #3
    51c4:	e58c3000 	str	r3, [r12]
    51c8:	eaffffea 	b	5178 <_dtoa_r+0xc8>
    51cc:	e28d3074 	add	r3, sp, #116	; 0x74
    51d0:	e58d3000 	str	r3, [sp]
    51d4:	e28d3070 	add	r3, sp, #112	; 0x70
    51d8:	e58d3004 	str	r3, [sp, #4]
    51dc:	e1a00006 	mov	r0, r6
    51e0:	e1a02004 	mov	r2, r4
    51e4:	e1a03005 	mov	r3, r5
    51e8:	eb001064 	bl	9380 <__d2b>
    51ec:	e1a0708a 	lsl	r7, r10, #1
    51f0:	e1b07aa7 	lsrs	r7, r7, #21
    51f4:	e1a0b000 	mov	r11, r0
    51f8:	1a00006a 	bne	53a8 <_dtoa_r+0x2f8>
    51fc:	e59d8070 	ldr	r8, [sp, #112]	; 0x70
    5200:	e59d7074 	ldr	r7, [sp, #116]	; 0x74
    5204:	e3e03e41 	mvn	r3, #1040	; 0x410
    5208:	e0887007 	add	r7, r8, r7
    520c:	e1570003 	cmp	r7, r3
    5210:	ba0001da 	blt	5980 <_dtoa_r+0x8d0>
    5214:	e2870e41 	add	r0, r7, #1040	; 0x410
    5218:	e59dc010 	ldr	r12, [sp, #16]
    521c:	e2800002 	add	r0, r0, #2
    5220:	e1a0003c 	lsr	r0, r12, r0
    5224:	e283301f 	add	r3, r3, #31
    5228:	e0673003 	rsb	r3, r7, r3
    522c:	e180031a 	orr	r0, r0, r10, lsl r3
    5230:	ebffed93 	bl	884 <__aeabi_ui2d>
    5234:	e3a04001 	mov	r4, #1
    5238:	e58d4060 	str	r4, [sp, #96]	; 0x60
    523c:	e241161f 	sub	r1, r1, #32505856	; 0x1f00000
    5240:	e2477001 	sub	r7, r7, #1
    5244:	e3a02000 	mov	r2, #0
    5248:	e59f3414 	ldr	r3, [pc, #1044]	; 5664 <_dtoa_r+0x5b4>
    524c:	ebffecc7 	bl	570 <__aeabi_dsub>
    5250:	e28f3ffa 	add	r3, pc, #1000	; 0x3e8
    5254:	e893000c 	ldm	r3, {r2, r3}
    5258:	ebffedc9 	bl	984 <__aeabi_dmul>
    525c:	e28f3ff9 	add	r3, pc, #996	; 0x3e4
    5260:	e893000c 	ldm	r3, {r2, r3}
    5264:	ebffecc2 	bl	574 <__adddf3>
    5268:	e1a04000 	mov	r4, r0
    526c:	e1a00007 	mov	r0, r7
    5270:	e1a05001 	mov	r5, r1
    5274:	ebffed8b 	bl	8a8 <__aeabi_i2d>
    5278:	e28f3e3d 	add	r3, pc, #976	; 0x3d0
    527c:	e893000c 	ldm	r3, {r2, r3}
    5280:	ebffedbf 	bl	984 <__aeabi_dmul>
    5284:	e1a02000 	mov	r2, r0
    5288:	e1a03001 	mov	r3, r1
    528c:	e1a00004 	mov	r0, r4
    5290:	e1a01005 	mov	r1, r5
    5294:	ebffecb6 	bl	574 <__adddf3>
    5298:	e1a04000 	mov	r4, r0
    529c:	e1a05001 	mov	r5, r1
    52a0:	eb00342e 	bl	12360 <__aeabi_d2iz>
    52a4:	e1a01005 	mov	r1, r5
    52a8:	e1a09000 	mov	r9, r0
    52ac:	e3a02000 	mov	r2, #0
    52b0:	e1a00004 	mov	r0, r4
    52b4:	e3a03000 	mov	r3, #0
    52b8:	eb003410 	bl	12300 <__aeabi_dcmplt>
    52bc:	e3500000 	cmp	r0, #0
    52c0:	1a0001a6 	bne	5960 <_dtoa_r+0x8b0>
    52c4:	e3590016 	cmp	r9, #22
    52c8:	83a04001 	movhi	r4, #1
    52cc:	858d404c 	strhi	r4, [sp, #76]	; 0x4c
    52d0:	8a00000a 	bhi	5300 <_dtoa_r+0x250>
    52d4:	e59f33a0 	ldr	r3, [pc, #928]	; 567c <_dtoa_r+0x5cc>
    52d8:	e0833189 	add	r3, r3, r9, lsl #3
    52dc:	e8930003 	ldm	r3, {r0, r1}
    52e0:	e28d3010 	add	r3, sp, #16
    52e4:	e893000c 	ldm	r3, {r2, r3}
    52e8:	eb003416 	bl	12348 <__aeabi_dcmpgt>
    52ec:	e3500000 	cmp	r0, #0
    52f0:	13a0c000 	movne	r12, #0
    52f4:	158dc04c 	strne	r12, [sp, #76]	; 0x4c
    52f8:	058d004c 	streq	r0, [sp, #76]	; 0x4c
    52fc:	12499001 	subne	r9, r9, #1
    5300:	e0677008 	rsb	r7, r7, r8
    5304:	e2577001 	subs	r7, r7, #1
    5308:	42677000 	rsbmi	r7, r7, #0
    530c:	43a0c000 	movmi	r12, #0
    5310:	53a04000 	movpl	r4, #0
    5314:	458d702c 	strmi	r7, [sp, #44]	; 0x2c
    5318:	458dc028 	strmi	r12, [sp, #40]	; 0x28
    531c:	558d7028 	strpl	r7, [sp, #40]	; 0x28
    5320:	558d402c 	strpl	r4, [sp, #44]	; 0x2c
    5324:	e3590000 	cmp	r9, #0
    5328:	ba000184 	blt	5940 <_dtoa_r+0x890>
    532c:	e59dc028 	ldr	r12, [sp, #40]	; 0x28
    5330:	e3a04000 	mov	r4, #0
    5334:	e08cc009 	add	r12, r12, r9
    5338:	e58dc028 	str	r12, [sp, #40]	; 0x28
    533c:	e58d9048 	str	r9, [sp, #72]	; 0x48
    5340:	e58d403c 	str	r4, [sp, #60]	; 0x3c
    5344:	e59d40a0 	ldr	r4, [sp, #160]	; 0xa0
    5348:	e3540009 	cmp	r4, #9
    534c:	8a000022 	bhi	53dc <_dtoa_r+0x32c>
    5350:	e3540005 	cmp	r4, #5
    5354:	c2444004 	subgt	r4, r4, #4
    5358:	c58d40a0 	strgt	r4, [sp, #160]	; 0xa0
    535c:	e59dc0a0 	ldr	r12, [sp, #160]	; 0xa0
    5360:	e24c3002 	sub	r3, r12, #2
    5364:	c3a04000 	movgt	r4, #0
    5368:	d3a04001 	movle	r4, #1
    536c:	e3530003 	cmp	r3, #3
    5370:	979ff103 	ldrls	pc, [pc, r3, lsl #2]
    5374:	ea00001a 	b	53e4 <_dtoa_r+0x334>
    5378:	00005a18 	.word	0x00005a18
    537c:	00005db0 	.word	0x00005db0
    5380:	00005da4 	.word	0x00005da4
    5384:	00005d70 	.word	0x00005d70
    5388:	e3ca44ff 	bic	r4, r10, #-16777216	; 0xff000000
    538c:	e3c4460f 	bic	r4, r4, #15728640	; 0xf00000
    5390:	e59f32c8 	ldr	r3, [pc, #712]	; 5660 <_dtoa_r+0x5b0>
    5394:	e59f22cc 	ldr	r2, [pc, #716]	; 5668 <_dtoa_r+0x5b8>
    5398:	e3540000 	cmp	r4, #0
    539c:	01a04002 	moveq	r4, r2
    53a0:	11a04003 	movne	r4, r3
    53a4:	eaffff7e 	b	51a4 <_dtoa_r+0xf4>
    53a8:	e3c534ff 	bic	r3, r5, #-16777216	; 0xff000000
    53ac:	e3c3360f 	bic	r3, r3, #15728640	; 0xf00000
    53b0:	e1a00004 	mov	r0, r4
    53b4:	e38335ff 	orr	r3, r3, #1069547520	; 0x3fc00000
    53b8:	e2477fff 	sub	r7, r7, #1020	; 0x3fc
    53bc:	e3a04000 	mov	r4, #0
    53c0:	e3831603 	orr	r1, r3, #3145728	; 0x300000
    53c4:	e2477003 	sub	r7, r7, #3
    53c8:	e59d8070 	ldr	r8, [sp, #112]	; 0x70
    53cc:	e58d4060 	str	r4, [sp, #96]	; 0x60
    53d0:	eaffff9b 	b	5244 <_dtoa_r+0x194>
    53d4:	e59f4290 	ldr	r4, [pc, #656]	; 566c <_dtoa_r+0x5bc>
    53d8:	eaffff66 	b	5178 <_dtoa_r+0xc8>
    53dc:	e3a04000 	mov	r4, #0
    53e0:	e58d40a0 	str	r4, [sp, #160]	; 0xa0
    53e4:	e3a04000 	mov	r4, #0
    53e8:	e5864044 	str	r4, [r6, #68]	; 0x44
    53ec:	e1a00006 	mov	r0, r6
    53f0:	e1a01004 	mov	r1, r4
    53f4:	eb000d53 	bl	8948 <_Balloc>
    53f8:	e3e0c000 	mvn	r12, #0
    53fc:	e58dc044 	str	r12, [sp, #68]	; 0x44
    5400:	e58dc038 	str	r12, [sp, #56]	; 0x38
    5404:	e3a0c001 	mov	r12, #1
    5408:	e58d0024 	str	r0, [sp, #36]	; 0x24
    540c:	e5860040 	str	r0, [r6, #64]	; 0x40
    5410:	e58dc040 	str	r12, [sp, #64]	; 0x40
    5414:	e58d40a4 	str	r4, [sp, #164]	; 0xa4
    5418:	e59d3074 	ldr	r3, [sp, #116]	; 0x74
    541c:	e3530000 	cmp	r3, #0
    5420:	ba0000ab 	blt	56d4 <_dtoa_r+0x624>
    5424:	e359000e 	cmp	r9, #14
    5428:	ca0000a9 	bgt	56d4 <_dtoa_r+0x624>
    542c:	e59d40a4 	ldr	r4, [sp, #164]	; 0xa4
    5430:	e59dc038 	ldr	r12, [sp, #56]	; 0x38
    5434:	e59f3240 	ldr	r3, [pc, #576]	; 567c <_dtoa_r+0x5cc>
    5438:	e1a02fa4 	lsr	r2, r4, #31
    543c:	e35c0000 	cmp	r12, #0
    5440:	c3a02000 	movgt	r2, #0
    5444:	d2022001 	andle	r2, r2, #1
    5448:	e0833189 	add	r3, r3, r9, lsl #3
    544c:	e3520000 	cmp	r2, #0
    5450:	e8930006 	ldm	r3, {r1, r2}
    5454:	e58d1018 	str	r1, [sp, #24]
    5458:	e58d201c 	str	r2, [sp, #28]
    545c:	1a000347 	bne	6180 <_dtoa_r+0x10d0>
    5460:	e28d5010 	add	r5, sp, #16
    5464:	e8950030 	ldm	r5, {r4, r5}
    5468:	e1a03002 	mov	r3, r2
    546c:	e1a00004 	mov	r0, r4
    5470:	e1a02001 	mov	r2, r1
    5474:	e1a01005 	mov	r1, r5
    5478:	ebffede5 	bl	c14 <__aeabi_ddiv>
    547c:	eb0033b7 	bl	12360 <__aeabi_d2iz>
    5480:	e1a07000 	mov	r7, r0
    5484:	ebffed07 	bl	8a8 <__aeabi_i2d>
    5488:	e28d3018 	add	r3, sp, #24
    548c:	e893000c 	ldm	r3, {r2, r3}
    5490:	ebffed3b 	bl	984 <__aeabi_dmul>
    5494:	e1a03001 	mov	r3, r1
    5498:	e1a02000 	mov	r2, r0
    549c:	e1a01005 	mov	r1, r5
    54a0:	e1a00004 	mov	r0, r4
    54a4:	ebffec31 	bl	570 <__aeabi_dsub>
    54a8:	e59dc024 	ldr	r12, [sp, #36]	; 0x24
    54ac:	e2873030 	add	r3, r7, #48	; 0x30
    54b0:	e4cc3001 	strb	r3, [r12], #1
    54b4:	e58dc030 	str	r12, [sp, #48]	; 0x30
    54b8:	e59dc038 	ldr	r12, [sp, #56]	; 0x38
    54bc:	e35c0001 	cmp	r12, #1
    54c0:	e1a04000 	mov	r4, r0
    54c4:	e1a05001 	mov	r5, r1
    54c8:	e59dc030 	ldr	r12, [sp, #48]	; 0x30
    54cc:	0a000039 	beq	55b8 <_dtoa_r+0x508>
    54d0:	e3a02000 	mov	r2, #0
    54d4:	e59f31ac 	ldr	r3, [pc, #428]	; 5688 <_dtoa_r+0x5d8>
    54d8:	ebffed29 	bl	984 <__aeabi_dmul>
    54dc:	e3a02000 	mov	r2, #0
    54e0:	e3a03000 	mov	r3, #0
    54e4:	e1a04000 	mov	r4, r0
    54e8:	e1a05001 	mov	r5, r1
    54ec:	eb00337d 	bl	122e8 <__aeabi_dcmpeq>
    54f0:	e3500000 	cmp	r0, #0
    54f4:	1a00047f 	bne	66f8 <_dtoa_r+0x1648>
    54f8:	e59dc024 	ldr	r12, [sp, #36]	; 0x24
    54fc:	e59d1038 	ldr	r1, [sp, #56]	; 0x38
    5500:	e08c8001 	add	r8, r12, r1
    5504:	e58d9020 	str	r9, [sp, #32]
    5508:	e58d8010 	str	r8, [sp, #16]
    550c:	e28ca002 	add	r10, r12, #2
    5510:	e28d9018 	add	r9, sp, #24
    5514:	e8990300 	ldm	r9, {r8, r9}
    5518:	e58d6028 	str	r6, [sp, #40]	; 0x28
    551c:	ea000008 	b	5544 <_dtoa_r+0x494>
    5520:	ebffed17 	bl	984 <__aeabi_dmul>
    5524:	e3a02000 	mov	r2, #0
    5528:	e3a03000 	mov	r3, #0
    552c:	e1a04000 	mov	r4, r0
    5530:	e1a05001 	mov	r5, r1
    5534:	eb00336b 	bl	122e8 <__aeabi_dcmpeq>
    5538:	e3500000 	cmp	r0, #0
    553c:	e28aa001 	add	r10, r10, #1
    5540:	1a0003af 	bne	6404 <_dtoa_r+0x1354>
    5544:	e1a02008 	mov	r2, r8
    5548:	e1a03009 	mov	r3, r9
    554c:	e1a00004 	mov	r0, r4
    5550:	e1a01005 	mov	r1, r5
    5554:	ebffedae 	bl	c14 <__aeabi_ddiv>
    5558:	eb003380 	bl	12360 <__aeabi_d2iz>
    555c:	e1a07000 	mov	r7, r0
    5560:	ebffecd0 	bl	8a8 <__aeabi_i2d>
    5564:	e1a02008 	mov	r2, r8
    5568:	e1a03009 	mov	r3, r9
    556c:	ebffed04 	bl	984 <__aeabi_dmul>
    5570:	e1a02000 	mov	r2, r0
    5574:	e1a03001 	mov	r3, r1
    5578:	e1a00004 	mov	r0, r4
    557c:	e1a01005 	mov	r1, r5
    5580:	ebffebfa 	bl	570 <__aeabi_dsub>
    5584:	e59dc010 	ldr	r12, [sp, #16]
    5588:	e15a000c 	cmp	r10, r12
    558c:	e287c030 	add	r12, r7, #48	; 0x30
    5590:	e1a04000 	mov	r4, r0
    5594:	e1a05001 	mov	r5, r1
    5598:	e3a02000 	mov	r2, #0
    559c:	e59f30e4 	ldr	r3, [pc, #228]	; 5688 <_dtoa_r+0x5d8>
    55a0:	e54ac001 	strb	r12, [r10, #-1]
    55a4:	e1a0600a 	mov	r6, r10
    55a8:	1affffdc 	bne	5520 <_dtoa_r+0x470>
    55ac:	e59d9020 	ldr	r9, [sp, #32]
    55b0:	e59d6028 	ldr	r6, [sp, #40]	; 0x28
    55b4:	e1a0c00a 	mov	r12, r10
    55b8:	e1a02004 	mov	r2, r4
    55bc:	e1a03005 	mov	r3, r5
    55c0:	e1a00004 	mov	r0, r4
    55c4:	e1a01005 	mov	r1, r5
    55c8:	e58dc008 	str	r12, [sp, #8]
    55cc:	ebffebe8 	bl	574 <__adddf3>
    55d0:	e1a04000 	mov	r4, r0
    55d4:	e1a05001 	mov	r5, r1
    55d8:	e1a02004 	mov	r2, r4
    55dc:	e28d1018 	add	r1, sp, #24
    55e0:	e8910003 	ldm	r1, {r0, r1}
    55e4:	e1a03005 	mov	r3, r5
    55e8:	eb003344 	bl	12300 <__aeabi_dcmplt>
    55ec:	e3500000 	cmp	r0, #0
    55f0:	e59dc008 	ldr	r12, [sp, #8]
    55f4:	1a00000a 	bne	5624 <_dtoa_r+0x574>
    55f8:	e28d1018 	add	r1, sp, #24
    55fc:	e8910003 	ldm	r1, {r0, r1}
    5600:	e1a02004 	mov	r2, r4
    5604:	e1a03005 	mov	r3, r5
    5608:	e58dc008 	str	r12, [sp, #8]
    560c:	eb003335 	bl	122e8 <__aeabi_dcmpeq>
    5610:	e3500000 	cmp	r0, #0
    5614:	e59dc008 	ldr	r12, [sp, #8]
    5618:	0a00037c 	beq	6410 <_dtoa_r+0x1360>
    561c:	e3170001 	tst	r7, #1
    5620:	0a00037a 	beq	6410 <_dtoa_r+0x1360>
    5624:	e55c8001 	ldrb	r8, [r12, #-1]
    5628:	e59d4024 	ldr	r4, [sp, #36]	; 0x24
    562c:	e58d9064 	str	r9, [sp, #100]	; 0x64
    5630:	e1a0900c 	mov	r9, r12
    5634:	e59d1030 	ldr	r1, [sp, #48]	; 0x30
    5638:	ea000017 	b	569c <_dtoa_r+0x5ec>
    563c:	e1a00000 	nop			; (mov r0, r0)
    5640:	636f4361 	.word	0x636f4361
    5644:	3fd287a7 	.word	0x3fd287a7
    5648:	8b60c8b3 	.word	0x8b60c8b3
    564c:	3fc68a28 	.word	0x3fc68a28
    5650:	509f79fb 	.word	0x509f79fb
    5654:	3fd34413 	.word	0x3fd34413
    5658:	000138e5 	.word	0x000138e5
    565c:	0000270f 	.word	0x0000270f
    5660:	00013a24 	.word	0x00013a24
    5664:	3ff80000 	.word	0x3ff80000
    5668:	00013a18 	.word	0x00013a18
    566c:	000138e4 	.word	0x000138e4
    5670:	fffffbee 	.word	0xfffffbee
    5674:	3ff00000 	.word	0x3ff00000
    5678:	00013b38 	.word	0x00013b38
    567c:	00013a48 	.word	0x00013a48
    5680:	40140000 	.word	0x40140000
    5684:	7ff00000 	.word	0x7ff00000
    5688:	40240000 	.word	0x40240000
    568c:	401c0000 	.word	0x401c0000
    5690:	3fe00000 	.word	0x3fe00000
    5694:	e5598002 	ldrb	r8, [r9, #-2]
    5698:	e1a09003 	mov	r9, r3
    569c:	e3580039 	cmp	r8, #57	; 0x39
    56a0:	e1a02009 	mov	r2, r9
    56a4:	e2493001 	sub	r3, r9, #1
    56a8:	1a0003c2 	bne	65b8 <_dtoa_r+0x1508>
    56ac:	e1590001 	cmp	r9, r1
    56b0:	1afffff7 	bne	5694 <_dtoa_r+0x5e4>
    56b4:	e58d2024 	str	r2, [sp, #36]	; 0x24
    56b8:	e59dc064 	ldr	r12, [sp, #100]	; 0x64
    56bc:	e3a02030 	mov	r2, #48	; 0x30
    56c0:	e5c32000 	strb	r2, [r3]
    56c4:	e28c9001 	add	r9, r12, #1
    56c8:	e3a08031 	mov	r8, #49	; 0x31
    56cc:	e5c38000 	strb	r8, [r3]
    56d0:	ea00008b 	b	5904 <_dtoa_r+0x854>
    56d4:	e59d4040 	ldr	r4, [sp, #64]	; 0x40
    56d8:	e3540000 	cmp	r4, #0
    56dc:	1a0000ac 	bne	5994 <_dtoa_r+0x8e4>
    56e0:	e59d503c 	ldr	r5, [sp, #60]	; 0x3c
    56e4:	e59d402c 	ldr	r4, [sp, #44]	; 0x2c
    56e8:	e59da040 	ldr	r10, [sp, #64]	; 0x40
    56ec:	e59dc028 	ldr	r12, [sp, #40]	; 0x28
    56f0:	e35c0000 	cmp	r12, #0
    56f4:	c3540000 	cmpgt	r4, #0
    56f8:	da000009 	ble	5724 <_dtoa_r+0x674>
    56fc:	e1a0300c 	mov	r3, r12
    5700:	e59dc02c 	ldr	r12, [sp, #44]	; 0x2c
    5704:	e1530004 	cmp	r3, r4
    5708:	a1a03004 	movge	r3, r4
    570c:	e063c00c 	rsb	r12, r3, r12
    5710:	e58dc02c 	str	r12, [sp, #44]	; 0x2c
    5714:	e59dc028 	ldr	r12, [sp, #40]	; 0x28
    5718:	e063c00c 	rsb	r12, r3, r12
    571c:	e58dc028 	str	r12, [sp, #40]	; 0x28
    5720:	e0634004 	rsb	r4, r3, r4
    5724:	e59dc03c 	ldr	r12, [sp, #60]	; 0x3c
    5728:	e35c0000 	cmp	r12, #0
    572c:	da000015 	ble	5788 <_dtoa_r+0x6d8>
    5730:	e59dc040 	ldr	r12, [sp, #64]	; 0x40
    5734:	e35c0000 	cmp	r12, #0
    5738:	0a00032b 	beq	63ec <_dtoa_r+0x133c>
    573c:	e3550000 	cmp	r5, #0
    5740:	da00000d 	ble	577c <_dtoa_r+0x6cc>
    5744:	e1a0100a 	mov	r1, r10
    5748:	e1a02005 	mov	r2, r5
    574c:	e1a00006 	mov	r0, r6
    5750:	eb000dd4 	bl	8ea8 <__pow5mult>
    5754:	e1a0a000 	mov	r10, r0
    5758:	e1a0200b 	mov	r2, r11
    575c:	e1a0100a 	mov	r1, r10
    5760:	e1a00006 	mov	r0, r6
    5764:	eb000d56 	bl	8cc4 <__multiply>
    5768:	e1a0100b 	mov	r1, r11
    576c:	e1a07000 	mov	r7, r0
    5770:	e1a00006 	mov	r0, r6
    5774:	eb000c96 	bl	89d4 <_Bfree>
    5778:	e1a0b007 	mov	r11, r7
    577c:	e59dc03c 	ldr	r12, [sp, #60]	; 0x3c
    5780:	e05c2005 	subs	r2, r12, r5
    5784:	1a00035d 	bne	6500 <_dtoa_r+0x1450>
    5788:	e1a00006 	mov	r0, r6
    578c:	e3a01001 	mov	r1, #1
    5790:	eb000d42 	bl	8ca0 <__i2b>
    5794:	e59dc048 	ldr	r12, [sp, #72]	; 0x48
    5798:	e35c0000 	cmp	r12, #0
    579c:	e1a07000 	mov	r7, r0
    57a0:	da000004 	ble	57b8 <_dtoa_r+0x708>
    57a4:	e1a01007 	mov	r1, r7
    57a8:	e1a00006 	mov	r0, r6
    57ac:	e1a0200c 	mov	r2, r12
    57b0:	eb000dbc 	bl	8ea8 <__pow5mult>
    57b4:	e1a07000 	mov	r7, r0
    57b8:	e59dc0a0 	ldr	r12, [sp, #160]	; 0xa0
    57bc:	e35c0001 	cmp	r12, #1
    57c0:	da00027e 	ble	61c0 <_dtoa_r+0x1110>
    57c4:	e3a05000 	mov	r5, #0
    57c8:	e59dc048 	ldr	r12, [sp, #72]	; 0x48
    57cc:	e35c0000 	cmp	r12, #0
    57d0:	03a00001 	moveq	r0, #1
    57d4:	1a000247 	bne	60f8 <_dtoa_r+0x1048>
    57d8:	e59dc028 	ldr	r12, [sp, #40]	; 0x28
    57dc:	e080300c 	add	r3, r0, r12
    57e0:	e213301f 	ands	r3, r3, #31
    57e4:	0a0001d4 	beq	5f3c <_dtoa_r+0xe8c>
    57e8:	e2632020 	rsb	r2, r3, #32
    57ec:	e3520004 	cmp	r2, #4
    57f0:	da0003dc 	ble	6768 <_dtoa_r+0x16b8>
    57f4:	e263301c 	rsb	r3, r3, #28
    57f8:	e59dc02c 	ldr	r12, [sp, #44]	; 0x2c
    57fc:	e08cc003 	add	r12, r12, r3
    5800:	e58dc02c 	str	r12, [sp, #44]	; 0x2c
    5804:	e59dc028 	ldr	r12, [sp, #40]	; 0x28
    5808:	e08cc003 	add	r12, r12, r3
    580c:	e58dc028 	str	r12, [sp, #40]	; 0x28
    5810:	e0844003 	add	r4, r4, r3
    5814:	e59dc02c 	ldr	r12, [sp, #44]	; 0x2c
    5818:	e35c0000 	cmp	r12, #0
    581c:	da000004 	ble	5834 <_dtoa_r+0x784>
    5820:	e1a0100b 	mov	r1, r11
    5824:	e1a00006 	mov	r0, r6
    5828:	e1a0200c 	mov	r2, r12
    582c:	eb000dda 	bl	8f9c <__lshift>
    5830:	e1a0b000 	mov	r11, r0
    5834:	e59dc028 	ldr	r12, [sp, #40]	; 0x28
    5838:	e35c0000 	cmp	r12, #0
    583c:	da000004 	ble	5854 <_dtoa_r+0x7a4>
    5840:	e1a01007 	mov	r1, r7
    5844:	e1a00006 	mov	r0, r6
    5848:	e1a0200c 	mov	r2, r12
    584c:	eb000dd2 	bl	8f9c <__lshift>
    5850:	e1a07000 	mov	r7, r0
    5854:	e59dc04c 	ldr	r12, [sp, #76]	; 0x4c
    5858:	e35c0000 	cmp	r12, #0
    585c:	1a00022b 	bne	6110 <_dtoa_r+0x1060>
    5860:	e59dc0a0 	ldr	r12, [sp, #160]	; 0xa0
    5864:	e59d1038 	ldr	r1, [sp, #56]	; 0x38
    5868:	e35c0002 	cmp	r12, #2
    586c:	d3a03000 	movle	r3, #0
    5870:	c3a03001 	movgt	r3, #1
    5874:	e3510000 	cmp	r1, #0
    5878:	c3a03000 	movgt	r3, #0
    587c:	e3530000 	cmp	r3, #0
    5880:	0a000170 	beq	5e48 <_dtoa_r+0xd98>
    5884:	e59d4038 	ldr	r4, [sp, #56]	; 0x38
    5888:	e3540000 	cmp	r4, #0
    588c:	1a000168 	bne	5e34 <_dtoa_r+0xd84>
    5890:	e1a01007 	mov	r1, r7
    5894:	e3a02005 	mov	r2, #5
    5898:	e1a03004 	mov	r3, r4
    589c:	e1a00006 	mov	r0, r6
    58a0:	eb000c52 	bl	89f0 <__multadd>
    58a4:	e1a07000 	mov	r7, r0
    58a8:	e1a01007 	mov	r1, r7
    58ac:	e1a0000b 	mov	r0, r11
    58b0:	eb000dfa 	bl	90a0 <__mcmp>
    58b4:	e3500000 	cmp	r0, #0
    58b8:	da00015d 	ble	5e34 <_dtoa_r+0xd84>
    58bc:	e59d3024 	ldr	r3, [sp, #36]	; 0x24
    58c0:	e3a02031 	mov	r2, #49	; 0x31
    58c4:	e4c32001 	strb	r2, [r3], #1
    58c8:	e59d4024 	ldr	r4, [sp, #36]	; 0x24
    58cc:	e58d3024 	str	r3, [sp, #36]	; 0x24
    58d0:	e2899001 	add	r9, r9, #1
    58d4:	e3a05000 	mov	r5, #0
    58d8:	e1a00006 	mov	r0, r6
    58dc:	e1a01007 	mov	r1, r7
    58e0:	eb000c3b 	bl	89d4 <_Bfree>
    58e4:	e35a0000 	cmp	r10, #0
    58e8:	0a000005 	beq	5904 <_dtoa_r+0x854>
    58ec:	e155000a 	cmp	r5, r10
    58f0:	13550000 	cmpne	r5, #0
    58f4:	1a000198 	bne	5f5c <_dtoa_r+0xeac>
    58f8:	e1a00006 	mov	r0, r6
    58fc:	e1a0100a 	mov	r1, r10
    5900:	eb000c33 	bl	89d4 <_Bfree>
    5904:	e1a00006 	mov	r0, r6
    5908:	e1a0100b 	mov	r1, r11
    590c:	eb000c30 	bl	89d4 <_Bfree>
    5910:	e59dc0b0 	ldr	r12, [sp, #176]	; 0xb0
    5914:	e35c0000 	cmp	r12, #0
    5918:	e59dc024 	ldr	r12, [sp, #36]	; 0x24
    591c:	e3a02000 	mov	r2, #0
    5920:	e5cc2000 	strb	r2, [r12]
    5924:	e59dc0a8 	ldr	r12, [sp, #168]	; 0xa8
    5928:	e2893001 	add	r3, r9, #1
    592c:	e58c3000 	str	r3, [r12]
    5930:	159dc024 	ldrne	r12, [sp, #36]	; 0x24
    5934:	159d10b0 	ldrne	r1, [sp, #176]	; 0xb0
    5938:	1581c000 	strne	r12, [r1]
    593c:	eafffe0d 	b	5178 <_dtoa_r+0xc8>
    5940:	e59dc02c 	ldr	r12, [sp, #44]	; 0x2c
    5944:	e069c00c 	rsb	r12, r9, r12
    5948:	e58dc02c 	str	r12, [sp, #44]	; 0x2c
    594c:	e2694000 	rsb	r4, r9, #0
    5950:	e3a0c000 	mov	r12, #0
    5954:	e58d403c 	str	r4, [sp, #60]	; 0x3c
    5958:	e58dc048 	str	r12, [sp, #72]	; 0x48
    595c:	eafffe78 	b	5344 <_dtoa_r+0x294>
    5960:	e1a00009 	mov	r0, r9
    5964:	ebffebcf 	bl	8a8 <__aeabi_i2d>
    5968:	e1a02004 	mov	r2, r4
    596c:	e1a03005 	mov	r3, r5
    5970:	eb00325c 	bl	122e8 <__aeabi_dcmpeq>
    5974:	e3500000 	cmp	r0, #0
    5978:	02499001 	subeq	r9, r9, #1
    597c:	eafffe50 	b	52c4 <_dtoa_r+0x214>
    5980:	e51f0318 	ldr	r0, [pc, #-792]	; 5670 <_dtoa_r+0x5c0>
    5984:	e59d1010 	ldr	r1, [sp, #16]
    5988:	e0670000 	rsb	r0, r7, r0
    598c:	e1a00011 	lsl	r0, r1, r0
    5990:	eafffe26 	b	5230 <_dtoa_r+0x180>
    5994:	e59dc0a0 	ldr	r12, [sp, #160]	; 0xa0
    5998:	e35c0001 	cmp	r12, #1
    599c:	da0002dc 	ble	6514 <_dtoa_r+0x1464>
    59a0:	e59dc038 	ldr	r12, [sp, #56]	; 0x38
    59a4:	e59d403c 	ldr	r4, [sp, #60]	; 0x3c
    59a8:	e24c5001 	sub	r5, r12, #1
    59ac:	e1540005 	cmp	r4, r5
    59b0:	b59dc03c 	ldrlt	r12, [sp, #60]	; 0x3c
    59b4:	b59d4048 	ldrlt	r4, [sp, #72]	; 0x48
    59b8:	b06c3005 	rsblt	r3, r12, r5
    59bc:	e59dc038 	ldr	r12, [sp, #56]	; 0x38
    59c0:	b0844003 	addlt	r4, r4, r3
    59c4:	a0655004 	rsbge	r5, r5, r4
    59c8:	b58d4048 	strlt	r4, [sp, #72]	; 0x48
    59cc:	b58d503c 	strlt	r5, [sp, #60]	; 0x3c
    59d0:	b3a05000 	movlt	r5, #0
    59d4:	e35c0000 	cmp	r12, #0
    59d8:	b59d102c 	ldrlt	r1, [sp, #44]	; 0x2c
    59dc:	a59d402c 	ldrge	r4, [sp, #44]	; 0x2c
    59e0:	a59d3038 	ldrge	r3, [sp, #56]	; 0x38
    59e4:	b06c4001 	rsblt	r4, r12, r1
    59e8:	b3a03000 	movlt	r3, #0
    59ec:	e59dc02c 	ldr	r12, [sp, #44]	; 0x2c
    59f0:	e08cc003 	add	r12, r12, r3
    59f4:	e58dc02c 	str	r12, [sp, #44]	; 0x2c
    59f8:	e59dc028 	ldr	r12, [sp, #40]	; 0x28
    59fc:	e1a00006 	mov	r0, r6
    5a00:	e08cc003 	add	r12, r12, r3
    5a04:	e3a01001 	mov	r1, #1
    5a08:	e58dc028 	str	r12, [sp, #40]	; 0x28
    5a0c:	eb000ca3 	bl	8ca0 <__i2b>
    5a10:	e1a0a000 	mov	r10, r0
    5a14:	eaffff34 	b	56ec <_dtoa_r+0x63c>
    5a18:	e3a0c000 	mov	r12, #0
    5a1c:	e58dc040 	str	r12, [sp, #64]	; 0x40
    5a20:	e59d10a4 	ldr	r1, [sp, #164]	; 0xa4
    5a24:	e3510000 	cmp	r1, #0
    5a28:	da000262 	ble	63b8 <_dtoa_r+0x1308>
    5a2c:	e58d1044 	str	r1, [sp, #68]	; 0x44
    5a30:	e58d1038 	str	r1, [sp, #56]	; 0x38
    5a34:	e1a08001 	mov	r8, r1
    5a38:	e351000e 	cmp	r1, #14
    5a3c:	83a04000 	movhi	r4, #0
    5a40:	92044001 	andls	r4, r4, #1
    5a44:	e3a01000 	mov	r1, #0
    5a48:	e3580017 	cmp	r8, #23
    5a4c:	e5861044 	str	r1, [r6, #68]	; 0x44
    5a50:	9a000008 	bls	5a78 <_dtoa_r+0x9c8>
    5a54:	e3a02001 	mov	r2, #1
    5a58:	e3a03004 	mov	r3, #4
    5a5c:	e1a03083 	lsl	r3, r3, #1
    5a60:	e2830014 	add	r0, r3, #20
    5a64:	e1500008 	cmp	r0, r8
    5a68:	e1a01002 	mov	r1, r2
    5a6c:	e2822001 	add	r2, r2, #1
    5a70:	9afffff9 	bls	5a5c <_dtoa_r+0x9ac>
    5a74:	e5861044 	str	r1, [r6, #68]	; 0x44
    5a78:	e1a00006 	mov	r0, r6
    5a7c:	eb000bb1 	bl	8948 <_Balloc>
    5a80:	e3540000 	cmp	r4, #0
    5a84:	e58d0024 	str	r0, [sp, #36]	; 0x24
    5a88:	e5860040 	str	r0, [r6, #64]	; 0x40
    5a8c:	0afffe61 	beq	5418 <_dtoa_r+0x368>
    5a90:	e3590000 	cmp	r9, #0
    5a94:	da000134 	ble	5f6c <_dtoa_r+0xebc>
    5a98:	e51f2424 	ldr	r2, [pc, #-1060]	; 567c <_dtoa_r+0x5cc>
    5a9c:	e209300f 	and	r3, r9, #15
    5aa0:	e1a07249 	asr	r7, r9, #4
    5aa4:	e0823183 	add	r3, r2, r3, lsl #3
    5aa8:	e3170010 	tst	r7, #16
    5aac:	e8930030 	ldm	r3, {r4, r5}
    5ab0:	0a000123 	beq	5f44 <_dtoa_r+0xe94>
    5ab4:	e51f3444 	ldr	r3, [pc, #-1092]	; 5678 <_dtoa_r+0x5c8>
    5ab8:	e28d1010 	add	r1, sp, #16
    5abc:	e8910003 	ldm	r1, {r0, r1}
    5ac0:	e2833020 	add	r3, r3, #32
    5ac4:	e893000c 	ldm	r3, {r2, r3}
    5ac8:	ebffec51 	bl	c14 <__aeabi_ddiv>
    5acc:	e58d0030 	str	r0, [sp, #48]	; 0x30
    5ad0:	e58d1034 	str	r1, [sp, #52]	; 0x34
    5ad4:	e207700f 	and	r7, r7, #15
    5ad8:	e3a08003 	mov	r8, #3
    5adc:	e3570000 	cmp	r7, #0
    5ae0:	0a00000c 	beq	5b18 <_dtoa_r+0xa68>
    5ae4:	e51fa474 	ldr	r10, [pc, #-1140]	; 5678 <_dtoa_r+0x5c8>
    5ae8:	e1a00004 	mov	r0, r4
    5aec:	e1a01005 	mov	r1, r5
    5af0:	e3170001 	tst	r7, #1
    5af4:	0a000002 	beq	5b04 <_dtoa_r+0xa54>
    5af8:	e89a000c 	ldm	r10, {r2, r3}
    5afc:	ebffeba0 	bl	984 <__aeabi_dmul>
    5b00:	e2888001 	add	r8, r8, #1
    5b04:	e1b070c7 	asrs	r7, r7, #1
    5b08:	e28aa008 	add	r10, r10, #8
    5b0c:	1afffff7 	bne	5af0 <_dtoa_r+0xa40>
    5b10:	e1a04000 	mov	r4, r0
    5b14:	e1a05001 	mov	r5, r1
    5b18:	e28d1030 	add	r1, sp, #48	; 0x30
    5b1c:	e8910003 	ldm	r1, {r0, r1}
    5b20:	e1a02004 	mov	r2, r4
    5b24:	e1a03005 	mov	r3, r5
    5b28:	ebffec39 	bl	c14 <__aeabi_ddiv>
    5b2c:	e58d0030 	str	r0, [sp, #48]	; 0x30
    5b30:	e58d1034 	str	r1, [sp, #52]	; 0x34
    5b34:	e59d404c 	ldr	r4, [sp, #76]	; 0x4c
    5b38:	e3540000 	cmp	r4, #0
    5b3c:	0a000006 	beq	5b5c <_dtoa_r+0xaac>
    5b40:	e28d1030 	add	r1, sp, #48	; 0x30
    5b44:	e8910003 	ldm	r1, {r0, r1}
    5b48:	e3a02000 	mov	r2, #0
    5b4c:	e51f34e0 	ldr	r3, [pc, #-1248]	; 5674 <_dtoa_r+0x5c4>
    5b50:	eb0031ea 	bl	12300 <__aeabi_dcmplt>
    5b54:	e3500000 	cmp	r0, #0
    5b58:	1a000235 	bne	6434 <_dtoa_r+0x1384>
    5b5c:	e1a00008 	mov	r0, r8
    5b60:	ebffeb50 	bl	8a8 <__aeabi_i2d>
    5b64:	e28d3030 	add	r3, sp, #48	; 0x30
    5b68:	e893000c 	ldm	r3, {r2, r3}
    5b6c:	ebffeb84 	bl	984 <__aeabi_dmul>
    5b70:	e3a02000 	mov	r2, #0
    5b74:	e51f34f0 	ldr	r3, [pc, #-1264]	; 568c <_dtoa_r+0x5dc>
    5b78:	ebffea7d 	bl	574 <__adddf3>
    5b7c:	e59dc038 	ldr	r12, [sp, #56]	; 0x38
    5b80:	e35c0000 	cmp	r12, #0
    5b84:	e1a04000 	mov	r4, r0
    5b88:	e241550d 	sub	r5, r1, #54525952	; 0x3400000
    5b8c:	0a000094 	beq	5de4 <_dtoa_r+0xd34>
    5b90:	e58d9064 	str	r9, [sp, #100]	; 0x64
    5b94:	e59da038 	ldr	r10, [sp, #56]	; 0x38
    5b98:	e59dc040 	ldr	r12, [sp, #64]	; 0x40
    5b9c:	e35c0000 	cmp	r12, #0
    5ba0:	0a00010f 	beq	5fe4 <_dtoa_r+0xf34>
    5ba4:	e51f3530 	ldr	r3, [pc, #-1328]	; 567c <_dtoa_r+0x5cc>
    5ba8:	e083318a 	add	r3, r3, r10, lsl #3
    5bac:	e913000c 	ldmdb	r3, {r2, r3}
    5bb0:	e3a00000 	mov	r0, #0
    5bb4:	e51f152c 	ldr	r1, [pc, #-1324]	; 5690 <_dtoa_r+0x5e0>
    5bb8:	ebffec15 	bl	c14 <__aeabi_ddiv>
    5bbc:	e1a02004 	mov	r2, r4
    5bc0:	e1a03005 	mov	r3, r5
    5bc4:	ebffea69 	bl	570 <__aeabi_dsub>
    5bc8:	e58d0050 	str	r0, [sp, #80]	; 0x50
    5bcc:	e58d1054 	str	r1, [sp, #84]	; 0x54
    5bd0:	e28d1030 	add	r1, sp, #48	; 0x30
    5bd4:	e8910003 	ldm	r1, {r0, r1}
    5bd8:	eb0031e0 	bl	12360 <__aeabi_d2iz>
    5bdc:	e1a07000 	mov	r7, r0
    5be0:	ebffeb30 	bl	8a8 <__aeabi_i2d>
    5be4:	e1a02000 	mov	r2, r0
    5be8:	e1a03001 	mov	r3, r1
    5bec:	e28d1030 	add	r1, sp, #48	; 0x30
    5bf0:	e8910003 	ldm	r1, {r0, r1}
    5bf4:	ebffea5d 	bl	570 <__aeabi_dsub>
    5bf8:	e2877030 	add	r7, r7, #48	; 0x30
    5bfc:	e59dc024 	ldr	r12, [sp, #36]	; 0x24
    5c00:	e20780ff 	and	r8, r7, #255	; 0xff
    5c04:	e4cc8001 	strb	r8, [r12], #1
    5c08:	e1a04000 	mov	r4, r0
    5c0c:	e1a05001 	mov	r5, r1
    5c10:	e1a02004 	mov	r2, r4
    5c14:	e28d1050 	add	r1, sp, #80	; 0x50
    5c18:	e8910003 	ldm	r1, {r0, r1}
    5c1c:	e1a03005 	mov	r3, r5
    5c20:	e58dc030 	str	r12, [sp, #48]	; 0x30
    5c24:	eb0031c7 	bl	12348 <__aeabi_dcmpgt>
    5c28:	e3500000 	cmp	r0, #0
    5c2c:	e59dc030 	ldr	r12, [sp, #48]	; 0x30
    5c30:	1a0002c7 	bne	6754 <_dtoa_r+0x16a4>
    5c34:	e1a02004 	mov	r2, r4
    5c38:	e1a03005 	mov	r3, r5
    5c3c:	e3a00000 	mov	r0, #0
    5c40:	e51f15d4 	ldr	r1, [pc, #-1492]	; 5674 <_dtoa_r+0x5c4>
    5c44:	e58dc008 	str	r12, [sp, #8]
    5c48:	ebffea48 	bl	570 <__aeabi_dsub>
    5c4c:	e1a02000 	mov	r2, r0
    5c50:	e1a03001 	mov	r3, r1
    5c54:	e28d1050 	add	r1, sp, #80	; 0x50
    5c58:	e8910003 	ldm	r1, {r0, r1}
    5c5c:	eb0031b9 	bl	12348 <__aeabi_dcmpgt>
    5c60:	e3500000 	cmp	r0, #0
    5c64:	e59dc008 	ldr	r12, [sp, #8]
    5c68:	1a000250 	bne	65b0 <_dtoa_r+0x1500>
    5c6c:	e35a0001 	cmp	r10, #1
    5c70:	dafffde8 	ble	5418 <_dtoa_r+0x368>
    5c74:	e59dc024 	ldr	r12, [sp, #36]	; 0x24
    5c78:	e59d7030 	ldr	r7, [sp, #48]	; 0x30
    5c7c:	e08ca00a 	add	r10, r12, r10
    5c80:	e58d906c 	str	r9, [sp, #108]	; 0x6c
    5c84:	e58d6068 	str	r6, [sp, #104]	; 0x68
    5c88:	e1a0900a 	mov	r9, r10
    5c8c:	e58db058 	str	r11, [sp, #88]	; 0x58
    5c90:	e1a0a007 	mov	r10, r7
    5c94:	e28d7050 	add	r7, sp, #80	; 0x50
    5c98:	e89700c0 	ldm	r7, {r6, r7}
    5c9c:	ea000007 	b	5cc0 <_dtoa_r+0xc10>
    5ca0:	ebffea32 	bl	570 <__aeabi_dsub>
    5ca4:	e1a02006 	mov	r2, r6
    5ca8:	e1a03007 	mov	r3, r7
    5cac:	eb003193 	bl	12300 <__aeabi_dcmplt>
    5cb0:	e3500000 	cmp	r0, #0
    5cb4:	1a00023a 	bne	65a4 <_dtoa_r+0x14f4>
    5cb8:	e15a0009 	cmp	r10, r9
    5cbc:	0a000241 	beq	65c8 <_dtoa_r+0x1518>
    5cc0:	e3a02000 	mov	r2, #0
    5cc4:	e51f3644 	ldr	r3, [pc, #-1604]	; 5688 <_dtoa_r+0x5d8>
    5cc8:	e1a00006 	mov	r0, r6
    5ccc:	e1a01007 	mov	r1, r7
    5cd0:	ebffeb2b 	bl	984 <__aeabi_dmul>
    5cd4:	e3a02000 	mov	r2, #0
    5cd8:	e51f3658 	ldr	r3, [pc, #-1624]	; 5688 <_dtoa_r+0x5d8>
    5cdc:	e1a06000 	mov	r6, r0
    5ce0:	e1a07001 	mov	r7, r1
    5ce4:	e1a00004 	mov	r0, r4
    5ce8:	e1a01005 	mov	r1, r5
    5cec:	ebffeb24 	bl	984 <__aeabi_dmul>
    5cf0:	e1a05001 	mov	r5, r1
    5cf4:	e1a04000 	mov	r4, r0
    5cf8:	eb003198 	bl	12360 <__aeabi_d2iz>
    5cfc:	e1a08000 	mov	r8, r0
    5d00:	ebffeae8 	bl	8a8 <__aeabi_i2d>
    5d04:	e1a02000 	mov	r2, r0
    5d08:	e1a03001 	mov	r3, r1
    5d0c:	e1a00004 	mov	r0, r4
    5d10:	e1a01005 	mov	r1, r5
    5d14:	ebffea15 	bl	570 <__aeabi_dsub>
    5d18:	e2888030 	add	r8, r8, #48	; 0x30
    5d1c:	e20880ff 	and	r8, r8, #255	; 0xff
    5d20:	e4ca8001 	strb	r8, [r10], #1
    5d24:	e1a02006 	mov	r2, r6
    5d28:	e1a03007 	mov	r3, r7
    5d2c:	e1a05001 	mov	r5, r1
    5d30:	e1a04000 	mov	r4, r0
    5d34:	eb003171 	bl	12300 <__aeabi_dcmplt>
    5d38:	e3500000 	cmp	r0, #0
    5d3c:	e1a02004 	mov	r2, r4
    5d40:	e1a03005 	mov	r3, r5
    5d44:	e3a00000 	mov	r0, #0
    5d48:	e51f16dc 	ldr	r1, [pc, #-1756]	; 5674 <_dtoa_r+0x5c4>
    5d4c:	e1a0b00a 	mov	r11, r10
    5d50:	0affffd2 	beq	5ca0 <_dtoa_r+0xbf0>
    5d54:	e59d4024 	ldr	r4, [sp, #36]	; 0x24
    5d58:	e1a0700a 	mov	r7, r10
    5d5c:	e59db058 	ldr	r11, [sp, #88]	; 0x58
    5d60:	e59d6068 	ldr	r6, [sp, #104]	; 0x68
    5d64:	e59d9064 	ldr	r9, [sp, #100]	; 0x64
    5d68:	e58da024 	str	r10, [sp, #36]	; 0x24
    5d6c:	eafffee4 	b	5904 <_dtoa_r+0x854>
    5d70:	e3a0c001 	mov	r12, #1
    5d74:	e58dc040 	str	r12, [sp, #64]	; 0x40
    5d78:	e59dc0a4 	ldr	r12, [sp, #164]	; 0xa4
    5d7c:	e08cc009 	add	r12, r12, r9
    5d80:	e28c8001 	add	r8, r12, #1
    5d84:	e3580000 	cmp	r8, #0
    5d88:	e58dc044 	str	r12, [sp, #68]	; 0x44
    5d8c:	da000191 	ble	63d8 <_dtoa_r+0x1328>
    5d90:	e358000e 	cmp	r8, #14
    5d94:	83a04000 	movhi	r4, #0
    5d98:	92044001 	andls	r4, r4, #1
    5d9c:	e58d8038 	str	r8, [sp, #56]	; 0x38
    5da0:	eaffff27 	b	5a44 <_dtoa_r+0x994>
    5da4:	e3a0c001 	mov	r12, #1
    5da8:	e58dc040 	str	r12, [sp, #64]	; 0x40
    5dac:	eaffff1b 	b	5a20 <_dtoa_r+0x970>
    5db0:	e3a0c000 	mov	r12, #0
    5db4:	e58dc040 	str	r12, [sp, #64]	; 0x40
    5db8:	eaffffee 	b	5d78 <_dtoa_r+0xcc8>
    5dbc:	e1a00008 	mov	r0, r8
    5dc0:	ebffeab8 	bl	8a8 <__aeabi_i2d>
    5dc4:	e28d3030 	add	r3, sp, #48	; 0x30
    5dc8:	e893000c 	ldm	r3, {r2, r3}
    5dcc:	ebffeaec 	bl	984 <__aeabi_dmul>
    5dd0:	e3a02000 	mov	r2, #0
    5dd4:	e51f3750 	ldr	r3, [pc, #-1872]	; 568c <_dtoa_r+0x5dc>
    5dd8:	ebffe9e5 	bl	574 <__adddf3>
    5ddc:	e1a04000 	mov	r4, r0
    5de0:	e241550d 	sub	r5, r1, #54525952	; 0x3400000
    5de4:	e3a02000 	mov	r2, #0
    5de8:	e51f3770 	ldr	r3, [pc, #-1904]	; 5680 <_dtoa_r+0x5d0>
    5dec:	e28d1030 	add	r1, sp, #48	; 0x30
    5df0:	e8910003 	ldm	r1, {r0, r1}
    5df4:	ebffe9dd 	bl	570 <__aeabi_dsub>
    5df8:	e1a02004 	mov	r2, r4
    5dfc:	e1a03005 	mov	r3, r5
    5e00:	e1a07000 	mov	r7, r0
    5e04:	e1a08001 	mov	r8, r1
    5e08:	eb00314e 	bl	12348 <__aeabi_dcmpgt>
    5e0c:	e250a000 	subs	r10, r0, #0
    5e10:	1a000070 	bne	5fd8 <_dtoa_r+0xf28>
    5e14:	e1a02004 	mov	r2, r4
    5e18:	e2853102 	add	r3, r5, #-2147483648	; 0x80000000
    5e1c:	e1a00007 	mov	r0, r7
    5e20:	e1a01008 	mov	r1, r8
    5e24:	eb003135 	bl	12300 <__aeabi_dcmplt>
    5e28:	e3500000 	cmp	r0, #0
    5e2c:	0afffd79 	beq	5418 <_dtoa_r+0x368>
    5e30:	e1a0700a 	mov	r7, r10
    5e34:	e59dc0a4 	ldr	r12, [sp, #164]	; 0xa4
    5e38:	e59d4024 	ldr	r4, [sp, #36]	; 0x24
    5e3c:	e1e0900c 	mvn	r9, r12
    5e40:	e3a05000 	mov	r5, #0
    5e44:	eafffea3 	b	58d8 <_dtoa_r+0x828>
    5e48:	e59dc040 	ldr	r12, [sp, #64]	; 0x40
    5e4c:	e35c0000 	cmp	r12, #0
    5e50:	1a0000ee 	bne	6210 <_dtoa_r+0x1160>
    5e54:	e3a04000 	mov	r4, #0
    5e58:	e59d5038 	ldr	r5, [sp, #56]	; 0x38
    5e5c:	e59d8024 	ldr	r8, [sp, #36]	; 0x24
    5e60:	ea000005 	b	5e7c <_dtoa_r+0xdcc>
    5e64:	e1a0100b 	mov	r1, r11
    5e68:	e1a00006 	mov	r0, r6
    5e6c:	e3a0200a 	mov	r2, #10
    5e70:	e3a03000 	mov	r3, #0
    5e74:	eb000add 	bl	89f0 <__multadd>
    5e78:	e1a0b000 	mov	r11, r0
    5e7c:	e1a01007 	mov	r1, r7
    5e80:	e1a0000b 	mov	r0, r11
    5e84:	ebfffc11 	bl	4ed0 <quorem>
    5e88:	e2800030 	add	r0, r0, #48	; 0x30
    5e8c:	e7c80004 	strb	r0, [r8, r4]
    5e90:	e2844001 	add	r4, r4, #1
    5e94:	e1540005 	cmp	r4, r5
    5e98:	bafffff1 	blt	5e64 <_dtoa_r+0xdb4>
    5e9c:	e59dc024 	ldr	r12, [sp, #36]	; 0x24
    5ea0:	e59d4038 	ldr	r4, [sp, #56]	; 0x38
    5ea4:	e1a03000 	mov	r3, r0
    5ea8:	e3540001 	cmp	r4, #1
    5eac:	a08cc004 	addge	r12, r12, r4
    5eb0:	b28cc001 	addlt	r12, r12, #1
    5eb4:	e3a05000 	mov	r5, #0
    5eb8:	e1a0100b 	mov	r1, r11
    5ebc:	e3a02001 	mov	r2, #1
    5ec0:	e1a00006 	mov	r0, r6
    5ec4:	e58d300c 	str	r3, [sp, #12]
    5ec8:	e58dc008 	str	r12, [sp, #8]
    5ecc:	eb000c32 	bl	8f9c <__lshift>
    5ed0:	e1a01007 	mov	r1, r7
    5ed4:	e1a0b000 	mov	r11, r0
    5ed8:	eb000c70 	bl	90a0 <__mcmp>
    5edc:	e3500000 	cmp	r0, #0
    5ee0:	e59d300c 	ldr	r3, [sp, #12]
    5ee4:	e59dc008 	ldr	r12, [sp, #8]
    5ee8:	da0001ba 	ble	65d8 <_dtoa_r+0x1528>
    5eec:	e59d4024 	ldr	r4, [sp, #36]	; 0x24
    5ef0:	e2844001 	add	r4, r4, #1
    5ef4:	e55c3001 	ldrb	r3, [r12, #-1]
    5ef8:	e58d4030 	str	r4, [sp, #48]	; 0x30
    5efc:	e1a0100c 	mov	r1, r12
    5f00:	e59d0030 	ldr	r0, [sp, #48]	; 0x30
    5f04:	ea000001 	b	5f10 <_dtoa_r+0xe60>
    5f08:	e5513002 	ldrb	r3, [r1, #-2]
    5f0c:	e1a01002 	mov	r1, r2
    5f10:	e3530039 	cmp	r3, #57	; 0x39
    5f14:	e2412001 	sub	r2, r1, #1
    5f18:	1a0001cd 	bne	6654 <_dtoa_r+0x15a4>
    5f1c:	e1510000 	cmp	r1, r0
    5f20:	1afffff8 	bne	5f08 <_dtoa_r+0xe58>
    5f24:	e3a03031 	mov	r3, #49	; 0x31
    5f28:	e59d4024 	ldr	r4, [sp, #36]	; 0x24
    5f2c:	e2899001 	add	r9, r9, #1
    5f30:	e5c23000 	strb	r3, [r2]
    5f34:	e58d1024 	str	r1, [sp, #36]	; 0x24
    5f38:	eafffe66 	b	58d8 <_dtoa_r+0x828>
    5f3c:	e3a0301c 	mov	r3, #28
    5f40:	eafffe2c 	b	57f8 <_dtoa_r+0x748>
    5f44:	e28d3010 	add	r3, sp, #16
    5f48:	e893000c 	ldm	r3, {r2, r3}
    5f4c:	e3a08002 	mov	r8, #2
    5f50:	e58d2030 	str	r2, [sp, #48]	; 0x30
    5f54:	e58d3034 	str	r3, [sp, #52]	; 0x34
    5f58:	eafffedf 	b	5adc <_dtoa_r+0xa2c>
    5f5c:	e1a00006 	mov	r0, r6
    5f60:	e1a01005 	mov	r1, r5
    5f64:	eb000a9a 	bl	89d4 <_Bfree>
    5f68:	eafffe62 	b	58f8 <_dtoa_r+0x848>
    5f6c:	e2694000 	rsb	r4, r9, #0
    5f70:	e3540000 	cmp	r4, #0
    5f74:	0a000128 	beq	641c <_dtoa_r+0x136c>
    5f78:	e51f3904 	ldr	r3, [pc, #-2308]	; 567c <_dtoa_r+0x5cc>
    5f7c:	e204200f 	and	r2, r4, #15
    5f80:	e0833182 	add	r3, r3, r2, lsl #3
    5f84:	e28d1010 	add	r1, sp, #16
    5f88:	e8910003 	ldm	r1, {r0, r1}
    5f8c:	e893000c 	ldm	r3, {r2, r3}
    5f90:	ebffea7b 	bl	984 <__aeabi_dmul>
    5f94:	e1b04244 	asrs	r4, r4, #4
    5f98:	e58d0030 	str	r0, [sp, #48]	; 0x30
    5f9c:	e58d1034 	str	r1, [sp, #52]	; 0x34
    5fa0:	0a0001d2 	beq	66f0 <_dtoa_r+0x1640>
    5fa4:	e51f5934 	ldr	r5, [pc, #-2356]	; 5678 <_dtoa_r+0x5c8>
    5fa8:	e3a08002 	mov	r8, #2
    5fac:	e3140001 	tst	r4, #1
    5fb0:	0a000002 	beq	5fc0 <_dtoa_r+0xf10>
    5fb4:	e895000c 	ldm	r5, {r2, r3}
    5fb8:	ebffea71 	bl	984 <__aeabi_dmul>
    5fbc:	e2888001 	add	r8, r8, #1
    5fc0:	e1b040c4 	asrs	r4, r4, #1
    5fc4:	e2855008 	add	r5, r5, #8
    5fc8:	1afffff7 	bne	5fac <_dtoa_r+0xefc>
    5fcc:	e58d0030 	str	r0, [sp, #48]	; 0x30
    5fd0:	e58d1034 	str	r1, [sp, #52]	; 0x34
    5fd4:	eafffed6 	b	5b34 <_dtoa_r+0xa84>
    5fd8:	e3a07000 	mov	r7, #0
    5fdc:	e1a0a007 	mov	r10, r7
    5fe0:	eafffe35 	b	58bc <_dtoa_r+0x80c>
    5fe4:	e51f1970 	ldr	r1, [pc, #-2416]	; 567c <_dtoa_r+0x5cc>
    5fe8:	e24ac001 	sub	r12, r10, #1
    5fec:	e081118c 	add	r1, r1, r12, lsl #3
    5ff0:	e1a02004 	mov	r2, r4
    5ff4:	e1a03005 	mov	r3, r5
    5ff8:	e8910003 	ldm	r1, {r0, r1}
    5ffc:	e58dc050 	str	r12, [sp, #80]	; 0x50
    6000:	ebffea5f 	bl	984 <__aeabi_dmul>
    6004:	e58d0058 	str	r0, [sp, #88]	; 0x58
    6008:	e58d105c 	str	r1, [sp, #92]	; 0x5c
    600c:	e28d1030 	add	r1, sp, #48	; 0x30
    6010:	e8910003 	ldm	r1, {r0, r1}
    6014:	eb0030d1 	bl	12360 <__aeabi_d2iz>
    6018:	e1a07000 	mov	r7, r0
    601c:	ebffea21 	bl	8a8 <__aeabi_i2d>
    6020:	e1a02000 	mov	r2, r0
    6024:	e1a03001 	mov	r3, r1
    6028:	e28d1030 	add	r1, sp, #48	; 0x30
    602c:	e8910003 	ldm	r1, {r0, r1}
    6030:	ebffe94e 	bl	570 <__aeabi_dsub>
    6034:	e59dc024 	ldr	r12, [sp, #36]	; 0x24
    6038:	e2877030 	add	r7, r7, #48	; 0x30
    603c:	e4cc7001 	strb	r7, [r12], #1
    6040:	e35a0001 	cmp	r10, #1
    6044:	e1a04000 	mov	r4, r0
    6048:	e1a05001 	mov	r5, r1
    604c:	e58dc030 	str	r12, [sp, #48]	; 0x30
    6050:	0a000019 	beq	60bc <_dtoa_r+0x100c>
    6054:	e59dc024 	ldr	r12, [sp, #36]	; 0x24
    6058:	e24c3001 	sub	r3, r12, #1
    605c:	e1a0700c 	mov	r7, r12
    6060:	e083a00a 	add	r10, r3, r10
    6064:	e3a02000 	mov	r2, #0
    6068:	e51f39e8 	ldr	r3, [pc, #-2536]	; 5688 <_dtoa_r+0x5d8>
    606c:	ebffea44 	bl	984 <__aeabi_dmul>
    6070:	e1a05001 	mov	r5, r1
    6074:	e1a04000 	mov	r4, r0
    6078:	eb0030b8 	bl	12360 <__aeabi_d2iz>
    607c:	e1a08000 	mov	r8, r0
    6080:	ebffea08 	bl	8a8 <__aeabi_i2d>
    6084:	e2888030 	add	r8, r8, #48	; 0x30
    6088:	e1a02000 	mov	r2, r0
    608c:	e1a03001 	mov	r3, r1
    6090:	e1a00004 	mov	r0, r4
    6094:	e1a01005 	mov	r1, r5
    6098:	ebffe934 	bl	570 <__aeabi_dsub>
    609c:	e5e78001 	strb	r8, [r7, #1]!
    60a0:	e157000a 	cmp	r7, r10
